

Microchip MPLAB XC8 Assembler V2.35 build 20211206165544 
                                                                                               Sat Jul 30 20:58:19 2022

Microchip MPLAB XC8 C Compiler v2.35 (Free license) build 20211206165544 Og1 
     1                           	processor	18F16Q40
     2                           	fnconf	rparam,??,?,0
     3                           	pagewidth 120
     4                           	opt	flic
     5                           	psect	cinit,global,reloc=2,class=CODE,delta=1
     6                           	psect	bssCOMRAM,global,class=COMRAM,space=1,delta=1,lowdata,noexec
     7                           	psect	bssBANK5,global,class=BANK5,space=1,delta=1,lowdata,noexec
     8                           	psect	cstackCOMRAM,global,class=COMRAM,space=1,delta=1,lowdata,noexec
     9                           	psect	text0,global,reloc=2,class=CODE,delta=1
    10                           	psect	text1,global,reloc=2,class=CODE,delta=1
    11                           	psect	text2,global,reloc=2,class=CODE,delta=1
    12                           	psect	text3,global,reloc=2,class=CODE,delta=1
    13                           	psect	text4,global,reloc=2,class=CODE,delta=1
    14                           	psect	text5,global,reloc=2,class=CODE,delta=1
    15                           	psect	text6,global,reloc=2,class=CODE,delta=1
    16                           	psect	text7,global,reloc=2,class=CODE,delta=1
    17                           	psect	text8,global,reloc=2,class=CODE,delta=1
    18                           	psect	text9,global,reloc=2,class=CODE,delta=1
    19                           	psect	text10,global,reloc=2,class=CODE,delta=1
    20                           	psect	text11,global,reloc=2,class=CODE,delta=1
    21                           	psect	text12,global,reloc=2,class=CODE,delta=1
    22                           	psect	text13,global,reloc=2,class=CODE,delta=1
    23                           	psect	text14,global,reloc=2,class=CODE,delta=1
    24                           	psect	text15,global,reloc=2,class=CODE,delta=1
    25                           	psect	text16,global,reloc=2,class=CODE,delta=1
    26                           	psect	text17,global,reloc=2,class=CODE,delta=1
    27                           	psect	text18,global,reloc=2,class=CODE,delta=1
    28                           	psect	text19,global,reloc=2,class=CODE,delta=1,inline
    29                           	psect	text20,global,reloc=2,class=CODE,delta=1,inline
    30                           	psect	text21,global,reloc=2,class=CODE,delta=1
    31                           	psect	text22,global,reloc=2,class=CODE,delta=1
    32                           	psect	text23,global,reloc=2,class=CODE,delta=1
    33                           	psect	text24,global,reloc=2,class=CODE,delta=1
    34                           	psect	text25,global,reloc=2,class=CODE,delta=1,inline
    35                           	psect	text26,global,reloc=2,class=CODE,delta=1,inline
    36                           	psect	text27,global,reloc=2,class=CODE,delta=1
    37                           	psect	text28,global,reloc=4,class=CODE,delta=1
    38                           	psect	text29,global,reloc=2,class=CODE,delta=1
    39                           	psect	text30,global,reloc=2,class=CODE,delta=1
    40                           	psect	text31,global,reloc=2,class=CODE,delta=1
    41                           	psect	text32,global,reloc=2,class=CODE,delta=1,inline
    42                           	psect	text33,global,reloc=2,class=CODE,delta=1,inline
    43                           	psect	text34,global,reloc=2,class=CODE,delta=1,inline
    44                           	psect	text35,global,reloc=2,class=CODE,delta=1
    45                           	psect	text36,global,reloc=2,class=CODE,delta=1
    46                           	psect	text37,global,reloc=2,class=CODE,delta=1,inline
    47                           	psect	text38,global,reloc=2,class=CODE,delta=1,inline
    48                           	psect	text39,global,reloc=2,class=CODE,delta=1,inline
    49                           	psect	text40,global,reloc=2,class=CODE,delta=1,inline
    50                           	psect	text41,global,reloc=2,class=CODE,delta=1,inline
    51                           	psect	text42,global,reloc=2,class=CODE,delta=1,inline
    52                           	psect	text43,global,reloc=2,class=CODE,delta=1,inline
    53                           	psect	text44,global,reloc=2,class=CODE,delta=1,inline
    54                           	psect	text45,global,reloc=2,class=CODE,delta=1
    55                           	psect	text46,global,reloc=2,class=CODE,delta=1
    56                           	psect	text47,global,reloc=2,class=CODE,delta=1,inline
    57                           	psect	text48,global,reloc=4,class=CODE,delta=1
    58                           	psect	ivt0x8,global,reloc=2,class=CODE,delta=1,noexec,keep,optim=
    59                           	psect	intsave_regs,global,class=BIGRAM,space=1,delta=1,noexec
    60                           	psect	text49,global,reloc=4,class=CODE,delta=1
    61                           	psect	rparam,global,class=COMRAM,space=1,delta=1,noexec
    62                           	psect	idloc,global,abs,ovrld,class=IDLOC,space=5,delta=1,noexec
    63                           	psect	config,global,abs,ovrld,class=CONFIG,space=4,delta=1,noexec
    64  0000                     
    65                           ; Version 2.32
    66                           ; Generated 10/02/2021 GMT
    67                           ; 
    68                           ; Copyright © 2021, Microchip Technology Inc. and its subsidiaries ("Microchip")
    69                           ; All rights reserved.
    70                           ; 
    71                           ; This software is developed by Microchip Technology Inc. and its subsidiaries ("Microch
      +                          ip").
    72                           ; 
    73                           ; Redistribution and use in source and binary forms, with or without modification, are
    74                           ; permitted provided that the following conditions are met:
    75                           ; 
    76                           ;     1. Redistributions of source code must retain the above copyright notice, this lis
      +                          t of
    77                           ;        conditions and the following disclaimer.
    78                           ; 
    79                           ;     2. Redistributions in binary form must reproduce the above copyright notice, this 
      +                          list
    80                           ;        of conditions and the following disclaimer in the documentation and/or other
    81                           ;        materials provided with the distribution. Publication is not required when
    82                           ;        this file is used in an embedded application.
    83                           ; 
    84                           ;     3. Microchip's name may not be used to endorse or promote products derived from th
      +                          is
    85                           ;        software without specific prior written permission.
    86                           ; 
    87                           ; THIS SOFTWARE IS PROVIDED BY MICROCHIP "AS IS" AND ANY EXPRESS OR IMPLIED WARRANTIES,
    88                           ; INCLUDING, BUT NOT LIMITED TO, THE IMPLIED WARRANTIES OF MERCHANTABILITY AND FITNESS F
      +                          OR
    89                           ; PURPOSE ARE DISCLAIMED.  IN NO EVENT SHALL MICROCHIP BE LIABLE FOR ANY DIRECT, INDIREC
      +                          T,
    90                           ; INCIDENTAL, SPECIAL, EXEMPLARY, OR CONSEQUENTIAL DAMAGES (INCLUDING BUT NOT LIMITED TO
    91                           ; PROCUREMENT OF SUBSTITUTE GOODS OR SERVICES; LOSS OF USE, DATA OR PROFITS; OR BUSINESS
    92                           ; INTERRUPTION) HOWSOEVER CAUSED AND ON ANY THEORY OF LIABILITY, WHETHER IN CONTRACT, ST
      +                          RICT
    93                           ; LIABILITY, OR TORT (INCLUDING NEGLIGENCE OR OTHERWISE) ARISING IN ANY WAY OUT OF THE U
      +                          SE OF
    94                           ; THIS SOFTWARE, EVEN IF ADVISED OF THE POSSIBILITY OF SUCH DAMAGE.
    95                           ; 
    96                           ; 
    97                           ; Code-generator required, PIC18F16Q40 Definitions
    98                           ; 
    99                           ; SFR Addresses
   100  0000                     
   101 ;; Function _I2C1_SlaveDefWrColInterruptHandler is unused but had its address taken
   102  0000                     
   103 ;; Function _I2C1_SlaveDefBusColInterruptHandler is unused but had its address taken
   104  0000                     _TRISBbits	set	1223
   105  0000                     _OSCTUNE	set	176
   106  0000                     _OSCFRQ	set	177
   107  0000                     _OSCEN	set	179
   108  0000                     _I2C1STAT0bits	set	664
   109  0000                     _I2C1ERRbits	set	663
   110  0000                     _I2C1ADR3	set	659
   111  0000                     _I2C1ADR1	set	657
   112  0000                     _I2C1ADR2	set	658
   113  0000                     _I2C1STAT1bits	set	665
   114  0000                     _I2C1PIR	set	666
   115  0000                     _I2C1BAUD	set	669
   116  0000                     _I2C1CON2	set	662
   117  0000                     _I2C1CON1	set	661
   118  0000                     _CM1CON0bits	set	112
   119  0000                     _U1ERRIRbits	set	690
   120  0000                     _U1CON0bits	set	683
   121  0000                     _I2C1CON1bits	set	661
   122  0000                     _I2C1PIRbits	set	666
   123  0000                     _I2C1CON0bits	set	660
   124  0000                     _IVTLOCKbits	set	1113
   125  0000                     _GIE	set	9911
   126  0000                     _PMD0	set	99
   127  0000                     _RC3PPS	set	532
   128  0000                     _I2C1SDAPPS	set	624
   129  0000                     _I2C1CNTL	set	652
   130  0000                     _I2C1CON0	set	660
   131  0000                     _LATBbits	set	1215
   132  0000                     _INTCON0bits	set	1238
   133  0000                     _LATCbits	set	1216
   134  0000                     _TRISAbits	set	1222
   135  0000                     _TRISCbits	set	1224
   136  0000                     _I2C1ADB0	set	654
   137  0000                     _I2C1ADR0	set	656
   138  0000                     _I2C1CNTH	set	653
   139  0000                     _U1RXB	set	673
   140  0000                     _U1P1L	set	677
   141  0000                     _IPR7bits	set	878
   142  0000                     _ANSELAbits	set	1024
   143  0000                     _ANSELCbits	set	1040
   144  0000                     _PORTAbits	set	1230
   145  0000                     _IVTLOCK	set	1113
   146  0000                     _PIE7bits	set	1199
   147  0000                     _ODCONCbits	set	1042
   148  0000                     _WPUCbits	set	1041
   149  0000                     _I2C1RXB	set	650
   150  0000                     _I2C1TXB	set	651
   151  0000                     _I2C1SCLPPS	set	625
   152  0000                     _RC6PPS	set	535
   153  0000                     _I2C1PIEbits	set	667
   154  0000                     _PIR4bits	set	1207
   155  0000                     _CM1CON0	set	112
   156  0000                     _ACTCON	set	172
   157  0000                     _OSCCON1	set	173
   158  0000                     _PMD5	set	104
   159  0000                     _PMD4	set	103
   160  0000                     _PMD3	set	102
   161  0000                     _PMD2	set	101
   162  0000                     _PMD1	set	100
   163  0000                     _OSCCON3	set	175
   164  0000                     _RA2PPS	set	515
   165  0000                     _ANSELBbits	set	1032
   166  0000                     _PORTBbits	set	1231
   167  0000                     _IVTBASEL	set	1117
   168  0000                     _IVTBASEH	set	1118
   169  0000                     _IVTBASEU	set	1119
   170  0000                     _U1ERRIE	set	691
   171  0000                     _U1ERRIR	set	690
   172  0000                     _U1UIR	set	689
   173  0000                     _U1FIFO	set	688
   174  0000                     _U1BRGH	set	687
   175  0000                     _U1BRGL	set	686
   176  0000                     _U1CON2	set	685
   177  0000                     _U1CON1	set	684
   178  0000                     _U1CON0	set	683
   179  0000                     _U1P3H	set	682
   180  0000                     _U1P3L	set	681
   181  0000                     _U1P2H	set	680
   182  0000                     _U1P2L	set	679
   183  0000                     _U1P1H	set	678
   184  0000                     _U1TXB	set	675
   185  0000                     _CM1PCH	set	115
   186  0000                     _CM1NCH	set	114
   187  0000                     _CM1CON1	set	113
   188                           
   189                           ; #config settings
   190                           
   191                           	psect	cinit
   192  000492                     __pcinit:
   193                           	callstack 0
   194  000492                     start_initialization:
   195                           	callstack 0
   196  000492                     __initialization:
   197                           	callstack 0
   198                           
   199                           ; Clear objects allocated to BANK5 (128 bytes)
   200  000492  EE01  F160         	lfsr	0,__pbssBANK5
   201  000496  0E80               	movlw	128
   202  000498                     clear_0:
   203  000498  6AEE               	clrf	postinc0,c
   204  00049A  06E8               	decf	wreg,f,c
   205  00049C  E1FD               	bnz	clear_0
   206                           
   207                           ; Clear objects allocated to COMRAM (25 bytes)
   208  00049E  EE01  F101         	lfsr	0,__pbssCOMRAM
   209  0004A2  0E19               	movlw	25
   210  0004A4                     clear_1:
   211  0004A4  6AEE               	clrf	postinc0,c
   212  0004A6  06E8               	decf	wreg,f,c
   213  0004A8  E1FD               	bnz	clear_1
   214                           
   215                           ;
   216                           ; Setup IVTBASE
   217                           ;
   218  0004AA  0104               	movlb	4
   219  0004AC  0E08               	movlw	(ivt0x8_base shr 0)& (0+255)
   220  0004AE  6F5D               	movwf	93,b
   221  0004B0  0E00               	movlw	(ivt0x8_base shr (0+8))& (0+255)
   222  0004B2  6F5E               	movwf	94,b
   223  0004B4  0E00               	movlw	(ivt0x8_base shr (0+16))& (0+255)
   224  0004B6  6F5F               	movwf	95,b
   225  0004B8                     end_of_initialization:
   226                           	callstack 0
   227  0004B8                     __end_of__initialization:
   228                           	callstack 0
   229  0004B8  0E00               	movlw	low (__Lmediumconst shr (0+16))
   230  0004BA  6EF8               	movwf	tblptru,c
   231  0004BC  0100               	movlb	0
   232  0004BE  EF88  F001         	goto	_main	;jump to C main() function
   233                           
   234                           	psect	bssCOMRAM
   235  000501                     __pbssCOMRAM:
   236                           	callstack 0
   237  000501                     _UART1_ErrorHandler:
   238                           	callstack 0
   239  000501                     	ds	2
   240  000503                     _UART1_OverrunErrorHandler:
   241                           	callstack 0
   242  000503                     	ds	2
   243  000505                     _UART1_FramingErrorHandler:
   244                           	callstack 0
   245  000505                     	ds	2
   246  000507                     _I2C1_SlaveWrColInterruptHandler:
   247                           	callstack 0
   248  000507                     	ds	2
   249  000509                     _I2C1_SlaveBusColInterruptHandler:
   250                           	callstack 0
   251  000509                     	ds	2
   252  00050B                     _I2C1_SlaveAddrInterruptHandler:
   253                           	callstack 0
   254  00050B                     	ds	2
   255  00050D                     _I2C1_SlaveWrInterruptHandler:
   256                           	callstack 0
   257  00050D                     	ds	2
   258  00050F                     _I2C1_SlaveRdInterruptHandler:
   259                           	callstack 0
   260  00050F                     	ds	2
   261  000511                     _I2C1_InterruptHandler:
   262                           	callstack 0
   263  000511                     	ds	2
   264  000513                     _uart1RxLastError:
   265                           	callstack 0
   266  000513                     	ds	1
   267  000514                     _Jaccess_reg:
   268                           	callstack 0
   269  000514                     	ds	1
   270  000515                     _Ji2c_state:
   271                           	callstack 0
   272  000515                     	ds	1
   273  000516                     _i2c1SlaveState:
   274                           	callstack 0
   275  000516                     	ds	1
   276  000517                     _i2c1SlaveAddr:
   277                           	callstack 0
   278  000517                     	ds	1
   279  000518                     _i2c1RdData:
   280                           	callstack 0
   281  000518                     	ds	1
   282  000519                     _i2c1WrData:
   283                           	callstack 0
   284  000519                     	ds	1
   285                           
   286                           	psect	bssBANK5
   287  000560                     __pbssBANK5:
   288                           	callstack 0
   289  000560                     _Ji2c_registers:
   290                           	callstack 0
   291  000560                     	ds	128
   292                           
   293                           	psect	cstackCOMRAM
   294  00051A                     __pcstackCOMRAM:
   295                           	callstack 0
   296  00051A                     I2C1_SlaveSetCounter@counter:
   297                           	callstack 0
   298  00051A                     I2C1_SlaveSendTxData@data:
   299                           	callstack 0
   300                           
   301                           ; 1 bytes @ 0x0
   302  00051A                     	ds	1
   303  00051B                     ??_I2C1_Isr:
   304  00051B                     
   305                           ; 1 bytes @ 0x1
   306  00051B                     	ds	2
   307  00051D                     ??_I2C1_ISR:
   308                           
   309                           ; 1 bytes @ 0x3
   310  00051D                     	ds	2
   311  00051F                     I2C1_SlaveSetSlaveAddr@slaveAddr:
   312                           	callstack 0
   313  00051F                     I2C1_SlaveSetSlaveMask@maskAddr:
   314                           	callstack 0
   315  00051F                     io_VDD_PIC_EN_write@state:
   316                           	callstack 0
   317  00051F                     io_VDD_5V_EN_write@state:
   318                           	callstack 0
   319  00051F                     io_VDD_3V3_CE_write@state:
   320                           	callstack 0
   321  00051F                     interrupt_init@state:
   322                           	callstack 0
   323  00051F                     I2C1_SlaveSetIsrHandler@handler:
   324                           	callstack 0
   325  00051F                     I2C1_SlaveSetReadIntHandler@handler:
   326                           	callstack 0
   327  00051F                     I2C1_SlaveSetWriteIntHandler@handler:
   328                           	callstack 0
   329  00051F                     I2C1_SlaveSetAddrIntHandler@handler:
   330                           	callstack 0
   331  00051F                     I2C1_SlaveSetWrColIntHandler@handler:
   332                           	callstack 0
   333  00051F                     I2C1_SlaveSetBusColIntHandler@handler:
   334                           	callstack 0
   335  00051F                     UART1_SetFramingErrorHandler@interruptHandler:
   336                           	callstack 0
   337  00051F                     UART1_SetOverrunErrorHandler@interruptHandler:
   338                           	callstack 0
   339  00051F                     UART1_SetErrorHandler@interruptHandler:
   340                           	callstack 0
   341                           
   342                           ; 2 bytes @ 0x5
   343  00051F                     	ds	2
   344  000521                     ??_main:
   345                           
   346                           ; 1 bytes @ 0x7
   347  000521                     	ds	2
   348                           
   349 ;;
   350 ;;Main: autosize = 0, tempsize = 2, incstack = 0, save=0
   351 ;;
   352 ;; *************** function _main *****************
   353 ;; Defined at:
   354 ;;		line 10 in file "main.c"
   355 ;; Parameters:    Size  Location     Type
   356 ;;		None
   357 ;; Auto vars:     Size  Location     Type
   358 ;;  data            1    0        unsigned char 
   359 ;; Return value:  Size  Location     Type
   360 ;;                  1    wreg      void 
   361 ;; Registers used:
   362 ;;		wreg, status,2, status,0, pcl, pclath, pclatu, tosl, cstack
   363 ;; Tracked objects:
   364 ;;		On entry : 0/0
   365 ;;		On exit  : 0/0
   366 ;;		Unchanged: 0/0
   367 ;; Data sizes:     COMRAM   BANK5   BANK6   BANK7   BANK8   BANK9  BANK10  BANK11  BANK12  BANK13  BANK14  BANK15  BANK1
      +6  BANK17  BANK18  BANK19  BANK20  BANK21
   368 ;;      Params:         0       0       0       0       0       0       0       0       0       0       0       0       
      +0       0       0       0       0       0
   369 ;;      Locals:         0       0       0       0       0       0       0       0       0       0       0       0       
      +0       0       0       0       0       0
   370 ;;      Temps:          2       0       0       0       0       0       0       0       0       0       0       0       
      +0       0       0       0       0       0
   371 ;;      Totals:         2       0       0       0       0       0       0       0       0       0       0       0       
      +0       0       0       0       0       0
   372 ;;Total ram usage:        2 bytes
   373 ;; Hardware stack levels required when called: 8
   374 ;; This function calls:
   375 ;;		_CMP1_Initialize
   376 ;;		_I2C1_init
   377 ;;		_UART1_Initialize
   378 ;;		_UART1_Read
   379 ;;		_interrupt_init
   380 ;;		_io_VDD_3V3_CE_write
   381 ;;		_io_VDD_5V_EN_write
   382 ;;		_io_VDD_PIC_EN_write
   383 ;;		_io_init
   384 ;;		_system_init
   385 ;; This function is called by:
   386 ;;		Startup code after reset
   387 ;; This function uses a non-reentrant model
   388 ;;
   389                           
   390                           	psect	text0
   391  000310                     __ptext0:
   392                           	callstack 0
   393  000310                     _main:
   394                           	callstack 120
   395  000310                     
   396                           ;main.c: 12:     interrupt_init();
   397  000310  ECF3  F001         	call	_interrupt_init	;wreg free
   398                           
   399                           ;main.c: 13:     system_init();
   400  000314  EC15  F002         	call	_system_init	;wreg free
   401  000318                     
   402                           ;main.c: 14:     io_init();
   403  000318  ECD9  F002         	call	_io_init	;wreg free
   404  00031C                     
   405                           ;main.c: 15:     I2C1_init();
   406  00031C  ECBA  F002         	call	_I2C1_init	;wreg free
   407  000320                     
   408                           ;main.c: 16:     UART1_Initialize();
   409  000320  ECBF  F001         	call	_UART1_Initialize	;wreg free
   410  000324                     
   411                           ;main.c: 17:     CMP1_Initialize();
   412  000324  ECA6  F002         	call	_CMP1_Initialize	;wreg free
   413  000328                     
   414                           ;main.c: 19:     (INTCON0bits.GIEH = 1);
   415  000328  8ED6               	bsf	214,7,c	;volatile
   416  00032A                     
   417                           ;main.c: 20:     (INTCON0bits.GIEL = 1);
   418  00032A  8CD6               	bsf	214,6,c	;volatile
   419  00032C                     
   420                           ;main.c: 22:     io_VDD_PIC_EN_write(1);
   421  00032C  0E01               	movlw	1
   422  00032E  EC54  F003         	call	_io_VDD_PIC_EN_write
   423  000332                     
   424                           ;main.c: 23:     io_VDD_5V_EN_write(1);
   425  000332  0E01               	movlw	1
   426  000334  EC5B  F003         	call	_io_VDD_5V_EN_write
   427  000338                     
   428                           ;main.c: 24:     io_VDD_3V3_CE_write(1);
   429  000338  0E01               	movlw	1
   430  00033A  EC62  F003         	call	_io_VDD_3V3_CE_write
   431  00033E                     l1815:
   432  00033E  ECFA  F000         	call	_UART1_Read	;wreg free
   433  000342                     
   434                           ;main.c: 30:         LATBbits.LATB4=1;
   435  000342  88BF               	bsf	191,4,c	;volatile
   436  000344                     
   437                           ;main.c: 31:         _delay((unsigned long)((100)*(64000000/4000.0)));
   438  000344  0E09               	movlw	9
   439  000346  6E22               	movwf	(??_main+1)^(0+1280),c
   440  000348  0E1E               	movlw	30
   441  00034A  6E21               	movwf	??_main^(0+1280),c
   442  00034C  0EE4               	movlw	228
   443  00034E                     u427:
   444  00034E  2EE8               	decfsz	wreg,f,c
   445  000350  D7FE               	bra	u427
   446  000352  2E21               	decfsz	??_main^(0+1280),f,c
   447  000354  D7FC               	bra	u427
   448  000356  2E22               	decfsz	(??_main+1)^(0+1280),f,c
   449  000358  D7FA               	bra	u427
   450  00035A  D000               	nop2	
   451  00035C                     
   452                           ;main.c: 32:         LATBbits.LATB4=0;
   453  00035C  98BF               	bcf	191,4,c	;volatile
   454  00035E                     
   455                           ;main.c: 33:         _delay((unsigned long)((100)*(64000000/4000.0)));
   456  00035E  0E09               	movlw	9
   457  000360  6E22               	movwf	(??_main+1)^(0+1280),c
   458  000362  0E1E               	movlw	30
   459  000364  6E21               	movwf	??_main^(0+1280),c
   460  000366  0EE4               	movlw	228
   461  000368                     u437:
   462  000368  2EE8               	decfsz	wreg,f,c
   463  00036A  D7FE               	bra	u437
   464  00036C  2E21               	decfsz	??_main^(0+1280),f,c
   465  00036E  D7FC               	bra	u437
   466  000370  2E22               	decfsz	(??_main+1)^(0+1280),f,c
   467  000372  D7FA               	bra	u437
   468  000374  D000               	nop2	
   469  000376  EF9F  F001         	goto	l1815
   470  00037A  EF5D  F000         	goto	start
   471  00037E                     __end_of_main:
   472                           	callstack 0
   473                           
   474 ;; *************** function _system_init *****************
   475 ;; Defined at:
   476 ;;		line 55 in file "config.c"
   477 ;; Parameters:    Size  Location     Type
   478 ;;		None
   479 ;; Auto vars:     Size  Location     Type
   480 ;;		None
   481 ;; Return value:  Size  Location     Type
   482 ;;                  1    wreg      void 
   483 ;; Registers used:
   484 ;;		wreg, status,2
   485 ;; Tracked objects:
   486 ;;		On entry : 0/0
   487 ;;		On exit  : 0/0
   488 ;;		Unchanged: 0/0
   489 ;; Data sizes:     COMRAM   BANK5   BANK6   BANK7   BANK8   BANK9  BANK10  BANK11  BANK12  BANK13  BANK14  BANK15  BANK1
      +6  BANK17  BANK18  BANK19  BANK20  BANK21
   490 ;;      Params:         0       0       0       0       0       0       0       0       0       0       0       0       
      +0       0       0       0       0       0
   491 ;;      Locals:         0       0       0       0       0       0       0       0       0       0       0       0       
      +0       0       0       0       0       0
   492 ;;      Temps:          0       0       0       0       0       0       0       0       0       0       0       0       
      +0       0       0       0       0       0
   493 ;;      Totals:         0       0       0       0       0       0       0       0       0       0       0       0       
      +0       0       0       0       0       0
   494 ;;Total ram usage:        0 bytes
   495 ;; Hardware stack levels used: 1
   496 ;; Hardware stack levels required when called: 5
   497 ;; This function calls:
   498 ;;		Nothing
   499 ;; This function is called by:
   500 ;;		_main
   501 ;; This function uses a non-reentrant model
   502 ;;
   503                           
   504                           	psect	text1
   505  00042A                     __ptext1:
   506                           	callstack 0
   507  00042A                     _system_init:
   508                           	callstack 122
   509  00042A                     
   510                           ;config.c: 59:     PMD0 = 0x00;
   511  00042A  0E00               	movlw	0
   512  00042C  0100               	movlb	0	; () banked
   513  00042E  6F63               	movwf	99,b	;volatile
   514                           
   515                           ;config.c: 60:     PMD1 = 0x00;
   516  000430  0E00               	movlw	0
   517  000432  6F64               	movwf	100,b	;volatile
   518                           
   519                           ;config.c: 61:     PMD2 = 0x00;
   520  000434  0E00               	movlw	0
   521  000436  6F65               	movwf	101,b	;volatile
   522                           
   523                           ;config.c: 62:     PMD3 = 0x00;
   524  000438  0E00               	movlw	0
   525  00043A  6F66               	movwf	102,b	;volatile
   526                           
   527                           ;config.c: 63:     PMD4 = 0x00;
   528  00043C  0E00               	movlw	0
   529  00043E  6F67               	movwf	103,b	;volatile
   530                           
   531                           ;config.c: 64:     PMD5 = 0x00;
   532  000440  0E00               	movlw	0
   533  000442  6F68               	movwf	104,b	;volatile
   534                           
   535                           ;config.c: 68:     OSCCON1 = 0x60;
   536  000444  0E60               	movlw	96
   537  000446  6FAD               	movwf	173,b	;volatile
   538                           
   539                           ;config.c: 70:     OSCCON3 = 0x00;
   540  000448  0E00               	movlw	0
   541  00044A  6FAF               	movwf	175,b	;volatile
   542                           
   543                           ;config.c: 73:     OSCEN = 0x01;
   544  00044C  0E01               	movlw	1
   545  00044E  6FB3               	movwf	179,b	;volatile
   546                           
   547                           ;config.c: 75:     OSCFRQ = 0x08;
   548  000450  0E08               	movlw	8
   549  000452  6FB1               	movwf	177,b	;volatile
   550                           
   551                           ;config.c: 77:     OSCTUNE = 0x00;
   552  000454  0E00               	movlw	0
   553  000456  6FB0               	movwf	176,b	;volatile
   554                           
   555                           ;config.c: 79:     ACTCON = 0x00;
   556  000458  0E00               	movlw	0
   557  00045A  6FAC               	movwf	172,b	;volatile
   558  00045C                     
   559                           ; BSR set to: 0
   560  00045C  0012               	return		;funcret
   561  00045E                     __end_of_system_init:
   562                           	callstack 0
   563                           
   564 ;; *************** function _io_init *****************
   565 ;; Defined at:
   566 ;;		line 3 in file "io.c"
   567 ;; Parameters:    Size  Location     Type
   568 ;;		None
   569 ;; Auto vars:     Size  Location     Type
   570 ;;		None
   571 ;; Return value:  Size  Location     Type
   572 ;;                  1    wreg      void 
   573 ;; Registers used:
   574 ;;		None
   575 ;; Tracked objects:
   576 ;;		On entry : 0/0
   577 ;;		On exit  : 0/0
   578 ;;		Unchanged: 0/0
   579 ;; Data sizes:     COMRAM   BANK5   BANK6   BANK7   BANK8   BANK9  BANK10  BANK11  BANK12  BANK13  BANK14  BANK15  BANK1
      +6  BANK17  BANK18  BANK19  BANK20  BANK21
   580 ;;      Params:         0       0       0       0       0       0       0       0       0       0       0       0       
      +0       0       0       0       0       0
   581 ;;      Locals:         0       0       0       0       0       0       0       0       0       0       0       0       
      +0       0       0       0       0       0
   582 ;;      Temps:          0       0       0       0       0       0       0       0       0       0       0       0       
      +0       0       0       0       0       0
   583 ;;      Totals:         0       0       0       0       0       0       0       0       0       0       0       0       
      +0       0       0       0       0       0
   584 ;;Total ram usage:        0 bytes
   585 ;; Hardware stack levels used: 1
   586 ;; Hardware stack levels required when called: 5
   587 ;; This function calls:
   588 ;;		Nothing
   589 ;; This function is called by:
   590 ;;		_main
   591 ;; This function uses a non-reentrant model
   592 ;;
   593                           
   594                           	psect	text2
   595  0005B2                     __ptext2:
   596                           	callstack 0
   597  0005B2                     _io_init:
   598                           	callstack 122
   599  0005B2                     
   600                           ;io.c: 6:     TRISAbits.TRISA4 = 1;
   601  0005B2  88C6               	bsf	198,4,c	;volatile
   602                           
   603                           ;io.c: 7:     ANSELAbits.ANSELA4 = 0;
   604  0005B4  0104               	movlb	4	; () banked
   605  0005B6  9900               	bcf	0,4,b	;volatile
   606                           
   607                           ;io.c: 10:     TRISAbits.TRISA5 = 1;
   608  0005B8  8AC6               	bsf	198,5,c	;volatile
   609                           
   610                           ;io.c: 11:     ANSELAbits.ANSELA5 = 0;
   611  0005BA  9B00               	bcf	0,5,b	;volatile
   612                           
   613                           ;io.c: 14:     TRISBbits.TRISB4 = 0;
   614  0005BC  98C7               	bcf	199,4,c	;volatile
   615                           
   616                           ;io.c: 17:     TRISBbits.TRISB5 = 0;
   617  0005BE  9AC7               	bcf	199,5,c	;volatile
   618                           
   619                           ;io.c: 20:     TRISBbits.TRISB6 = 0;
   620  0005C0  9CC7               	bcf	199,6,c	;volatile
   621                           
   622                           ;io.c: 23:     TRISBbits.TRISB7 = 1;
   623  0005C2  8EC7               	bsf	199,7,c	;volatile
   624                           
   625                           ;io.c: 24:     ANSELBbits.ANSELB7 = 0;
   626  0005C4  9F08               	bcf	8,7,b	;volatile
   627                           
   628                           ;io.c: 27:     TRISCbits.TRISC2 = 0;
   629  0005C6  94C8               	bcf	200,2,c	;volatile
   630                           
   631                           ;io.c: 30:     TRISCbits.TRISC7 = 0;
   632  0005C8  9EC8               	bcf	200,7,c	;volatile
   633  0005CA                     
   634                           ; BSR set to: 4
   635  0005CA  0012               	return		;funcret
   636  0005CC                     __end_of_io_init:
   637                           	callstack 0
   638                           
   639 ;; *************** function _io_VDD_PIC_EN_write *****************
   640 ;; Defined at:
   641 ;;		line 48 in file "io.c"
   642 ;; Parameters:    Size  Location     Type
   643 ;;  state           1    wreg     unsigned char 
   644 ;; Auto vars:     Size  Location     Type
   645 ;;  state           1    5[COMRAM] unsigned char 
   646 ;; Return value:  Size  Location     Type
   647 ;;                  1    wreg      void 
   648 ;; Registers used:
   649 ;;		wreg
   650 ;; Tracked objects:
   651 ;;		On entry : 0/0
   652 ;;		On exit  : 0/0
   653 ;;		Unchanged: 0/0
   654 ;; Data sizes:     COMRAM   BANK5   BANK6   BANK7   BANK8   BANK9  BANK10  BANK11  BANK12  BANK13  BANK14  BANK15  BANK1
      +6  BANK17  BANK18  BANK19  BANK20  BANK21
   655 ;;      Params:         0       0       0       0       0       0       0       0       0       0       0       0       
      +0       0       0       0       0       0
   656 ;;      Locals:         1       0       0       0       0       0       0       0       0       0       0       0       
      +0       0       0       0       0       0
   657 ;;      Temps:          0       0       0       0       0       0       0       0       0       0       0       0       
      +0       0       0       0       0       0
   658 ;;      Totals:         1       0       0       0       0       0       0       0       0       0       0       0       
      +0       0       0       0       0       0
   659 ;;Total ram usage:        1 bytes
   660 ;; Hardware stack levels used: 1
   661 ;; Hardware stack levels required when called: 5
   662 ;; This function calls:
   663 ;;		Nothing
   664 ;; This function is called by:
   665 ;;		_main
   666 ;; This function uses a non-reentrant model
   667 ;;
   668                           
   669                           	psect	text3
   670  0006A8                     __ptext3:
   671                           	callstack 0
   672  0006A8                     _io_VDD_PIC_EN_write:
   673                           	callstack 122
   674                           
   675                           ; BSR set to: 4
   676                           ;incstack = 0
   677                           ;io_VDD_PIC_EN_write@state stored from wreg
   678  0006A8  6E1F               	movwf	io_VDD_PIC_EN_write@state^(0+1280),c
   679  0006AA                     
   680                           ;io.c: 48: void io_VDD_PIC_EN_write(uint8_t state);io.c: 49: {;io.c: 50:     LATBbits.LA
      +                          TB5 = state;
   681  0006AA  B01F               	btfsc	io_VDD_PIC_EN_write@state^(0+1280),0,c
   682  0006AC  D002               	bra	u165
   683  0006AE  9ABF               	bcf	191,5,c	;volatile
   684  0006B0  D001               	bra	u166
   685  0006B2                     u165:
   686  0006B2  8ABF               	bsf	191,5,c	;volatile
   687  0006B4                     u166:
   688  0006B4  0012               	return		;funcret
   689  0006B6                     __end_of_io_VDD_PIC_EN_write:
   690                           	callstack 0
   691                           
   692 ;; *************** function _io_VDD_5V_EN_write *****************
   693 ;; Defined at:
   694 ;;		line 53 in file "io.c"
   695 ;; Parameters:    Size  Location     Type
   696 ;;  state           1    wreg     unsigned char 
   697 ;; Auto vars:     Size  Location     Type
   698 ;;  state           1    5[COMRAM] unsigned char 
   699 ;; Return value:  Size  Location     Type
   700 ;;                  1    wreg      void 
   701 ;; Registers used:
   702 ;;		wreg
   703 ;; Tracked objects:
   704 ;;		On entry : 0/0
   705 ;;		On exit  : 0/0
   706 ;;		Unchanged: 0/0
   707 ;; Data sizes:     COMRAM   BANK5   BANK6   BANK7   BANK8   BANK9  BANK10  BANK11  BANK12  BANK13  BANK14  BANK15  BANK1
      +6  BANK17  BANK18  BANK19  BANK20  BANK21
   708 ;;      Params:         0       0       0       0       0       0       0       0       0       0       0       0       
      +0       0       0       0       0       0
   709 ;;      Locals:         1       0       0       0       0       0       0       0       0       0       0       0       
      +0       0       0       0       0       0
   710 ;;      Temps:          0       0       0       0       0       0       0       0       0       0       0       0       
      +0       0       0       0       0       0
   711 ;;      Totals:         1       0       0       0       0       0       0       0       0       0       0       0       
      +0       0       0       0       0       0
   712 ;;Total ram usage:        1 bytes
   713 ;; Hardware stack levels used: 1
   714 ;; Hardware stack levels required when called: 5
   715 ;; This function calls:
   716 ;;		Nothing
   717 ;; This function is called by:
   718 ;;		_main
   719 ;; This function uses a non-reentrant model
   720 ;;
   721                           
   722                           	psect	text4
   723  0006B6                     __ptext4:
   724                           	callstack 0
   725  0006B6                     _io_VDD_5V_EN_write:
   726                           	callstack 122
   727                           
   728                           ;incstack = 0
   729                           ;io_VDD_5V_EN_write@state stored from wreg
   730  0006B6  6E1F               	movwf	io_VDD_5V_EN_write@state^(0+1280),c
   731  0006B8                     
   732                           ;io.c: 53: void io_VDD_5V_EN_write(uint8_t state);io.c: 54: {;io.c: 55:     LATBbits.LAT
      +                          B6 = state;
   733  0006B8  B01F               	btfsc	io_VDD_5V_EN_write@state^(0+1280),0,c
   734  0006BA  D002               	bra	u175
   735  0006BC  9CBF               	bcf	191,6,c	;volatile
   736  0006BE  D001               	bra	u176
   737  0006C0                     u175:
   738  0006C0  8CBF               	bsf	191,6,c	;volatile
   739  0006C2                     u176:
   740  0006C2  0012               	return		;funcret
   741  0006C4                     __end_of_io_VDD_5V_EN_write:
   742                           	callstack 0
   743                           
   744 ;; *************** function _io_VDD_3V3_CE_write *****************
   745 ;; Defined at:
   746 ;;		line 68 in file "io.c"
   747 ;; Parameters:    Size  Location     Type
   748 ;;  state           1    wreg     unsigned char 
   749 ;; Auto vars:     Size  Location     Type
   750 ;;  state           1    5[COMRAM] unsigned char 
   751 ;; Return value:  Size  Location     Type
   752 ;;                  1    wreg      void 
   753 ;; Registers used:
   754 ;;		wreg
   755 ;; Tracked objects:
   756 ;;		On entry : 0/0
   757 ;;		On exit  : 0/0
   758 ;;		Unchanged: 0/0
   759 ;; Data sizes:     COMRAM   BANK5   BANK6   BANK7   BANK8   BANK9  BANK10  BANK11  BANK12  BANK13  BANK14  BANK15  BANK1
      +6  BANK17  BANK18  BANK19  BANK20  BANK21
   760 ;;      Params:         0       0       0       0       0       0       0       0       0       0       0       0       
      +0       0       0       0       0       0
   761 ;;      Locals:         1       0       0       0       0       0       0       0       0       0       0       0       
      +0       0       0       0       0       0
   762 ;;      Temps:          0       0       0       0       0       0       0       0       0       0       0       0       
      +0       0       0       0       0       0
   763 ;;      Totals:         1       0       0       0       0       0       0       0       0       0       0       0       
      +0       0       0       0       0       0
   764 ;;Total ram usage:        1 bytes
   765 ;; Hardware stack levels used: 1
   766 ;; Hardware stack levels required when called: 5
   767 ;; This function calls:
   768 ;;		Nothing
   769 ;; This function is called by:
   770 ;;		_main
   771 ;; This function uses a non-reentrant model
   772 ;;
   773                           
   774                           	psect	text5
   775  0006C4                     __ptext5:
   776                           	callstack 0
   777  0006C4                     _io_VDD_3V3_CE_write:
   778                           	callstack 122
   779                           
   780                           ;incstack = 0
   781                           ;io_VDD_3V3_CE_write@state stored from wreg
   782  0006C4  6E1F               	movwf	io_VDD_3V3_CE_write@state^(0+1280),c
   783  0006C6                     
   784                           ;io.c: 68: void io_VDD_3V3_CE_write(uint8_t state);io.c: 69: {;io.c: 70:     LATCbits.LA
      +                          TC7 = state;
   785  0006C6  B01F               	btfsc	io_VDD_3V3_CE_write@state^(0+1280),0,c
   786  0006C8  D002               	bra	u185
   787  0006CA  9EC0               	bcf	192,7,c	;volatile
   788  0006CC  D001               	bra	u186
   789  0006CE                     u185:
   790  0006CE  8EC0               	bsf	192,7,c	;volatile
   791  0006D0                     u186:
   792  0006D0  0012               	return		;funcret
   793  0006D2                     __end_of_io_VDD_3V3_CE_write:
   794                           	callstack 0
   795                           
   796 ;; *************** function _interrupt_init *****************
   797 ;; Defined at:
   798 ;;		line 51 in file "interrupt.c"
   799 ;; Parameters:    Size  Location     Type
   800 ;;		None
   801 ;; Auto vars:     Size  Location     Type
   802 ;;  state           1    5[COMRAM] _Bool 
   803 ;; Return value:  Size  Location     Type
   804 ;;                  1    wreg      void 
   805 ;; Registers used:
   806 ;;		wreg, status,2
   807 ;; Tracked objects:
   808 ;;		On entry : 0/0
   809 ;;		On exit  : 0/0
   810 ;;		Unchanged: 0/0
   811 ;; Data sizes:     COMRAM   BANK5   BANK6   BANK7   BANK8   BANK9  BANK10  BANK11  BANK12  BANK13  BANK14  BANK15  BANK1
      +6  BANK17  BANK18  BANK19  BANK20  BANK21
   812 ;;      Params:         0       0       0       0       0       0       0       0       0       0       0       0       
      +0       0       0       0       0       0
   813 ;;      Locals:         1       0       0       0       0       0       0       0       0       0       0       0       
      +0       0       0       0       0       0
   814 ;;      Temps:          0       0       0       0       0       0       0       0       0       0       0       0       
      +0       0       0       0       0       0
   815 ;;      Totals:         1       0       0       0       0       0       0       0       0       0       0       0       
      +0       0       0       0       0       0
   816 ;;Total ram usage:        1 bytes
   817 ;; Hardware stack levels used: 1
   818 ;; Hardware stack levels required when called: 5
   819 ;; This function calls:
   820 ;;		Nothing
   821 ;; This function is called by:
   822 ;;		_main
   823 ;; This function uses a non-reentrant model
   824 ;;
   825                           
   826                           	psect	text6
   827  0003E6                     __ptext6:
   828                           	callstack 0
   829  0003E6                     _interrupt_init:
   830                           	callstack 122
   831  0003E6                     
   832                           ;interrupt.c: 53:     INTCON0bits.IPEN = 1;
   833  0003E6  8AD6               	bsf	214,5,c	;volatile
   834  0003E8                     
   835                           ;interrupt.c: 55:     _Bool state = (unsigned char)GIE;
   836  0003E8  0E00               	movlw	0
   837  0003EA  BED6               	btfsc	1238,7,c	;volatile
   838  0003EC  0E01               	movlw	1
   839  0003EE  6E1F               	movwf	interrupt_init@state^(0+1280),c
   840  0003F0                     
   841                           ;interrupt.c: 56:     GIE = 0;
   842  0003F0  9ED6               	bcf	1238,7,c	;volatile
   843                           
   844                           ;interrupt.c: 57:     IVTLOCK = 0x55;
   845  0003F2  0E55               	movlw	85
   846  0003F4  0104               	movlb	4	; () banked
   847  0003F6  6F59               	movwf	89,b	;volatile
   848                           
   849                           ;interrupt.c: 58:     IVTLOCK = 0xAA;
   850  0003F8  0EAA               	movlw	170
   851  0003FA  6F59               	movwf	89,b	;volatile
   852  0003FC                     
   853                           ; BSR set to: 4
   854                           ;interrupt.c: 59:     IVTLOCKbits.IVTLOCKED = 0x00;
   855  0003FC  9159               	bcf	89,0,b	;volatile
   856                           
   857                           ;interrupt.c: 61:     IVTBASEU = 0;
   858  0003FE  0E00               	movlw	0
   859  000400  6F5F               	movwf	95,b	;volatile
   860                           
   861                           ;interrupt.c: 62:     IVTBASEH = 0;
   862  000402  0E00               	movlw	0
   863  000404  6F5E               	movwf	94,b	;volatile
   864                           
   865                           ;interrupt.c: 63:     IVTBASEL = 8;
   866  000406  0E08               	movlw	8
   867  000408  6F5D               	movwf	93,b	;volatile
   868                           
   869                           ;interrupt.c: 65:     IVTLOCK = 0x55;
   870  00040A  0E55               	movlw	85
   871  00040C  6F59               	movwf	89,b	;volatile
   872                           
   873                           ;interrupt.c: 66:     IVTLOCK = 0xAA;
   874  00040E  0EAA               	movlw	170
   875  000410  6F59               	movwf	89,b	;volatile
   876  000412                     
   877                           ; BSR set to: 4
   878                           ;interrupt.c: 67:     IVTLOCKbits.IVTLOCKED = 0x01;
   879  000412  8159               	bsf	89,0,b	;volatile
   880  000414                     
   881                           ; BSR set to: 4
   882                           ;interrupt.c: 69:     GIE = state;
   883  000414  B01F               	btfsc	interrupt_init@state^(0+1280),0,c
   884  000416  D002               	bra	u155
   885  000418  9ED6               	bcf	1238,7,c	;volatile
   886  00041A  D001               	bra	u156
   887  00041C                     u155:
   888  00041C  8ED6               	bsf	1238,7,c	;volatile
   889  00041E                     u156:
   890  00041E                     
   891                           ;interrupt.c: 72:     IPR7bits.I2C1EIP = 1;
   892  00041E  0103               	movlb	3	; () banked
   893  000420  876E               	bsf	110,3,b	;volatile
   894  000422                     
   895                           ; BSR set to: 3
   896                           ;interrupt.c: 73:     IPR7bits.I2C1RXIP = 1;
   897  000422  816E               	bsf	110,0,b	;volatile
   898  000424                     
   899                           ; BSR set to: 3
   900                           ;interrupt.c: 74:     IPR7bits.I2C1IP = 1;
   901  000424  856E               	bsf	110,2,b	;volatile
   902  000426                     
   903                           ; BSR set to: 3
   904                           ;interrupt.c: 75:     IPR7bits.I2C1TXIP = 1;
   905  000426  836E               	bsf	110,1,b	;volatile
   906  000428                     
   907                           ; BSR set to: 3
   908  000428  0012               	return		;funcret
   909  00042A                     __end_of_interrupt_init:
   910                           	callstack 0
   911                           
   912 ;; *************** function _UART1_Read *****************
   913 ;; Defined at:
   914 ;;		line 145 in file "uart1.c"
   915 ;; Parameters:    Size  Location     Type
   916 ;;		None
   917 ;; Auto vars:     Size  Location     Type
   918 ;;		None
   919 ;; Return value:  Size  Location     Type
   920 ;;                  1    wreg      unsigned char 
   921 ;; Registers used:
   922 ;;		wreg, status,2, pcl, pclath, pclatu, tosl, cstack
   923 ;; Tracked objects:
   924 ;;		On entry : 0/0
   925 ;;		On exit  : 0/0
   926 ;;		Unchanged: 0/0
   927 ;; Data sizes:     COMRAM   BANK5   BANK6   BANK7   BANK8   BANK9  BANK10  BANK11  BANK12  BANK13  BANK14  BANK15  BANK1
      +6  BANK17  BANK18  BANK19  BANK20  BANK21
   928 ;;      Params:         0       0       0       0       0       0       0       0       0       0       0       0       
      +0       0       0       0       0       0
   929 ;;      Locals:         0       0       0       0       0       0       0       0       0       0       0       0       
      +0       0       0       0       0       0
   930 ;;      Temps:          0       0       0       0       0       0       0       0       0       0       0       0       
      +0       0       0       0       0       0
   931 ;;      Totals:         0       0       0       0       0       0       0       0       0       0       0       0       
      +0       0       0       0       0       0
   932 ;;Total ram usage:        0 bytes
   933 ;; Hardware stack levels used: 1
   934 ;; Hardware stack levels required when called: 6
   935 ;; This function calls:
   936 ;;		Absolute function
   937 ;;		_UART1_DefaultErrorHandler
   938 ;;		_UART1_DefaultFramingErrorHandler
   939 ;;		_UART1_DefaultOverrunErrorHandler
   940 ;; This function is called by:
   941 ;;		_main
   942 ;; This function uses a non-reentrant model
   943 ;;
   944                           
   945                           	psect	text7
   946  0001F4                     __ptext7:
   947                           	callstack 0
   948  0001F4                     _UART1_Read:
   949                           	callstack 121
   950  0001F4                     l569:
   951                           
   952                           ;uart1.c: 147:     while(!PIR4bits.U1RXIF)
   953  0001F4  A0B7               	btfss	183,0,c	;volatile
   954  0001F6  EFFF  F000         	goto	u191
   955  0001FA  EF01  F001         	goto	u190
   956  0001FE                     u191:
   957  0001FE  EFFA  F000         	goto	l569
   958  000202                     u190:
   959  000202                     
   960                           ;uart1.c: 151:     uart1RxLastError.status = 0;
   961  000202  0E00               	movlw	0
   962  000204  6E13               	movwf	_uart1RxLastError^(0+1280),c	;volatile
   963  000206                     
   964                           ;uart1.c: 153:     if(U1ERRIRbits.FERIF){
   965  000206  0102               	movlb	2	; () banked
   966  000208  A7B2               	btfss	178,3,b	;volatile
   967  00020A  EF09  F001         	goto	u201
   968  00020E  EF0B  F001         	goto	u200
   969  000212                     u201:
   970  000212  EF19  F001         	goto	l1501
   971  000216                     u200:
   972  000216                     
   973                           ; BSR set to: 2
   974                           ;uart1.c: 154:         uart1RxLastError.ferr = 1;
   975  000216  8213               	bsf	_uart1RxLastError^(0+1280),1,c	;volatile
   976  000218                     
   977                           ; BSR set to: 2
   978                           ;uart1.c: 155:         UART1_FramingErrorHandler();
   979  000218  D802               	call	u218
   980  00021A  EF19  F001         	goto	u219
   981  00021E                     u218:
   982  00021E  0005               	push	
   983  000220  6EFA               	movwf	pclath,c
   984  000222  5005               	movf	_UART1_FramingErrorHandler^(0+1280),w,c
   985  000224  6EFD               	movwf	tosl,c
   986  000226  5006               	movf	(_UART1_FramingErrorHandler+1)^(0+1280),w,c
   987  000228  6EFE               	movwf	tosh,c
   988  00022A  50F8               	movf	tblptru,w,c
   989  00022C  6EFF               	movwf	tosu,c
   990  00022E  50FA               	movf	pclath,w,c
   991  000230  0012               	return		;indir
   992  000232                     u219:
   993  000232                     l1501:
   994                           
   995                           ;uart1.c: 158:     if(U1ERRIRbits.RXFOIF){
   996  000232  0102               	movlb	2	; () banked
   997  000234  A3B2               	btfss	178,1,b	;volatile
   998  000236  EF1F  F001         	goto	u221
   999  00023A  EF21  F001         	goto	u220
  1000  00023E                     u221:
  1001  00023E  EF2F  F001         	goto	l1507
  1002  000242                     u220:
  1003  000242                     
  1004                           ; BSR set to: 2
  1005                           ;uart1.c: 159:         uart1RxLastError.oerr = 1;
  1006  000242  8413               	bsf	_uart1RxLastError^(0+1280),2,c	;volatile
  1007  000244                     
  1008                           ; BSR set to: 2
  1009                           ;uart1.c: 160:         UART1_OverrunErrorHandler();
  1010  000244  D802               	call	u238
  1011  000246  EF2F  F001         	goto	u239
  1012  00024A                     u238:
  1013  00024A  0005               	push	
  1014  00024C  6EFA               	movwf	pclath,c
  1015  00024E  5003               	movf	_UART1_OverrunErrorHandler^(0+1280),w,c
  1016  000250  6EFD               	movwf	tosl,c
  1017  000252  5004               	movf	(_UART1_OverrunErrorHandler+1)^(0+1280),w,c
  1018  000254  6EFE               	movwf	tosh,c
  1019  000256  50F8               	movf	tblptru,w,c
  1020  000258  6EFF               	movwf	tosu,c
  1021  00025A  50FA               	movf	pclath,w,c
  1022  00025C  0012               	return		;indir
  1023  00025E                     u239:
  1024  00025E                     l1507:
  1025                           
  1026                           ;uart1.c: 163:     if(uart1RxLastError.status){
  1027  00025E  5013               	movf	_uart1RxLastError^(0+1280),w,c	;volatile
  1028  000260  B4D8               	btfsc	status,2,c
  1029  000262  EF35  F001         	goto	u241
  1030  000266  EF37  F001         	goto	u240
  1031  00026A                     u241:
  1032  00026A  EF44  F001         	goto	l1511
  1033  00026E                     u240:
  1034  00026E                     
  1035                           ;uart1.c: 164:         UART1_ErrorHandler();
  1036  00026E  D802               	call	u258
  1037  000270  EF44  F001         	goto	u259
  1038  000274                     u258:
  1039  000274  0005               	push	
  1040  000276  6EFA               	movwf	pclath,c
  1041  000278  5001               	movf	_UART1_ErrorHandler^(0+1280),w,c
  1042  00027A  6EFD               	movwf	tosl,c
  1043  00027C  5002               	movf	(_UART1_ErrorHandler+1)^(0+1280),w,c
  1044  00027E  6EFE               	movwf	tosh,c
  1045  000280  50F8               	movf	tblptru,w,c
  1046  000282  6EFF               	movwf	tosu,c
  1047  000284  50FA               	movf	pclath,w,c
  1048  000286  0012               	return		;indir
  1049  000288                     u259:
  1050  000288                     l1511:
  1051                           
  1052                           ;uart1.c: 167:     return U1RXB;
  1053  000288  0102               	movlb	2	; () banked
  1054  00028A  51A1               	movf	161,w,b	;volatile
  1055  00028C                     
  1056                           ; BSR set to: 2
  1057  00028C  0012               	return		;funcret
  1058  00028E                     __end_of_UART1_Read:
  1059                           	callstack 0
  1060                           
  1061 ;; *************** function _UART1_DefaultOverrunErrorHandler *****************
  1062 ;; Defined at:
  1063 ;;		line 185 in file "uart1.c"
  1064 ;; Parameters:    Size  Location     Type
  1065 ;;		None
  1066 ;; Auto vars:     Size  Location     Type
  1067 ;;		None
  1068 ;; Return value:  Size  Location     Type
  1069 ;;                  1    wreg      void 
  1070 ;; Registers used:
  1071 ;;		None
  1072 ;; Tracked objects:
  1073 ;;		On entry : 0/0
  1074 ;;		On exit  : 0/0
  1075 ;;		Unchanged: 0/0
  1076 ;; Data sizes:     COMRAM   BANK5   BANK6   BANK7   BANK8   BANK9  BANK10  BANK11  BANK12  BANK13  BANK14  BANK15  BANK1
      +6  BANK17  BANK18  BANK19  BANK20  BANK21
  1077 ;;      Params:         0       0       0       0       0       0       0       0       0       0       0       0       
      +0       0       0       0       0       0
  1078 ;;      Locals:         0       0       0       0       0       0       0       0       0       0       0       0       
      +0       0       0       0       0       0
  1079 ;;      Temps:          0       0       0       0       0       0       0       0       0       0       0       0       
      +0       0       0       0       0       0
  1080 ;;      Totals:         0       0       0       0       0       0       0       0       0       0       0       0       
      +0       0       0       0       0       0
  1081 ;;Total ram usage:        0 bytes
  1082 ;; Hardware stack levels used: 1
  1083 ;; Hardware stack levels required when called: 5
  1084 ;; This function calls:
  1085 ;;		Nothing
  1086 ;; This function is called by:
  1087 ;;		_UART1_Initialize
  1088 ;;		_UART1_Read
  1089 ;; This function uses a non-reentrant model
  1090 ;;
  1091                           
  1092                           	psect	text8
  1093  000760                     __ptext8:
  1094                           	callstack 0
  1095  000760                     _UART1_DefaultOverrunErrorHandler:
  1096                           	callstack 121
  1097  000760  0012               	return		;funcret
  1098  000762                     __end_of_UART1_DefaultOverrunErrorHandler:
  1099                           	callstack 0
  1100                           
  1101 ;; *************** function _UART1_DefaultFramingErrorHandler *****************
  1102 ;; Defined at:
  1103 ;;		line 183 in file "uart1.c"
  1104 ;; Parameters:    Size  Location     Type
  1105 ;;		None
  1106 ;; Auto vars:     Size  Location     Type
  1107 ;;		None
  1108 ;; Return value:  Size  Location     Type
  1109 ;;                  1    wreg      void 
  1110 ;; Registers used:
  1111 ;;		None
  1112 ;; Tracked objects:
  1113 ;;		On entry : 0/0
  1114 ;;		On exit  : 0/0
  1115 ;;		Unchanged: 0/0
  1116 ;; Data sizes:     COMRAM   BANK5   BANK6   BANK7   BANK8   BANK9  BANK10  BANK11  BANK12  BANK13  BANK14  BANK15  BANK1
      +6  BANK17  BANK18  BANK19  BANK20  BANK21
  1117 ;;      Params:         0       0       0       0       0       0       0       0       0       0       0       0       
      +0       0       0       0       0       0
  1118 ;;      Locals:         0       0       0       0       0       0       0       0       0       0       0       0       
      +0       0       0       0       0       0
  1119 ;;      Temps:          0       0       0       0       0       0       0       0       0       0       0       0       
      +0       0       0       0       0       0
  1120 ;;      Totals:         0       0       0       0       0       0       0       0       0       0       0       0       
      +0       0       0       0       0       0
  1121 ;;Total ram usage:        0 bytes
  1122 ;; Hardware stack levels used: 1
  1123 ;; Hardware stack levels required when called: 5
  1124 ;; This function calls:
  1125 ;;		Nothing
  1126 ;; This function is called by:
  1127 ;;		_UART1_Initialize
  1128 ;;		_UART1_Read
  1129 ;; This function uses a non-reentrant model
  1130 ;;
  1131                           
  1132                           	psect	text9
  1133  000762                     __ptext9:
  1134                           	callstack 0
  1135  000762                     _UART1_DefaultFramingErrorHandler:
  1136                           	callstack 121
  1137  000762  0012               	return		;funcret
  1138  000764                     __end_of_UART1_DefaultFramingErrorHandler:
  1139                           	callstack 0
  1140                           
  1141 ;; *************** function _UART1_DefaultErrorHandler *****************
  1142 ;; Defined at:
  1143 ;;		line 187 in file "uart1.c"
  1144 ;; Parameters:    Size  Location     Type
  1145 ;;		None
  1146 ;; Auto vars:     Size  Location     Type
  1147 ;;		None
  1148 ;; Return value:  Size  Location     Type
  1149 ;;                  1    wreg      void 
  1150 ;; Registers used:
  1151 ;;		None
  1152 ;; Tracked objects:
  1153 ;;		On entry : 0/0
  1154 ;;		On exit  : 0/0
  1155 ;;		Unchanged: 0/0
  1156 ;; Data sizes:     COMRAM   BANK5   BANK6   BANK7   BANK8   BANK9  BANK10  BANK11  BANK12  BANK13  BANK14  BANK15  BANK1
      +6  BANK17  BANK18  BANK19  BANK20  BANK21
  1157 ;;      Params:         0       0       0       0       0       0       0       0       0       0       0       0       
      +0       0       0       0       0       0
  1158 ;;      Locals:         0       0       0       0       0       0       0       0       0       0       0       0       
      +0       0       0       0       0       0
  1159 ;;      Temps:          0       0       0       0       0       0       0       0       0       0       0       0       
      +0       0       0       0       0       0
  1160 ;;      Totals:         0       0       0       0       0       0       0       0       0       0       0       0       
      +0       0       0       0       0       0
  1161 ;;Total ram usage:        0 bytes
  1162 ;; Hardware stack levels used: 1
  1163 ;; Hardware stack levels required when called: 5
  1164 ;; This function calls:
  1165 ;;		Nothing
  1166 ;; This function is called by:
  1167 ;;		_UART1_Initialize
  1168 ;;		_UART1_Read
  1169 ;; This function uses a non-reentrant model
  1170 ;;
  1171                           
  1172                           	psect	text10
  1173  000764                     __ptext10:
  1174                           	callstack 0
  1175  000764                     _UART1_DefaultErrorHandler:
  1176                           	callstack 121
  1177  000764  0012               	return		;funcret
  1178  000766                     __end_of_UART1_DefaultErrorHandler:
  1179                           	callstack 0
  1180                           
  1181 ;; *************** function _UART1_Initialize *****************
  1182 ;; Defined at:
  1183 ;;		line 66 in file "uart1.c"
  1184 ;; Parameters:    Size  Location     Type
  1185 ;;		None
  1186 ;; Auto vars:     Size  Location     Type
  1187 ;;		None
  1188 ;; Return value:  Size  Location     Type
  1189 ;;                  1    wreg      void 
  1190 ;; Registers used:
  1191 ;;		wreg, status,2, status,0, cstack
  1192 ;; Tracked objects:
  1193 ;;		On entry : 0/0
  1194 ;;		On exit  : 0/0
  1195 ;;		Unchanged: 0/0
  1196 ;; Data sizes:     COMRAM   BANK5   BANK6   BANK7   BANK8   BANK9  BANK10  BANK11  BANK12  BANK13  BANK14  BANK15  BANK1
      +6  BANK17  BANK18  BANK19  BANK20  BANK21
  1197 ;;      Params:         0       0       0       0       0       0       0       0       0       0       0       0       
      +0       0       0       0       0       0
  1198 ;;      Locals:         0       0       0       0       0       0       0       0       0       0       0       0       
      +0       0       0       0       0       0
  1199 ;;      Temps:          0       0       0       0       0       0       0       0       0       0       0       0       
      +0       0       0       0       0       0
  1200 ;;      Totals:         0       0       0       0       0       0       0       0       0       0       0       0       
      +0       0       0       0       0       0
  1201 ;;Total ram usage:        0 bytes
  1202 ;; Hardware stack levels used: 1
  1203 ;; Hardware stack levels required when called: 6
  1204 ;; This function calls:
  1205 ;;		_UART1_SetErrorHandler
  1206 ;;		_UART1_SetFramingErrorHandler
  1207 ;;		_UART1_SetOverrunErrorHandler
  1208 ;; This function is called by:
  1209 ;;		_main
  1210 ;; This function uses a non-reentrant model
  1211 ;;
  1212                           
  1213                           	psect	text11
  1214  00037E                     __ptext11:
  1215                           	callstack 0
  1216  00037E                     _UART1_Initialize:
  1217                           	callstack 121
  1218  00037E                     
  1219                           ;uart1.c: 73:     U1P1L = 0x00;
  1220  00037E  0E00               	movlw	0
  1221  000380  0102               	movlb	2	; () banked
  1222  000382  6FA5               	movwf	165,b	;volatile
  1223                           
  1224                           ;uart1.c: 76:     U1P1H = 0x00;
  1225  000384  0E00               	movlw	0
  1226  000386  6FA6               	movwf	166,b	;volatile
  1227                           
  1228                           ;uart1.c: 79:     U1P2L = 0x00;
  1229  000388  0E00               	movlw	0
  1230  00038A  6FA7               	movwf	167,b	;volatile
  1231                           
  1232                           ;uart1.c: 82:     U1P2H = 0x00;
  1233  00038C  0E00               	movlw	0
  1234  00038E  6FA8               	movwf	168,b	;volatile
  1235                           
  1236                           ;uart1.c: 85:     U1P3L = 0x00;
  1237  000390  0E00               	movlw	0
  1238  000392  6FA9               	movwf	169,b	;volatile
  1239                           
  1240                           ;uart1.c: 88:     U1P3H = 0x00;
  1241  000394  0E00               	movlw	0
  1242  000396  6FAA               	movwf	170,b	;volatile
  1243                           
  1244                           ;uart1.c: 91:     U1CON0 = 0xB8;
  1245  000398  0EB8               	movlw	184
  1246  00039A  6FAB               	movwf	171,b	;volatile
  1247                           
  1248                           ;uart1.c: 94:     U1CON1 = 0x80;
  1249  00039C  0E80               	movlw	128
  1250  00039E  6FAC               	movwf	172,b	;volatile
  1251                           
  1252                           ;uart1.c: 97:     U1CON2 = 0x00;
  1253  0003A0  0E00               	movlw	0
  1254  0003A2  6FAD               	movwf	173,b	;volatile
  1255                           
  1256                           ;uart1.c: 100:     U1BRGL = 0x07;
  1257  0003A4  0E07               	movlw	7
  1258  0003A6  6FAE               	movwf	174,b	;volatile
  1259                           
  1260                           ;uart1.c: 103:     U1BRGH = 0x00;
  1261  0003A8  0E00               	movlw	0
  1262  0003AA  6FAF               	movwf	175,b	;volatile
  1263                           
  1264                           ;uart1.c: 106:     U1FIFO = 0x00;
  1265  0003AC  0E00               	movlw	0
  1266  0003AE  6FB0               	movwf	176,b	;volatile
  1267                           
  1268                           ;uart1.c: 109:     U1UIR = 0x00;
  1269  0003B0  0E00               	movlw	0
  1270  0003B2  6FB1               	movwf	177,b	;volatile
  1271                           
  1272                           ;uart1.c: 112:     U1ERRIR = 0x00;
  1273  0003B4  0E00               	movlw	0
  1274  0003B6  6FB2               	movwf	178,b	;volatile
  1275                           
  1276                           ;uart1.c: 115:     U1ERRIE = 0x00;
  1277  0003B8  0E00               	movlw	0
  1278  0003BA  6FB3               	movwf	179,b	;volatile
  1279  0003BC                     
  1280                           ; BSR set to: 2
  1281                           ;uart1.c: 118:     UART1_SetFramingErrorHandler(UART1_DefaultFramingErrorHandler);
  1282  0003BC  0E62               	movlw	low _UART1_DefaultFramingErrorHandler
  1283  0003BE  6E1F               	movwf	UART1_SetFramingErrorHandler@interruptHandler^(0+1280),c
  1284  0003C0  0E07               	movlw	high _UART1_DefaultFramingErrorHandler
  1285  0003C2  6E20               	movwf	(UART1_SetFramingErrorHandler@interruptHandler+1)^(0+1280),c
  1286  0003C4  EC6E  F003         	call	_UART1_SetFramingErrorHandler	;wreg free
  1287  0003C8                     
  1288                           ;uart1.c: 119:     UART1_SetOverrunErrorHandler(UART1_DefaultOverrunErrorHandler);
  1289  0003C8  0E60               	movlw	low _UART1_DefaultOverrunErrorHandler
  1290  0003CA  6E1F               	movwf	UART1_SetOverrunErrorHandler@interruptHandler^(0+1280),c
  1291  0003CC  0E07               	movlw	high _UART1_DefaultOverrunErrorHandler
  1292  0003CE  6E20               	movwf	(UART1_SetOverrunErrorHandler@interruptHandler+1)^(0+1280),c
  1293  0003D0  EC69  F003         	call	_UART1_SetOverrunErrorHandler	;wreg free
  1294  0003D4                     
  1295                           ;uart1.c: 120:     UART1_SetErrorHandler(UART1_DefaultErrorHandler);
  1296  0003D4  0E64               	movlw	low _UART1_DefaultErrorHandler
  1297  0003D6  6E1F               	movwf	UART1_SetErrorHandler@interruptHandler^(0+1280),c
  1298  0003D8  0E07               	movlw	high _UART1_DefaultErrorHandler
  1299  0003DA  6E20               	movwf	(UART1_SetErrorHandler@interruptHandler+1)^(0+1280),c
  1300  0003DC  EC73  F003         	call	_UART1_SetErrorHandler	;wreg free
  1301  0003E0                     
  1302                           ;uart1.c: 122:     uart1RxLastError.status = 0;
  1303  0003E0  0E00               	movlw	0
  1304  0003E2  6E13               	movwf	_uart1RxLastError^(0+1280),c	;volatile
  1305  0003E4  0012               	return		;funcret
  1306  0003E6                     __end_of_UART1_Initialize:
  1307                           	callstack 0
  1308                           
  1309 ;; *************** function _UART1_SetOverrunErrorHandler *****************
  1310 ;; Defined at:
  1311 ;;		line 194 in file "uart1.c"
  1312 ;; Parameters:    Size  Location     Type
  1313 ;;  interruptHan    2    5[COMRAM] PTR FTN()void 
  1314 ;;		 -> UART1_DefaultOverrunErrorHandler(1), 
  1315 ;; Auto vars:     Size  Location     Type
  1316 ;;		None
  1317 ;; Return value:  Size  Location     Type
  1318 ;;                  1    wreg      void 
  1319 ;; Registers used:
  1320 ;;		wreg, status,2, status,0
  1321 ;; Tracked objects:
  1322 ;;		On entry : 0/0
  1323 ;;		On exit  : 0/0
  1324 ;;		Unchanged: 0/0
  1325 ;; Data sizes:     COMRAM   BANK5   BANK6   BANK7   BANK8   BANK9  BANK10  BANK11  BANK12  BANK13  BANK14  BANK15  BANK1
      +6  BANK17  BANK18  BANK19  BANK20  BANK21
  1326 ;;      Params:         2       0       0       0       0       0       0       0       0       0       0       0       
      +0       0       0       0       0       0
  1327 ;;      Locals:         0       0       0       0       0       0       0       0       0       0       0       0       
      +0       0       0       0       0       0
  1328 ;;      Temps:          0       0       0       0       0       0       0       0       0       0       0       0       
      +0       0       0       0       0       0
  1329 ;;      Totals:         2       0       0       0       0       0       0       0       0       0       0       0       
      +0       0       0       0       0       0
  1330 ;;Total ram usage:        2 bytes
  1331 ;; Hardware stack levels used: 1
  1332 ;; Hardware stack levels required when called: 5
  1333 ;; This function calls:
  1334 ;;		Nothing
  1335 ;; This function is called by:
  1336 ;;		_UART1_Initialize
  1337 ;; This function uses a non-reentrant model
  1338 ;;
  1339                           
  1340                           	psect	text12
  1341  0006D2                     __ptext12:
  1342                           	callstack 0
  1343  0006D2                     _UART1_SetOverrunErrorHandler:
  1344                           	callstack 121
  1345  0006D2                     
  1346                           ;uart1.c: 195:     UART1_OverrunErrorHandler = interruptHandler;
  1347  0006D2  C51F  F503         	movff	UART1_SetOverrunErrorHandler@interruptHandler,_UART1_OverrunErrorHandler
  1348  0006D6  C520  F504         	movff	UART1_SetOverrunErrorHandler@interruptHandler+1,_UART1_OverrunErrorHandler+1
  1349  0006DA  0012               	return		;funcret
  1350  0006DC                     __end_of_UART1_SetOverrunErrorHandler:
  1351                           	callstack 0
  1352                           
  1353 ;; *************** function _UART1_SetFramingErrorHandler *****************
  1354 ;; Defined at:
  1355 ;;		line 190 in file "uart1.c"
  1356 ;; Parameters:    Size  Location     Type
  1357 ;;  interruptHan    2    5[COMRAM] PTR FTN()void 
  1358 ;;		 -> UART1_DefaultFramingErrorHandler(1), 
  1359 ;; Auto vars:     Size  Location     Type
  1360 ;;		None
  1361 ;; Return value:  Size  Location     Type
  1362 ;;                  1    wreg      void 
  1363 ;; Registers used:
  1364 ;;		wreg, status,2, status,0
  1365 ;; Tracked objects:
  1366 ;;		On entry : 0/0
  1367 ;;		On exit  : 0/0
  1368 ;;		Unchanged: 0/0
  1369 ;; Data sizes:     COMRAM   BANK5   BANK6   BANK7   BANK8   BANK9  BANK10  BANK11  BANK12  BANK13  BANK14  BANK15  BANK1
      +6  BANK17  BANK18  BANK19  BANK20  BANK21
  1370 ;;      Params:         2       0       0       0       0       0       0       0       0       0       0       0       
      +0       0       0       0       0       0
  1371 ;;      Locals:         0       0       0       0       0       0       0       0       0       0       0       0       
      +0       0       0       0       0       0
  1372 ;;      Temps:          0       0       0       0       0       0       0       0       0       0       0       0       
      +0       0       0       0       0       0
  1373 ;;      Totals:         2       0       0       0       0       0       0       0       0       0       0       0       
      +0       0       0       0       0       0
  1374 ;;Total ram usage:        2 bytes
  1375 ;; Hardware stack levels used: 1
  1376 ;; Hardware stack levels required when called: 5
  1377 ;; This function calls:
  1378 ;;		Nothing
  1379 ;; This function is called by:
  1380 ;;		_UART1_Initialize
  1381 ;; This function uses a non-reentrant model
  1382 ;;
  1383                           
  1384                           	psect	text13
  1385  0006DC                     __ptext13:
  1386                           	callstack 0
  1387  0006DC                     _UART1_SetFramingErrorHandler:
  1388                           	callstack 121
  1389  0006DC                     
  1390                           ;uart1.c: 191:     UART1_FramingErrorHandler = interruptHandler;
  1391  0006DC  C51F  F505         	movff	UART1_SetFramingErrorHandler@interruptHandler,_UART1_FramingErrorHandler
  1392  0006E0  C520  F506         	movff	UART1_SetFramingErrorHandler@interruptHandler+1,_UART1_FramingErrorHandler+1
  1393  0006E4  0012               	return		;funcret
  1394  0006E6                     __end_of_UART1_SetFramingErrorHandler:
  1395                           	callstack 0
  1396                           
  1397 ;; *************** function _UART1_SetErrorHandler *****************
  1398 ;; Defined at:
  1399 ;;		line 198 in file "uart1.c"
  1400 ;; Parameters:    Size  Location     Type
  1401 ;;  interruptHan    2    5[COMRAM] PTR FTN()void 
  1402 ;;		 -> UART1_DefaultErrorHandler(1), 
  1403 ;; Auto vars:     Size  Location     Type
  1404 ;;		None
  1405 ;; Return value:  Size  Location     Type
  1406 ;;                  1    wreg      void 
  1407 ;; Registers used:
  1408 ;;		wreg, status,2, status,0
  1409 ;; Tracked objects:
  1410 ;;		On entry : 0/0
  1411 ;;		On exit  : 0/0
  1412 ;;		Unchanged: 0/0
  1413 ;; Data sizes:     COMRAM   BANK5   BANK6   BANK7   BANK8   BANK9  BANK10  BANK11  BANK12  BANK13  BANK14  BANK15  BANK1
      +6  BANK17  BANK18  BANK19  BANK20  BANK21
  1414 ;;      Params:         2       0       0       0       0       0       0       0       0       0       0       0       
      +0       0       0       0       0       0
  1415 ;;      Locals:         0       0       0       0       0       0       0       0       0       0       0       0       
      +0       0       0       0       0       0
  1416 ;;      Temps:          0       0       0       0       0       0       0       0       0       0       0       0       
      +0       0       0       0       0       0
  1417 ;;      Totals:         2       0       0       0       0       0       0       0       0       0       0       0       
      +0       0       0       0       0       0
  1418 ;;Total ram usage:        2 bytes
  1419 ;; Hardware stack levels used: 1
  1420 ;; Hardware stack levels required when called: 5
  1421 ;; This function calls:
  1422 ;;		Nothing
  1423 ;; This function is called by:
  1424 ;;		_UART1_Initialize
  1425 ;; This function uses a non-reentrant model
  1426 ;;
  1427                           
  1428                           	psect	text14
  1429  0006E6                     __ptext14:
  1430                           	callstack 0
  1431  0006E6                     _UART1_SetErrorHandler:
  1432                           	callstack 121
  1433  0006E6                     
  1434                           ;uart1.c: 199:     UART1_ErrorHandler = interruptHandler;
  1435  0006E6  C51F  F501         	movff	UART1_SetErrorHandler@interruptHandler,_UART1_ErrorHandler
  1436  0006EA  C520  F502         	movff	UART1_SetErrorHandler@interruptHandler+1,_UART1_ErrorHandler+1
  1437  0006EE  0012               	return		;funcret
  1438  0006F0                     __end_of_UART1_SetErrorHandler:
  1439                           	callstack 0
  1440                           
  1441 ;; *************** function _I2C1_init *****************
  1442 ;; Defined at:
  1443 ;;		line 116 in file "i2c1.c"
  1444 ;; Parameters:    Size  Location     Type
  1445 ;;		None
  1446 ;; Auto vars:     Size  Location     Type
  1447 ;;		None
  1448 ;; Return value:  Size  Location     Type
  1449 ;;                  1    wreg      void 
  1450 ;; Registers used:
  1451 ;;		wreg, status,2, status,0, cstack
  1452 ;; Tracked objects:
  1453 ;;		On entry : 0/0
  1454 ;;		On exit  : 0/0
  1455 ;;		Unchanged: 0/0
  1456 ;; Data sizes:     COMRAM   BANK5   BANK6   BANK7   BANK8   BANK9  BANK10  BANK11  BANK12  BANK13  BANK14  BANK15  BANK1
      +6  BANK17  BANK18  BANK19  BANK20  BANK21
  1457 ;;      Params:         0       0       0       0       0       0       0       0       0       0       0       0       
      +0       0       0       0       0       0
  1458 ;;      Locals:         0       0       0       0       0       0       0       0       0       0       0       0       
      +0       0       0       0       0       0
  1459 ;;      Temps:          0       0       0       0       0       0       0       0       0       0       0       0       
      +0       0       0       0       0       0
  1460 ;;      Totals:         0       0       0       0       0       0       0       0       0       0       0       0       
      +0       0       0       0       0       0
  1461 ;;Total ram usage:        0 bytes
  1462 ;; Hardware stack levels used: 1
  1463 ;; Hardware stack levels required when called: 7
  1464 ;; This function calls:
  1465 ;;		_I2C1_Open
  1466 ;; This function is called by:
  1467 ;;		_main
  1468 ;; This function uses a non-reentrant model
  1469 ;;
  1470                           
  1471                           	psect	text15
  1472  000574                     __ptext15:
  1473                           	callstack 0
  1474  000574                     _I2C1_init:
  1475                           	callstack 120
  1476  000574                     
  1477                           ;i2c1.c: 119:     I2C1CON0 = 0x01;
  1478  000574  0E01               	movlw	1
  1479  000576  0102               	movlb	2	; () banked
  1480  000578  6F94               	movwf	148,b	;volatile
  1481                           
  1482                           ;i2c1.c: 121:     I2C1CON1 = 0x00;
  1483  00057A  0E00               	movlw	0
  1484  00057C  6F95               	movwf	149,b	;volatile
  1485                           
  1486                           ;i2c1.c: 123:     I2C1CON2 = 0x00;
  1487  00057E  0E00               	movlw	0
  1488  000580  6F96               	movwf	150,b	;volatile
  1489                           
  1490                           ;i2c1.c: 125:     I2C1CNTL = 0x00;
  1491  000582  0E00               	movlw	0
  1492  000584  6F8C               	movwf	140,b	;volatile
  1493                           
  1494                           ;i2c1.c: 126:     I2C1CNTH = 0x00;
  1495  000586  0E00               	movlw	0
  1496  000588  6F8D               	movwf	141,b	;volatile
  1497                           
  1498                           ;i2c1.c: 128:     I2C1BAUD = 0x00;
  1499  00058A  0E00               	movlw	0
  1500  00058C  6F9D               	movwf	157,b	;volatile
  1501  00058E                     
  1502                           ; BSR set to: 2
  1503                           ;i2c1.c: 130:     I2C1_Open();
  1504  00058E  EC47  F001         	call	_I2C1_Open	;wreg free
  1505  000592  0012               	return		;funcret
  1506  000594                     __end_of_I2C1_init:
  1507                           	callstack 0
  1508                           
  1509 ;; *************** function _I2C1_Open *****************
  1510 ;; Defined at:
  1511 ;;		line 133 in file "i2c1.c"
  1512 ;; Parameters:    Size  Location     Type
  1513 ;;		None
  1514 ;; Auto vars:     Size  Location     Type
  1515 ;;		None
  1516 ;; Return value:  Size  Location     Type
  1517 ;;                  1    wreg      void 
  1518 ;; Registers used:
  1519 ;;		wreg, status,2, status,0, cstack
  1520 ;; Tracked objects:
  1521 ;;		On entry : 0/0
  1522 ;;		On exit  : 0/0
  1523 ;;		Unchanged: 0/0
  1524 ;; Data sizes:     COMRAM   BANK5   BANK6   BANK7   BANK8   BANK9  BANK10  BANK11  BANK12  BANK13  BANK14  BANK15  BANK1
      +6  BANK17  BANK18  BANK19  BANK20  BANK21
  1525 ;;      Params:         0       0       0       0       0       0       0       0       0       0       0       0       
      +0       0       0       0       0       0
  1526 ;;      Locals:         0       0       0       0       0       0       0       0       0       0       0       0       
      +0       0       0       0       0       0
  1527 ;;      Temps:          0       0       0       0       0       0       0       0       0       0       0       0       
      +0       0       0       0       0       0
  1528 ;;      Totals:         0       0       0       0       0       0       0       0       0       0       0       0       
      +0       0       0       0       0       0
  1529 ;;Total ram usage:        0 bytes
  1530 ;; Hardware stack levels used: 1
  1531 ;; Hardware stack levels required when called: 6
  1532 ;; This function calls:
  1533 ;;		_I2C1_SlaveEnableIrq
  1534 ;;		_I2C1_SlaveOpen
  1535 ;;		_I2C1_SlaveSetAddrIntHandler
  1536 ;;		_I2C1_SlaveSetBusColIntHandler
  1537 ;;		_I2C1_SlaveSetIsrHandler
  1538 ;;		_I2C1_SlaveSetReadIntHandler
  1539 ;;		_I2C1_SlaveSetSlaveAddr
  1540 ;;		_I2C1_SlaveSetSlaveMask
  1541 ;;		_I2C1_SlaveSetWrColIntHandler
  1542 ;;		_I2C1_SlaveSetWriteIntHandler
  1543 ;; This function is called by:
  1544 ;;		_I2C1_init
  1545 ;; This function uses a non-reentrant model
  1546 ;;
  1547                           
  1548                           	psect	text16
  1549  00028E                     __ptext16:
  1550                           	callstack 0
  1551  00028E                     _I2C1_Open:
  1552                           	callstack 120
  1553  00028E                     
  1554                           ;i2c1.c: 135:     I2C1_SlaveOpen();
  1555  00028E  EC1D  F003         	call	_I2C1_SlaveOpen	;wreg free
  1556  000292                     
  1557                           ;i2c1.c: 136:     I2C1_SlaveSetSlaveAddr(100);
  1558  000292  0E64               	movlw	100
  1559  000294  EC3A  F003         	call	_I2C1_SlaveSetSlaveAddr
  1560  000298                     
  1561                           ;i2c1.c: 137:     I2C1_SlaveSetSlaveMask(127);
  1562  000298  0E7F               	movlw	127
  1563  00029A  EC31  F003         	call	_I2C1_SlaveSetSlaveMask
  1564  00029E                     
  1565                           ;i2c1.c: 138:     I2C1_SlaveSetIsrHandler(I2C1_Isr);
  1566  00029E  0EBE               	movlw	low _I2C1_Isr
  1567  0002A0  6E1F               	movwf	I2C1_SlaveSetIsrHandler@handler^(0+1280),c
  1568  0002A2  0E00               	movlw	high _I2C1_Isr
  1569  0002A4  6E20               	movwf	(I2C1_SlaveSetIsrHandler@handler+1)^(0+1280),c
  1570  0002A6  EC87  F003         	call	_I2C1_SlaveSetIsrHandler	;wreg free
  1571  0002AA                     
  1572                           ;i2c1.c: 139:     I2C1_SlaveSetBusColIntHandler(I2C1_SlaveDefBusColInterruptHandler);
  1573  0002AA  0E00               	movlw	0
  1574  0002AC  6E1F               	movwf	I2C1_SlaveSetBusColIntHandler@handler^(0+1280),c
  1575  0002AE  0E00               	movlw	0
  1576  0002B0  6E20               	movwf	(I2C1_SlaveSetBusColIntHandler@handler+1)^(0+1280),c
  1577  0002B2  EC8C  F003         	call	_I2C1_SlaveSetBusColIntHandler	;wreg free
  1578  0002B6                     
  1579                           ;i2c1.c: 140:     I2C1_SlaveSetWriteIntHandler(I2C1_SlaveDefWrInterruptHandler);
  1580  0002B6  0E4E               	movlw	low _I2C1_SlaveDefWrInterruptHandler
  1581  0002B8  6E1F               	movwf	I2C1_SlaveSetWriteIntHandler@handler^(0+1280),c
  1582  0002BA  0E06               	movlw	high _I2C1_SlaveDefWrInterruptHandler
  1583  0002BC  6E20               	movwf	(I2C1_SlaveSetWriteIntHandler@handler+1)^(0+1280),c
  1584  0002BE  EC78  F003         	call	_I2C1_SlaveSetWriteIntHandler	;wreg free
  1585  0002C2                     
  1586                           ;i2c1.c: 141:     I2C1_SlaveSetReadIntHandler(I2C1_SlaveDefRdInterruptHandler);
  1587  0002C2  0E5E               	movlw	low _I2C1_SlaveDefRdInterruptHandler
  1588  0002C4  6E1F               	movwf	I2C1_SlaveSetReadIntHandler@handler^(0+1280),c
  1589  0002C6  0E04               	movlw	high _I2C1_SlaveDefRdInterruptHandler
  1590  0002C8  6E20               	movwf	(I2C1_SlaveSetReadIntHandler@handler+1)^(0+1280),c
  1591  0002CA  EC82  F003         	call	_I2C1_SlaveSetReadIntHandler	;wreg free
  1592  0002CE                     
  1593                           ;i2c1.c: 142:     I2C1_SlaveSetAddrIntHandler(I2C1_SlaveDefAddrInterruptHandler);
  1594  0002CE  0E3E               	movlw	low _I2C1_SlaveDefAddrInterruptHandler
  1595  0002D0  6E1F               	movwf	I2C1_SlaveSetAddrIntHandler@handler^(0+1280),c
  1596  0002D2  0E07               	movlw	high _I2C1_SlaveDefAddrInterruptHandler
  1597  0002D4  6E20               	movwf	(I2C1_SlaveSetAddrIntHandler@handler+1)^(0+1280),c
  1598  0002D6  EC91  F003         	call	_I2C1_SlaveSetAddrIntHandler	;wreg free
  1599  0002DA                     
  1600                           ;i2c1.c: 143:     I2C1_SlaveSetWrColIntHandler(I2C1_SlaveDefWrColInterruptHandler);
  1601  0002DA  0E00               	movlw	0
  1602  0002DC  6E1F               	movwf	I2C1_SlaveSetWrColIntHandler@handler^(0+1280),c
  1603  0002DE  0E00               	movlw	0
  1604  0002E0  6E20               	movwf	(I2C1_SlaveSetWrColIntHandler@handler+1)^(0+1280),c
  1605  0002E2  EC7D  F003         	call	_I2C1_SlaveSetWrColIntHandler	;wreg free
  1606                           
  1607                           ;i2c1.c: 144:     I2C1_SlaveEnableIrq();
  1608  0002E6  EC43  F003         	call	_I2C1_SlaveEnableIrq	;wreg free
  1609  0002EA                     
  1610                           ;i2c1.c: 146:     TRISCbits.TRISC3=0;
  1611  0002EA  96C8               	bcf	200,3,c	;volatile
  1612  0002EC                     
  1613                           ;i2c1.c: 147:     TRISCbits.TRISC6=0;
  1614  0002EC  9CC8               	bcf	200,6,c	;volatile
  1615  0002EE                     
  1616                           ;i2c1.c: 149:     ANSELCbits.ANSELC3=0;
  1617  0002EE  0104               	movlb	4	; () banked
  1618  0002F0  9710               	bcf	16,3,b	;volatile
  1619  0002F2                     
  1620                           ; BSR set to: 4
  1621                           ;i2c1.c: 150:     ANSELCbits.ANSELC6=0;
  1622  0002F2  9D10               	bcf	16,6,b	;volatile
  1623  0002F4                     
  1624                           ; BSR set to: 4
  1625                           ;i2c1.c: 152:     WPUCbits.WPUC3=0;
  1626  0002F4  9711               	bcf	17,3,b	;volatile
  1627  0002F6                     
  1628                           ; BSR set to: 4
  1629                           ;i2c1.c: 153:     WPUCbits.WPUC6=0;
  1630  0002F6  9D11               	bcf	17,6,b	;volatile
  1631  0002F8                     
  1632                           ; BSR set to: 4
  1633                           ;i2c1.c: 155:     ODCONCbits.ODCC3=1;
  1634  0002F8  8712               	bsf	18,3,b	;volatile
  1635  0002FA                     
  1636                           ; BSR set to: 4
  1637                           ;i2c1.c: 156:     ODCONCbits.ODCC6=1;
  1638  0002FA  8D12               	bsf	18,6,b	;volatile
  1639  0002FC                     
  1640                           ; BSR set to: 4
  1641                           ;i2c1.c: 159:     I2C1SDAPPS = 0x13;
  1642  0002FC  0E13               	movlw	19
  1643  0002FE  0102               	movlb	2	; () banked
  1644  000300  6F70               	movwf	112,b	;volatile
  1645  000302                     
  1646                           ; BSR set to: 2
  1647                           ;i2c1.c: 160:     RC3PPS = 0x22;
  1648  000302  0E22               	movlw	34
  1649  000304  6F14               	movwf	20,b	;volatile
  1650  000306                     
  1651                           ; BSR set to: 2
  1652                           ;i2c1.c: 161:     RC6PPS = 0x21;
  1653  000306  0E21               	movlw	33
  1654  000308  6F17               	movwf	23,b	;volatile
  1655  00030A                     
  1656                           ; BSR set to: 2
  1657                           ;i2c1.c: 162:     I2C1SCLPPS = 0x16;
  1658  00030A  0E16               	movlw	22
  1659  00030C  6F71               	movwf	113,b	;volatile
  1660  00030E                     
  1661                           ; BSR set to: 2
  1662  00030E  0012               	return		;funcret
  1663  000310                     __end_of_I2C1_Open:
  1664                           	callstack 0
  1665                           
  1666 ;; *************** function _I2C1_SlaveSetWriteIntHandler *****************
  1667 ;; Defined at:
  1668 ;;		line 317 in file "i2c1.c"
  1669 ;; Parameters:    Size  Location     Type
  1670 ;;  handler         2    5[COMRAM] PTR FTN()void 
  1671 ;;		 -> I2C1_SlaveDefWrInterruptHandler(1), 
  1672 ;; Auto vars:     Size  Location     Type
  1673 ;;		None
  1674 ;; Return value:  Size  Location     Type
  1675 ;;                  1    wreg      void 
  1676 ;; Registers used:
  1677 ;;		wreg, status,2, status,0
  1678 ;; Tracked objects:
  1679 ;;		On entry : 0/0
  1680 ;;		On exit  : 0/0
  1681 ;;		Unchanged: 0/0
  1682 ;; Data sizes:     COMRAM   BANK5   BANK6   BANK7   BANK8   BANK9  BANK10  BANK11  BANK12  BANK13  BANK14  BANK15  BANK1
      +6  BANK17  BANK18  BANK19  BANK20  BANK21
  1683 ;;      Params:         2       0       0       0       0       0       0       0       0       0       0       0       
      +0       0       0       0       0       0
  1684 ;;      Locals:         0       0       0       0       0       0       0       0       0       0       0       0       
      +0       0       0       0       0       0
  1685 ;;      Temps:          0       0       0       0       0       0       0       0       0       0       0       0       
      +0       0       0       0       0       0
  1686 ;;      Totals:         2       0       0       0       0       0       0       0       0       0       0       0       
      +0       0       0       0       0       0
  1687 ;;Total ram usage:        2 bytes
  1688 ;; Hardware stack levels used: 1
  1689 ;; Hardware stack levels required when called: 5
  1690 ;; This function calls:
  1691 ;;		Nothing
  1692 ;; This function is called by:
  1693 ;;		_I2C1_Open
  1694 ;; This function uses a non-reentrant model
  1695 ;;
  1696                           
  1697                           	psect	text17
  1698  0006F0                     __ptext17:
  1699                           	callstack 0
  1700  0006F0                     _I2C1_SlaveSetWriteIntHandler:
  1701                           	callstack 120
  1702  0006F0                     
  1703                           ;i2c1.c: 318:     I2C1_SlaveWrInterruptHandler = handler;
  1704  0006F0  C51F  F50D         	movff	I2C1_SlaveSetWriteIntHandler@handler,_I2C1_SlaveWrInterruptHandler
  1705  0006F4  C520  F50E         	movff	I2C1_SlaveSetWriteIntHandler@handler+1,_I2C1_SlaveWrInterruptHandler+1
  1706  0006F8  0012               	return		;funcret
  1707  0006FA                     __end_of_I2C1_SlaveSetWriteIntHandler:
  1708                           	callstack 0
  1709                           
  1710 ;; *************** function _I2C1_SlaveSetWrColIntHandler *****************
  1711 ;; Defined at:
  1712 ;;		line 354 in file "i2c1.c"
  1713 ;; Parameters:    Size  Location     Type
  1714 ;;  handler         2    5[COMRAM] PTR FTN()void 
  1715 ;;		 -> I2C1_SlaveDefWrColInterruptHandler(1), 
  1716 ;; Auto vars:     Size  Location     Type
  1717 ;;		None
  1718 ;; Return value:  Size  Location     Type
  1719 ;;                  1    wreg      void 
  1720 ;; Registers used:
  1721 ;;		wreg, status,2, status,0
  1722 ;; Tracked objects:
  1723 ;;		On entry : 0/0
  1724 ;;		On exit  : 0/0
  1725 ;;		Unchanged: 0/0
  1726 ;; Data sizes:     COMRAM   BANK5   BANK6   BANK7   BANK8   BANK9  BANK10  BANK11  BANK12  BANK13  BANK14  BANK15  BANK1
      +6  BANK17  BANK18  BANK19  BANK20  BANK21
  1727 ;;      Params:         2       0       0       0       0       0       0       0       0       0       0       0       
      +0       0       0       0       0       0
  1728 ;;      Locals:         0       0       0       0       0       0       0       0       0       0       0       0       
      +0       0       0       0       0       0
  1729 ;;      Temps:          0       0       0       0       0       0       0       0       0       0       0       0       
      +0       0       0       0       0       0
  1730 ;;      Totals:         2       0       0       0       0       0       0       0       0       0       0       0       
      +0       0       0       0       0       0
  1731 ;;Total ram usage:        2 bytes
  1732 ;; Hardware stack levels used: 1
  1733 ;; Hardware stack levels required when called: 5
  1734 ;; This function calls:
  1735 ;;		Nothing
  1736 ;; This function is called by:
  1737 ;;		_I2C1_Open
  1738 ;; This function uses a non-reentrant model
  1739 ;;
  1740                           
  1741                           	psect	text18
  1742  0006FA                     __ptext18:
  1743                           	callstack 0
  1744  0006FA                     _I2C1_SlaveSetWrColIntHandler:
  1745                           	callstack 120
  1746  0006FA                     
  1747                           ;i2c1.c: 355:     I2C1_SlaveWrColInterruptHandler = handler;
  1748  0006FA  C51F  F507         	movff	I2C1_SlaveSetWrColIntHandler@handler,_I2C1_SlaveWrColInterruptHandler
  1749  0006FE  C520  F508         	movff	I2C1_SlaveSetWrColIntHandler@handler+1,_I2C1_SlaveWrColInterruptHandler+1
  1750  000702  0012               	return		;funcret
  1751  000704                     __end_of_I2C1_SlaveSetWrColIntHandler:
  1752                           	callstack 0
  1753                           
  1754 ;; *************** function _I2C1_SlaveSetSlaveMask *****************
  1755 ;; Defined at:
  1756 ;;		line 408 in file "i2c1.c"
  1757 ;; Parameters:    Size  Location     Type
  1758 ;;  maskAddr        1    wreg     unsigned char 
  1759 ;; Auto vars:     Size  Location     Type
  1760 ;;  maskAddr        1    5[COMRAM] unsigned char 
  1761 ;; Return value:  Size  Location     Type
  1762 ;;                  1    wreg      void 
  1763 ;; Registers used:
  1764 ;;		wreg, status,2, status,0
  1765 ;; Tracked objects:
  1766 ;;		On entry : 0/0
  1767 ;;		On exit  : 0/0
  1768 ;;		Unchanged: 0/0
  1769 ;; Data sizes:     COMRAM   BANK5   BANK6   BANK7   BANK8   BANK9  BANK10  BANK11  BANK12  BANK13  BANK14  BANK15  BANK1
      +6  BANK17  BANK18  BANK19  BANK20  BANK21
  1770 ;;      Params:         0       0       0       0       0       0       0       0       0       0       0       0       
      +0       0       0       0       0       0
  1771 ;;      Locals:         1       0       0       0       0       0       0       0       0       0       0       0       
      +0       0       0       0       0       0
  1772 ;;      Temps:          0       0       0       0       0       0       0       0       0       0       0       0       
      +0       0       0       0       0       0
  1773 ;;      Totals:         1       0       0       0       0       0       0       0       0       0       0       0       
      +0       0       0       0       0       0
  1774 ;;Total ram usage:        1 bytes
  1775 ;; Hardware stack levels used: 1
  1776 ;; Hardware stack levels required when called: 5
  1777 ;; This function calls:
  1778 ;;		Nothing
  1779 ;; This function is called by:
  1780 ;;		_I2C1_Open
  1781 ;; This function uses a non-reentrant model
  1782 ;;
  1783                           
  1784                           	psect	text19
  1785  000662                     __ptext19:
  1786                           	callstack 0
  1787  000662                     _I2C1_SlaveSetSlaveMask:
  1788                           	callstack 120
  1789                           
  1790                           ;incstack = 0
  1791                           ;I2C1_SlaveSetSlaveMask@maskAddr stored from wreg
  1792  000662  6E1F               	movwf	I2C1_SlaveSetSlaveMask@maskAddr^(0+1280),c
  1793  000664                     
  1794                           ;i2c1.c: 408: static __attribute__((inline)) void I2C1_SlaveSetSlaveMask(uint8_t maskAdd
      +                          r);i2c1.c: 409: {;i2c1.c: 410:     I2C1ADR1 = (uint8_t) (maskAddr << 1);
  1795  000664  501F               	movf	I2C1_SlaveSetSlaveMask@maskAddr^(0+1280),w,c
  1796  000666  241F               	addwf	I2C1_SlaveSetSlaveMask@maskAddr^(0+1280),w,c
  1797  000668  0102               	movlb	2	; () banked
  1798  00066A  6F91               	movwf	145,b	;volatile
  1799                           
  1800                           ;i2c1.c: 411:     I2C1ADR3 = (uint8_t) (maskAddr << 1);
  1801  00066C  501F               	movf	I2C1_SlaveSetSlaveMask@maskAddr^(0+1280),w,c
  1802  00066E  241F               	addwf	I2C1_SlaveSetSlaveMask@maskAddr^(0+1280),w,c
  1803  000670  6F93               	movwf	147,b	;volatile
  1804  000672                     
  1805                           ; BSR set to: 2
  1806  000672  0012               	return		;funcret
  1807  000674                     __end_of_I2C1_SlaveSetSlaveMask:
  1808                           	callstack 0
  1809                           
  1810 ;; *************** function _I2C1_SlaveSetSlaveAddr *****************
  1811 ;; Defined at:
  1812 ;;		line 402 in file "i2c1.c"
  1813 ;; Parameters:    Size  Location     Type
  1814 ;;  slaveAddr       1    wreg     unsigned char 
  1815 ;; Auto vars:     Size  Location     Type
  1816 ;;  slaveAddr       1    5[COMRAM] unsigned char 
  1817 ;; Return value:  Size  Location     Type
  1818 ;;                  1    wreg      void 
  1819 ;; Registers used:
  1820 ;;		wreg, status,2, status,0
  1821 ;; Tracked objects:
  1822 ;;		On entry : 0/0
  1823 ;;		On exit  : 0/0
  1824 ;;		Unchanged: 0/0
  1825 ;; Data sizes:     COMRAM   BANK5   BANK6   BANK7   BANK8   BANK9  BANK10  BANK11  BANK12  BANK13  BANK14  BANK15  BANK1
      +6  BANK17  BANK18  BANK19  BANK20  BANK21
  1826 ;;      Params:         0       0       0       0       0       0       0       0       0       0       0       0       
      +0       0       0       0       0       0
  1827 ;;      Locals:         1       0       0       0       0       0       0       0       0       0       0       0       
      +0       0       0       0       0       0
  1828 ;;      Temps:          0       0       0       0       0       0       0       0       0       0       0       0       
      +0       0       0       0       0       0
  1829 ;;      Totals:         1       0       0       0       0       0       0       0       0       0       0       0       
      +0       0       0       0       0       0
  1830 ;;Total ram usage:        1 bytes
  1831 ;; Hardware stack levels used: 1
  1832 ;; Hardware stack levels required when called: 5
  1833 ;; This function calls:
  1834 ;;		Nothing
  1835 ;; This function is called by:
  1836 ;;		_I2C1_Open
  1837 ;; This function uses a non-reentrant model
  1838 ;;
  1839                           
  1840                           	psect	text20
  1841  000674                     __ptext20:
  1842                           	callstack 0
  1843  000674                     _I2C1_SlaveSetSlaveAddr:
  1844                           	callstack 120
  1845                           
  1846                           ; BSR set to: 2
  1847                           ;incstack = 0
  1848                           ;I2C1_SlaveSetSlaveAddr@slaveAddr stored from wreg
  1849  000674  6E1F               	movwf	I2C1_SlaveSetSlaveAddr@slaveAddr^(0+1280),c
  1850  000676                     
  1851                           ;i2c1.c: 402: static __attribute__((inline)) void I2C1_SlaveSetSlaveAddr(uint8_t slaveAd
      +                          dr);i2c1.c: 403: {;i2c1.c: 404:     I2C1ADR0 = (uint8_t) (slaveAddr << 1);
  1852  000676  501F               	movf	I2C1_SlaveSetSlaveAddr@slaveAddr^(0+1280),w,c
  1853  000678  241F               	addwf	I2C1_SlaveSetSlaveAddr@slaveAddr^(0+1280),w,c
  1854  00067A  0102               	movlb	2	; () banked
  1855  00067C  6F90               	movwf	144,b	;volatile
  1856                           
  1857                           ;i2c1.c: 405:     I2C1ADR2 = (uint8_t) (slaveAddr << 1);
  1858  00067E  501F               	movf	I2C1_SlaveSetSlaveAddr@slaveAddr^(0+1280),w,c
  1859  000680  241F               	addwf	I2C1_SlaveSetSlaveAddr@slaveAddr^(0+1280),w,c
  1860  000682  6F92               	movwf	146,b	;volatile
  1861  000684                     
  1862                           ; BSR set to: 2
  1863  000684  0012               	return		;funcret
  1864  000686                     __end_of_I2C1_SlaveSetSlaveAddr:
  1865                           	callstack 0
  1866                           
  1867 ;; *************** function _I2C1_SlaveSetReadIntHandler *****************
  1868 ;; Defined at:
  1869 ;;		line 284 in file "i2c1.c"
  1870 ;; Parameters:    Size  Location     Type
  1871 ;;  handler         2    5[COMRAM] PTR FTN()void 
  1872 ;;		 -> I2C1_SlaveDefRdInterruptHandler(1), 
  1873 ;; Auto vars:     Size  Location     Type
  1874 ;;		None
  1875 ;; Return value:  Size  Location     Type
  1876 ;;                  1    wreg      void 
  1877 ;; Registers used:
  1878 ;;		wreg, status,2, status,0
  1879 ;; Tracked objects:
  1880 ;;		On entry : 0/0
  1881 ;;		On exit  : 0/0
  1882 ;;		Unchanged: 0/0
  1883 ;; Data sizes:     COMRAM   BANK5   BANK6   BANK7   BANK8   BANK9  BANK10  BANK11  BANK12  BANK13  BANK14  BANK15  BANK1
      +6  BANK17  BANK18  BANK19  BANK20  BANK21
  1884 ;;      Params:         2       0       0       0       0       0       0       0       0       0       0       0       
      +0       0       0       0       0       0
  1885 ;;      Locals:         0       0       0       0       0       0       0       0       0       0       0       0       
      +0       0       0       0       0       0
  1886 ;;      Temps:          0       0       0       0       0       0       0       0       0       0       0       0       
      +0       0       0       0       0       0
  1887 ;;      Totals:         2       0       0       0       0       0       0       0       0       0       0       0       
      +0       0       0       0       0       0
  1888 ;;Total ram usage:        2 bytes
  1889 ;; Hardware stack levels used: 1
  1890 ;; Hardware stack levels required when called: 5
  1891 ;; This function calls:
  1892 ;;		Nothing
  1893 ;; This function is called by:
  1894 ;;		_I2C1_Open
  1895 ;; This function uses a non-reentrant model
  1896 ;;
  1897                           
  1898                           	psect	text21
  1899  000704                     __ptext21:
  1900                           	callstack 0
  1901  000704                     _I2C1_SlaveSetReadIntHandler:
  1902                           	callstack 120
  1903  000704                     
  1904                           ;i2c1.c: 285:     I2C1_SlaveRdInterruptHandler = handler;
  1905  000704  C51F  F50F         	movff	I2C1_SlaveSetReadIntHandler@handler,_I2C1_SlaveRdInterruptHandler
  1906  000708  C520  F510         	movff	I2C1_SlaveSetReadIntHandler@handler+1,_I2C1_SlaveRdInterruptHandler+1
  1907  00070C  0012               	return		;funcret
  1908  00070E                     __end_of_I2C1_SlaveSetReadIntHandler:
  1909                           	callstack 0
  1910                           
  1911 ;; *************** function _I2C1_SlaveSetIsrHandler *****************
  1912 ;; Defined at:
  1913 ;;		line 278 in file "i2c1.c"
  1914 ;; Parameters:    Size  Location     Type
  1915 ;;  handler         2    5[COMRAM] PTR FTN()void 
  1916 ;;		 -> I2C1_Isr(1), 
  1917 ;; Auto vars:     Size  Location     Type
  1918 ;;		None
  1919 ;; Return value:  Size  Location     Type
  1920 ;;                  1    wreg      void 
  1921 ;; Registers used:
  1922 ;;		wreg, status,2, status,0
  1923 ;; Tracked objects:
  1924 ;;		On entry : 0/0
  1925 ;;		On exit  : 0/0
  1926 ;;		Unchanged: 0/0
  1927 ;; Data sizes:     COMRAM   BANK5   BANK6   BANK7   BANK8   BANK9  BANK10  BANK11  BANK12  BANK13  BANK14  BANK15  BANK1
      +6  BANK17  BANK18  BANK19  BANK20  BANK21
  1928 ;;      Params:         2       0       0       0       0       0       0       0       0       0       0       0       
      +0       0       0       0       0       0
  1929 ;;      Locals:         0       0       0       0       0       0       0       0       0       0       0       0       
      +0       0       0       0       0       0
  1930 ;;      Temps:          0       0       0       0       0       0       0       0       0       0       0       0       
      +0       0       0       0       0       0
  1931 ;;      Totals:         2       0       0       0       0       0       0       0       0       0       0       0       
      +0       0       0       0       0       0
  1932 ;;Total ram usage:        2 bytes
  1933 ;; Hardware stack levels used: 1
  1934 ;; Hardware stack levels required when called: 5
  1935 ;; This function calls:
  1936 ;;		Nothing
  1937 ;; This function is called by:
  1938 ;;		_I2C1_Open
  1939 ;; This function uses a non-reentrant model
  1940 ;;
  1941                           
  1942                           	psect	text22
  1943  00070E                     __ptext22:
  1944                           	callstack 0
  1945  00070E                     _I2C1_SlaveSetIsrHandler:
  1946                           	callstack 120
  1947  00070E                     
  1948                           ;i2c1.c: 278: void I2C1_SlaveSetIsrHandler(i2c1InterruptHandler handler);i2c1.c: 279: {;
      +                          i2c1.c: 280:     I2C1_InterruptHandler = handler;
  1949  00070E  C51F  F511         	movff	I2C1_SlaveSetIsrHandler@handler,_I2C1_InterruptHandler
  1950  000712  C520  F512         	movff	I2C1_SlaveSetIsrHandler@handler+1,_I2C1_InterruptHandler+1
  1951  000716  0012               	return		;funcret
  1952  000718                     __end_of_I2C1_SlaveSetIsrHandler:
  1953                           	callstack 0
  1954                           
  1955 ;; *************** function _I2C1_SlaveSetBusColIntHandler *****************
  1956 ;; Defined at:
  1957 ;;		line 370 in file "i2c1.c"
  1958 ;; Parameters:    Size  Location     Type
  1959 ;;  handler         2    5[COMRAM] PTR FTN()void 
  1960 ;;		 -> I2C1_SlaveDefBusColInterruptHandler(1), 
  1961 ;; Auto vars:     Size  Location     Type
  1962 ;;		None
  1963 ;; Return value:  Size  Location     Type
  1964 ;;                  1    wreg      void 
  1965 ;; Registers used:
  1966 ;;		wreg, status,2, status,0
  1967 ;; Tracked objects:
  1968 ;;		On entry : 0/0
  1969 ;;		On exit  : 0/0
  1970 ;;		Unchanged: 0/0
  1971 ;; Data sizes:     COMRAM   BANK5   BANK6   BANK7   BANK8   BANK9  BANK10  BANK11  BANK12  BANK13  BANK14  BANK15  BANK1
      +6  BANK17  BANK18  BANK19  BANK20  BANK21
  1972 ;;      Params:         2       0       0       0       0       0       0       0       0       0       0       0       
      +0       0       0       0       0       0
  1973 ;;      Locals:         0       0       0       0       0       0       0       0       0       0       0       0       
      +0       0       0       0       0       0
  1974 ;;      Temps:          0       0       0       0       0       0       0       0       0       0       0       0       
      +0       0       0       0       0       0
  1975 ;;      Totals:         2       0       0       0       0       0       0       0       0       0       0       0       
      +0       0       0       0       0       0
  1976 ;;Total ram usage:        2 bytes
  1977 ;; Hardware stack levels used: 1
  1978 ;; Hardware stack levels required when called: 5
  1979 ;; This function calls:
  1980 ;;		Nothing
  1981 ;; This function is called by:
  1982 ;;		_I2C1_Open
  1983 ;; This function uses a non-reentrant model
  1984 ;;
  1985                           
  1986                           	psect	text23
  1987  000718                     __ptext23:
  1988                           	callstack 0
  1989  000718                     _I2C1_SlaveSetBusColIntHandler:
  1990                           	callstack 120
  1991  000718                     
  1992                           ;i2c1.c: 371:     I2C1_SlaveBusColInterruptHandler = handler;
  1993  000718  C51F  F509         	movff	I2C1_SlaveSetBusColIntHandler@handler,_I2C1_SlaveBusColInterruptHandler
  1994  00071C  C520  F50A         	movff	I2C1_SlaveSetBusColIntHandler@handler+1,_I2C1_SlaveBusColInterruptHandler+1
  1995  000720  0012               	return		;funcret
  1996  000722                     __end_of_I2C1_SlaveSetBusColIntHandler:
  1997                           	callstack 0
  1998                           
  1999 ;; *************** function _I2C1_SlaveSetAddrIntHandler *****************
  2000 ;; Defined at:
  2001 ;;		line 338 in file "i2c1.c"
  2002 ;; Parameters:    Size  Location     Type
  2003 ;;  handler         2    5[COMRAM] PTR FTN()void 
  2004 ;;		 -> I2C1_SlaveDefAddrInterruptHandler(1), 
  2005 ;; Auto vars:     Size  Location     Type
  2006 ;;		None
  2007 ;; Return value:  Size  Location     Type
  2008 ;;                  1    wreg      void 
  2009 ;; Registers used:
  2010 ;;		wreg, status,2, status,0
  2011 ;; Tracked objects:
  2012 ;;		On entry : 0/0
  2013 ;;		On exit  : 0/0
  2014 ;;		Unchanged: 0/0
  2015 ;; Data sizes:     COMRAM   BANK5   BANK6   BANK7   BANK8   BANK9  BANK10  BANK11  BANK12  BANK13  BANK14  BANK15  BANK1
      +6  BANK17  BANK18  BANK19  BANK20  BANK21
  2016 ;;      Params:         2       0       0       0       0       0       0       0       0       0       0       0       
      +0       0       0       0       0       0
  2017 ;;      Locals:         0       0       0       0       0       0       0       0       0       0       0       0       
      +0       0       0       0       0       0
  2018 ;;      Temps:          0       0       0       0       0       0       0       0       0       0       0       0       
      +0       0       0       0       0       0
  2019 ;;      Totals:         2       0       0       0       0       0       0       0       0       0       0       0       
      +0       0       0       0       0       0
  2020 ;;Total ram usage:        2 bytes
  2021 ;; Hardware stack levels used: 1
  2022 ;; Hardware stack levels required when called: 5
  2023 ;; This function calls:
  2024 ;;		Nothing
  2025 ;; This function is called by:
  2026 ;;		_I2C1_Open
  2027 ;; This function uses a non-reentrant model
  2028 ;;
  2029                           
  2030                           	psect	text24
  2031  000722                     __ptext24:
  2032                           	callstack 0
  2033  000722                     _I2C1_SlaveSetAddrIntHandler:
  2034                           	callstack 120
  2035  000722                     
  2036                           ;i2c1.c: 339:     I2C1_SlaveAddrInterruptHandler = handler;
  2037  000722  C51F  F50B         	movff	I2C1_SlaveSetAddrIntHandler@handler,_I2C1_SlaveAddrInterruptHandler
  2038  000726  C520  F50C         	movff	I2C1_SlaveSetAddrIntHandler@handler+1,_I2C1_SlaveAddrInterruptHandler+1
  2039  00072A  0012               	return		;funcret
  2040  00072C                     __end_of_I2C1_SlaveSetAddrIntHandler:
  2041                           	callstack 0
  2042                           
  2043 ;; *************** function _I2C1_SlaveOpen *****************
  2044 ;; Defined at:
  2045 ;;		line 385 in file "i2c1.c"
  2046 ;; Parameters:    Size  Location     Type
  2047 ;;		None
  2048 ;; Auto vars:     Size  Location     Type
  2049 ;;		None
  2050 ;; Return value:  Size  Location     Type
  2051 ;;                  1    wreg      _Bool 
  2052 ;; Registers used:
  2053 ;;		None
  2054 ;; Tracked objects:
  2055 ;;		On entry : 0/0
  2056 ;;		On exit  : 0/0
  2057 ;;		Unchanged: 0/0
  2058 ;; Data sizes:     COMRAM   BANK5   BANK6   BANK7   BANK8   BANK9  BANK10  BANK11  BANK12  BANK13  BANK14  BANK15  BANK1
      +6  BANK17  BANK18  BANK19  BANK20  BANK21
  2059 ;;      Params:         0       0       0       0       0       0       0       0       0       0       0       0       
      +0       0       0       0       0       0
  2060 ;;      Locals:         0       0       0       0       0       0       0       0       0       0       0       0       
      +0       0       0       0       0       0
  2061 ;;      Temps:          0       0       0       0       0       0       0       0       0       0       0       0       
      +0       0       0       0       0       0
  2062 ;;      Totals:         0       0       0       0       0       0       0       0       0       0       0       0       
      +0       0       0       0       0       0
  2063 ;;Total ram usage:        0 bytes
  2064 ;; Hardware stack levels used: 1
  2065 ;; Hardware stack levels required when called: 5
  2066 ;; This function calls:
  2067 ;;		Nothing
  2068 ;; This function is called by:
  2069 ;;		_I2C1_Open
  2070 ;; This function uses a non-reentrant model
  2071 ;;
  2072                           
  2073                           	psect	text25
  2074  00063A                     __ptext25:
  2075                           	callstack 0
  2076  00063A                     _I2C1_SlaveOpen:
  2077                           	callstack 120
  2078  00063A                     
  2079                           ;i2c1.c: 387:     if(!I2C1CON0bits.EN)
  2080  00063A  0102               	movlb	2	; () banked
  2081  00063C  BF94               	btfsc	148,7,b	;volatile
  2082  00063E  EF23  F003         	goto	u11
  2083  000642  EF25  F003         	goto	u10
  2084  000646                     u11:
  2085  000646  EF26  F003         	goto	l312
  2086  00064A                     u10:
  2087  00064A                     
  2088                           ; BSR set to: 2
  2089                           ;i2c1.c: 388:     {;i2c1.c: 389:         I2C1CON0bits.EN = 1;
  2090  00064A  8F94               	bsf	148,7,b	;volatile
  2091  00064C                     l312:
  2092                           
  2093                           ; BSR set to: 2
  2094  00064C  0012               	return		;funcret
  2095  00064E                     __end_of_I2C1_SlaveOpen:
  2096                           	callstack 0
  2097                           
  2098 ;; *************** function _I2C1_SlaveEnableIrq *****************
  2099 ;; Defined at:
  2100 ;;		line 414 in file "i2c1.c"
  2101 ;; Parameters:    Size  Location     Type
  2102 ;;		None
  2103 ;; Auto vars:     Size  Location     Type
  2104 ;;		None
  2105 ;; Return value:  Size  Location     Type
  2106 ;;                  1    wreg      void 
  2107 ;; Registers used:
  2108 ;;		None
  2109 ;; Tracked objects:
  2110 ;;		On entry : 0/0
  2111 ;;		On exit  : 0/0
  2112 ;;		Unchanged: 0/0
  2113 ;; Data sizes:     COMRAM   BANK5   BANK6   BANK7   BANK8   BANK9  BANK10  BANK11  BANK12  BANK13  BANK14  BANK15  BANK1
      +6  BANK17  BANK18  BANK19  BANK20  BANK21
  2114 ;;      Params:         0       0       0       0       0       0       0       0       0       0       0       0       
      +0       0       0       0       0       0
  2115 ;;      Locals:         0       0       0       0       0       0       0       0       0       0       0       0       
      +0       0       0       0       0       0
  2116 ;;      Temps:          0       0       0       0       0       0       0       0       0       0       0       0       
      +0       0       0       0       0       0
  2117 ;;      Totals:         0       0       0       0       0       0       0       0       0       0       0       0       
      +0       0       0       0       0       0
  2118 ;;Total ram usage:        0 bytes
  2119 ;; Hardware stack levels used: 1
  2120 ;; Hardware stack levels required when called: 5
  2121 ;; This function calls:
  2122 ;;		Nothing
  2123 ;; This function is called by:
  2124 ;;		_I2C1_Open
  2125 ;; This function uses a non-reentrant model
  2126 ;;
  2127                           
  2128                           	psect	text26
  2129  000686                     __ptext26:
  2130                           	callstack 0
  2131  000686                     _I2C1_SlaveEnableIrq:
  2132                           	callstack 120
  2133  000686                     
  2134                           ;i2c1.c: 416:     PIE7bits.I2C1IE = 1;
  2135  000686  84AF               	bsf	175,2,c	;volatile
  2136                           
  2137                           ;i2c1.c: 417:     PIE7bits.I2C1EIE = 1;
  2138  000688  86AF               	bsf	175,3,c	;volatile
  2139                           
  2140                           ;i2c1.c: 418:     PIE7bits.I2C1RXIE = 1;
  2141  00068A  80AF               	bsf	175,0,c	;volatile
  2142                           
  2143                           ;i2c1.c: 419:     PIE7bits.I2C1TXIE = 1;
  2144  00068C  82AF               	bsf	175,1,c	;volatile
  2145                           
  2146                           ;i2c1.c: 420:     I2C1PIEbits.PCIE = 1;
  2147  00068E  0102               	movlb	2	; () banked
  2148  000690  859B               	bsf	155,2,b	;volatile
  2149                           
  2150                           ;i2c1.c: 421:     I2C1PIEbits.ADRIE = 1;
  2151  000692  879B               	bsf	155,3,b	;volatile
  2152                           
  2153                           ;i2c1.c: 422:     I2C1ERRbits.NACKIE = 1;
  2154  000694  8197               	bsf	151,0,b	;volatile
  2155  000696                     
  2156                           ; BSR set to: 2
  2157  000696  0012               	return		;funcret
  2158  000698                     __end_of_I2C1_SlaveEnableIrq:
  2159                           	callstack 0
  2160                           
  2161 ;; *************** function _CMP1_Initialize *****************
  2162 ;; Defined at:
  2163 ;;		line 58 in file "cmp1.c"
  2164 ;; Parameters:    Size  Location     Type
  2165 ;;		None
  2166 ;; Auto vars:     Size  Location     Type
  2167 ;;		None
  2168 ;; Return value:  Size  Location     Type
  2169 ;;                  1    wreg      void 
  2170 ;; Registers used:
  2171 ;;		wreg, status,2
  2172 ;; Tracked objects:
  2173 ;;		On entry : 0/0
  2174 ;;		On exit  : 0/0
  2175 ;;		Unchanged: 0/0
  2176 ;; Data sizes:     COMRAM   BANK5   BANK6   BANK7   BANK8   BANK9  BANK10  BANK11  BANK12  BANK13  BANK14  BANK15  BANK1
      +6  BANK17  BANK18  BANK19  BANK20  BANK21
  2177 ;;      Params:         0       0       0       0       0       0       0       0       0       0       0       0       
      +0       0       0       0       0       0
  2178 ;;      Locals:         0       0       0       0       0       0       0       0       0       0       0       0       
      +0       0       0       0       0       0
  2179 ;;      Temps:          0       0       0       0       0       0       0       0       0       0       0       0       
      +0       0       0       0       0       0
  2180 ;;      Totals:         0       0       0       0       0       0       0       0       0       0       0       0       
      +0       0       0       0       0       0
  2181 ;;Total ram usage:        0 bytes
  2182 ;; Hardware stack levels used: 1
  2183 ;; Hardware stack levels required when called: 5
  2184 ;; This function calls:
  2185 ;;		Nothing
  2186 ;; This function is called by:
  2187 ;;		_main
  2188 ;; This function uses a non-reentrant model
  2189 ;;
  2190                           
  2191                           	psect	text27
  2192  00054C                     __ptext27:
  2193                           	callstack 0
  2194  00054C                     _CMP1_Initialize:
  2195                           	callstack 122
  2196  00054C                     
  2197                           ;cmp1.c: 62:     CM1CON0 = 0x80;
  2198  00054C  0E80               	movlw	128
  2199  00054E  0100               	movlb	0	; () banked
  2200  000550  6F70               	movwf	112,b	;volatile
  2201                           
  2202                           ;cmp1.c: 65:     CM1CON1 = 0x00;
  2203  000552  0E00               	movlw	0
  2204  000554  6F71               	movwf	113,b	;volatile
  2205                           
  2206                           ;cmp1.c: 68:     CM1NCH = 0x00;
  2207  000556  0E00               	movlw	0
  2208  000558  6F72               	movwf	114,b	;volatile
  2209                           
  2210                           ;cmp1.c: 71:     CM1PCH = 0x00;
  2211  00055A  0E00               	movlw	0
  2212  00055C  6F73               	movwf	115,b	;volatile
  2213                           
  2214                           ;cmp1.c: 73:     RA2PPS = 0x19;
  2215  00055E  0E19               	movlw	25
  2216  000560  0102               	movlb	2	; () banked
  2217  000562  6F03               	movwf	3,b	;volatile
  2218  000564                     
  2219                           ; BSR set to: 2
  2220                           ;cmp1.c: 75:     ANSELAbits.ANSELA0 = 1;
  2221  000564  0104               	movlb	4	; () banked
  2222  000566  8100               	bsf	0,0,b	;volatile
  2223  000568                     
  2224                           ; BSR set to: 4
  2225                           ;cmp1.c: 76:     ANSELAbits.ANSELA1 = 1;
  2226  000568  8300               	bsf	0,1,b	;volatile
  2227  00056A                     
  2228                           ; BSR set to: 4
  2229                           ;cmp1.c: 77:     ANSELAbits.ANSELA2 = 1;
  2230  00056A  8500               	bsf	0,2,b	;volatile
  2231  00056C                     
  2232                           ; BSR set to: 4
  2233                           ;cmp1.c: 79:     TRISAbits.TRISA0 = 1;
  2234  00056C  80C6               	bsf	198,0,c	;volatile
  2235  00056E                     
  2236                           ; BSR set to: 4
  2237                           ;cmp1.c: 80:     TRISAbits.TRISA1 = 1;
  2238  00056E  82C6               	bsf	198,1,c	;volatile
  2239  000570                     
  2240                           ; BSR set to: 4
  2241                           ;cmp1.c: 81:     TRISAbits.TRISA2 = 0;
  2242  000570  94C6               	bcf	198,2,c	;volatile
  2243  000572                     
  2244                           ; BSR set to: 4
  2245  000572  0012               	return		;funcret
  2246  000574                     __end_of_CMP1_Initialize:
  2247                           	callstack 0
  2248                           
  2249 ;; *************** function _I2C1_ISR *****************
  2250 ;; Defined at:
  2251 ;;		line 527 in file "i2c1.c"
  2252 ;; Parameters:    Size  Location     Type
  2253 ;;		None
  2254 ;; Auto vars:     Size  Location     Type
  2255 ;;		None
  2256 ;; Return value:  Size  Location     Type
  2257 ;;                  1    wreg      void 
  2258 ;; Registers used:
  2259 ;;		wreg, fsr2l, fsr2h, status,2, status,0, pcl, pclath, pclatu, tosl, cstack
  2260 ;; Tracked objects:
  2261 ;;		On entry : 0/0
  2262 ;;		On exit  : 0/0
  2263 ;;		Unchanged: 0/0
  2264 ;; Data sizes:     COMRAM   BANK5   BANK6   BANK7   BANK8   BANK9  BANK10  BANK11  BANK12  BANK13  BANK14  BANK15  BANK1
      +6  BANK17  BANK18  BANK19  BANK20  BANK21
  2265 ;;      Params:         0       0       0       0       0       0       0       0       0       0       0       0       
      +0       0       0       0       0       0
  2266 ;;      Locals:         0       0       0       0       0       0       0       0       0       0       0       0       
      +0       0       0       0       0       0
  2267 ;;      Temps:          2       0       0       0       0       0       0       0       0       0       0       0       
      +0       0       0       0       0       0
  2268 ;;      Totals:         2       0       0       0       0       0       0       0       0       0       0       0       
      +0       0       0       0       0       0
  2269 ;;Total ram usage:        2 bytes
  2270 ;; Hardware stack levels used: 1
  2271 ;; Hardware stack levels required when called: 4
  2272 ;; This function calls:
  2273 ;;		_I2C1_Isr
  2274 ;; This function is called by:
  2275 ;;		Interrupt level 2
  2276 ;; This function uses a non-reentrant model
  2277 ;;
  2278                           
  2279                           	psect	text28
  2280  000594                     __ptext28:
  2281                           	callstack 0
  2282  000594                     _I2C1_ISR:
  2283                           	callstack 120
  2284                           
  2285                           ; BSR set to: 4
  2286                           ;incstack = 0
  2287  000594  0061 F3E8  F51D    	movff	pclath,??_I2C1_ISR
  2288  00059A  0061 F3EC  F51E    	movff	pclatu,??_I2C1_ISR+1
  2289  0005A0                     
  2290                           ;i2c1.c: 529:     I2C1_Isr();
  2291  0005A0  EC5F  F000         	call	_I2C1_Isr	;wreg free
  2292  0005A4  0061  F478  F4FB   	movff	??_I2C1_ISR+1,pclatu
  2293  0005AA  0061  F474  F4FA   	movff	??_I2C1_ISR,pclath
  2294  0005B0  0011               	retfie		f
  2295  0005B2                     __end_of_I2C1_ISR:
  2296                           	callstack 0
  2297                           
  2298 ;; *************** function _I2C1_Isr *****************
  2299 ;; Defined at:
  2300 ;;		line 205 in file "i2c1.c"
  2301 ;; Parameters:    Size  Location     Type
  2302 ;;		None
  2303 ;; Auto vars:     Size  Location     Type
  2304 ;;		None
  2305 ;; Return value:  Size  Location     Type
  2306 ;;                  1    wreg      void 
  2307 ;; Registers used:
  2308 ;;		wreg, fsr2l, fsr2h, status,2, status,0, pcl, pclath, pclatu, tosl, cstack
  2309 ;; Tracked objects:
  2310 ;;		On entry : 0/0
  2311 ;;		On exit  : 0/0
  2312 ;;		Unchanged: 0/0
  2313 ;; Data sizes:     COMRAM   BANK5   BANK6   BANK7   BANK8   BANK9  BANK10  BANK11  BANK12  BANK13  BANK14  BANK15  BANK1
      +6  BANK17  BANK18  BANK19  BANK20  BANK21
  2314 ;;      Params:         0       0       0       0       0       0       0       0       0       0       0       0       
      +0       0       0       0       0       0
  2315 ;;      Locals:         0       0       0       0       0       0       0       0       0       0       0       0       
      +0       0       0       0       0       0
  2316 ;;      Temps:          2       0       0       0       0       0       0       0       0       0       0       0       
      +0       0       0       0       0       0
  2317 ;;      Totals:         2       0       0       0       0       0       0       0       0       0       0       0       
      +0       0       0       0       0       0
  2318 ;;Total ram usage:        2 bytes
  2319 ;; Hardware stack levels used: 1
  2320 ;; Hardware stack levels required when called: 3
  2321 ;; This function calls:
  2322 ;;		_I2C1_SlaveAddrCallBack
  2323 ;;		_I2C1_SlaveClearBuff
  2324 ;;		_I2C1_SlaveClearIrq
  2325 ;;		_I2C1_SlaveIsAddr
  2326 ;;		_I2C1_SlaveIsRead
  2327 ;;		_I2C1_SlaveIsRxBufFull
  2328 ;;		_I2C1_SlaveIsStop
  2329 ;;		_I2C1_SlaveIsTxBufEmpty
  2330 ;;		_I2C1_SlaveRdCallBack
  2331 ;;		_I2C1_SlaveReleaseClock
  2332 ;;		_I2C1_SlaveSetCounter
  2333 ;;		_I2C1_SlaveWrCallBack
  2334 ;; This function is called by:
  2335 ;;		_I2C1_Open
  2336 ;;		_I2C1_ISR
  2337 ;; This function uses a non-reentrant model
  2338 ;;
  2339                           
  2340                           	psect	text29
  2341  0000BE                     __ptext29:
  2342                           	callstack 0
  2343  0000BE                     _I2C1_Isr:
  2344                           	callstack 120
  2345  0000BE                     
  2346                           ;i2c1.c: 207:     if(I2C1_SlaveIsStop())
  2347  0000BE  ECF1  F002         	call	_I2C1_SlaveIsStop	;wreg free
  2348  0000C2  0900               	iorlw	0
  2349  0000C4  B4D8               	btfsc	status,2,c
  2350  0000C6  EF67  F000         	goto	i2u26_41
  2351  0000CA  EF69  F000         	goto	i2u26_40
  2352  0000CE                     i2u26_41:
  2353  0000CE  EF78  F000         	goto	i2l1527
  2354  0000D2                     i2u26_40:
  2355  0000D2                     
  2356                           ;i2c1.c: 208:     {;i2c1.c: 209:         I2C1_SlaveClearIrq();
  2357  0000D2  EC9B  F003         	call	_I2C1_SlaveClearIrq	;wreg free
  2358  0000D6                     
  2359                           ;i2c1.c: 210:         I2C1_SlaveClearBuff();
  2360  0000D6  ECAD  F003         	call	_I2C1_SlaveClearBuff	;wreg free
  2361  0000DA                     
  2362                           ;i2c1.c: 211:         I2C1_SlaveSetCounter(0xFF);
  2363  0000DA  0EFF               	movlw	255
  2364  0000DC  EC4C  F003         	call	_I2C1_SlaveSetCounter
  2365                           
  2366                           ;i2c1.c: 212:         I2C1_SlaveReleaseClock();
  2367  0000E0  ECA7  F003         	call	_I2C1_SlaveReleaseClock	;wreg free
  2368  0000E4                     
  2369                           ;i2c1.c: 213:         i2c1SlaveState = I2C1_IDLE;
  2370  0000E4  0E00               	movlw	0
  2371  0000E6  6E16               	movwf	_i2c1SlaveState^(0+1280),c	;volatile
  2372  0000E8                     
  2373                           ;i2c1.c: 216:         Ji2c_state = 0;
  2374  0000E8  0E00               	movlw	0
  2375  0000EA  6E15               	movwf	_Ji2c_state^(0+1280),c	;volatile
  2376                           
  2377                           ;i2c1.c: 217:     }
  2378  0000EC  EFF9  F000         	goto	i2l253
  2379  0000F0                     i2l1527:
  2380                           
  2381                           ;i2c1.c: 219:     {;i2c1.c: 220:         I2C1_SlaveClearIrq();
  2382  0000F0  EC9B  F003         	call	_I2C1_SlaveClearIrq	;wreg free
  2383                           
  2384                           ;i2c1.c: 221:         if(I2C1_SlaveIsAddr())
  2385  0000F4  EC12  F003         	call	_I2C1_SlaveIsAddr	;wreg free
  2386  0000F8  0900               	iorlw	0
  2387  0000FA  B4D8               	btfsc	status,2,c
  2388  0000FC  EF82  F000         	goto	i2u27_41
  2389  000100  EF84  F000         	goto	i2u27_40
  2390  000104                     i2u27_41:
  2391  000104  EF96  F000         	goto	i2l1535
  2392  000108                     i2u27_40:
  2393  000108                     
  2394                           ;i2c1.c: 222:         {;i2c1.c: 223:             if(I2C1_SlaveIsRead())
  2395  000108  EC07  F003         	call	_I2C1_SlaveIsRead	;wreg free
  2396  00010C  0900               	iorlw	0
  2397  00010E  B4D8               	btfsc	status,2,c
  2398  000110  EF8C  F000         	goto	i2u28_41
  2399  000114  EF8E  F000         	goto	i2u28_40
  2400  000118                     i2u28_41:
  2401  000118  EF92  F000         	goto	i2l1533
  2402  00011C                     i2u28_40:
  2403  00011C                     
  2404                           ;i2c1.c: 224:             {;i2c1.c: 225:                 i2c1SlaveState = I2C1_ADDR_TX;
  2405  00011C  0E01               	movlw	1
  2406  00011E  6E16               	movwf	_i2c1SlaveState^(0+1280),c	;volatile
  2407                           
  2408                           ;i2c1.c: 226:             }
  2409  000120  EFDA  F000         	goto	i2l1563
  2410  000124                     i2l1533:
  2411                           
  2412                           ;i2c1.c: 228:             {;i2c1.c: 229:                 i2c1SlaveState = I2C1_ADDR_RX;
  2413  000124  0E02               	movlw	2
  2414  000126  6E16               	movwf	_i2c1SlaveState^(0+1280),c	;volatile
  2415  000128  EFDA  F000         	goto	i2l1563
  2416  00012C                     i2l1535:
  2417                           
  2418                           ;i2c1.c: 233:         {;i2c1.c: 234:             if(I2C1_SlaveIsRead())
  2419  00012C  EC07  F003         	call	_I2C1_SlaveIsRead	;wreg free
  2420  000130  0900               	iorlw	0
  2421  000132  B4D8               	btfsc	status,2,c
  2422  000134  EF9E  F000         	goto	i2u29_41
  2423  000138  EFA0  F000         	goto	i2u29_40
  2424  00013C                     i2u29_41:
  2425  00013C  EFA4  F000         	goto	i2l1539
  2426  000140                     i2u29_40:
  2427  000140                     
  2428                           ;i2c1.c: 235:             {;i2c1.c: 236:                 i2c1SlaveState = I2C1_DATA_TX;
  2429  000140  0E03               	movlw	3
  2430  000142  6E16               	movwf	_i2c1SlaveState^(0+1280),c	;volatile
  2431                           
  2432                           ;i2c1.c: 237:             }
  2433  000144  EFDA  F000         	goto	i2l1563
  2434  000148                     i2l1539:
  2435                           
  2436                           ;i2c1.c: 239:             {;i2c1.c: 240:                 i2c1SlaveState = I2C1_DATA_RX;
  2437  000148  0E04               	movlw	4
  2438  00014A  6E16               	movwf	_i2c1SlaveState^(0+1280),c	;volatile
  2439  00014C  EFDA  F000         	goto	i2l1563
  2440  000150                     i2l1541:
  2441                           
  2442                           ;i2c1.c: 247:                 I2C1_SlaveAddrCallBack();
  2443  000150  EC8F  F002         	call	_I2C1_SlaveAddrCallBack	;wreg free
  2444  000154                     
  2445                           ;i2c1.c: 248:                 I2C1_SlaveClearBuff();
  2446  000154  ECAD  F003         	call	_I2C1_SlaveClearBuff	;wreg free
  2447  000158                     
  2448                           ;i2c1.c: 249:                 if(I2C1_SlaveIsTxBufEmpty())
  2449  000158  ECE6  F002         	call	_I2C1_SlaveIsTxBufEmpty	;wreg free
  2450  00015C  0900               	iorlw	0
  2451  00015E  B4D8               	btfsc	status,2,c
  2452  000160  EFB4  F000         	goto	i2u30_41
  2453  000164  EFB6  F000         	goto	i2u30_40
  2454  000168                     i2u30_41:
  2455  000168  EFF7  F000         	goto	i2l1565
  2456  00016C                     i2u30_40:
  2457  00016C                     i2l1547:
  2458                           
  2459                           ;i2c1.c: 250:                 {;i2c1.c: 251:                     I2C1_SlaveWrCallBack();
  2460  00016C  EC61  F002         	call	_I2C1_SlaveWrCallBack	;wreg free
  2461  000170  EFF7  F000         	goto	i2l1565
  2462  000174                     i2l1549:
  2463                           
  2464                           ;i2c1.c: 255:                 I2C1_SlaveAddrCallBack();
  2465  000174  EC8F  F002         	call	_I2C1_SlaveAddrCallBack	;wreg free
  2466  000178                     
  2467                           ;i2c1.c: 256:                 I2C1_SlaveClearBuff();
  2468  000178  ECAD  F003         	call	_I2C1_SlaveClearBuff	;wreg free
  2469                           
  2470                           ;i2c1.c: 257:                 break;
  2471  00017C  EFF7  F000         	goto	i2l1565
  2472  000180                     i2l1553:
  2473                           
  2474                           ;i2c1.c: 259:                 if(I2C1_SlaveIsTxBufEmpty())
  2475  000180  ECE6  F002         	call	_I2C1_SlaveIsTxBufEmpty	;wreg free
  2476  000184  0900               	iorlw	0
  2477  000186  B4D8               	btfsc	status,2,c
  2478  000188  EFC8  F000         	goto	i2u31_41
  2479  00018C  EFCA  F000         	goto	i2u31_40
  2480  000190                     i2u31_41:
  2481  000190  EFF7  F000         	goto	i2l1565
  2482  000194                     i2u31_40:
  2483  000194  EFB6  F000         	goto	i2l1547
  2484  000198                     i2l1557:
  2485                           
  2486                           ;i2c1.c: 265:                 if(I2C1_SlaveIsRxBufFull())
  2487  000198  ECFC  F002         	call	_I2C1_SlaveIsRxBufFull	;wreg free
  2488  00019C  0900               	iorlw	0
  2489  00019E  B4D8               	btfsc	status,2,c
  2490  0001A0  EFD4  F000         	goto	i2u32_41
  2491  0001A4  EFD6  F000         	goto	i2u32_40
  2492  0001A8                     i2u32_41:
  2493  0001A8  EFF7  F000         	goto	i2l1565
  2494  0001AC                     i2u32_40:
  2495  0001AC                     
  2496                           ;i2c1.c: 266:                 {;i2c1.c: 267:                     I2C1_SlaveRdCallBack();
  2497  0001AC  EC78  F002         	call	_I2C1_SlaveRdCallBack	;wreg free
  2498  0001B0  EFF7  F000         	goto	i2l1565
  2499  0001B4                     i2l1563:
  2500  0001B4  5016               	movf	_i2c1SlaveState^(0+1280),w,c	;volatile
  2501  0001B6  6E1B               	movwf	??_I2C1_Isr^(0+1280),c
  2502  0001B8  6A1C               	clrf	(??_I2C1_Isr+1)^(0+1280),c
  2503                           
  2504                           ; Switch on 2 bytes has been partitioned into a top level switch of size 1, and 1 sub-sw
      +                          itches
  2505                           ; Switch size 1, requested type "simple"
  2506                           ; Number of cases is 1, Range of values is 0 to 0
  2507                           ; switch strategies available:
  2508                           ; Name         Instructions Cycles
  2509                           ; simple_byte            4     3 (average)
  2510                           ;	Chosen strategy is simple_byte
  2511  0001BA  501C               	movf	(??_I2C1_Isr+1)^(0+1280),w,c
  2512  0001BC  0A00               	xorlw	0	; case 0
  2513  0001BE  B4D8               	btfsc	status,2,c
  2514  0001C0  EFE4  F000         	goto	i2l1845
  2515  0001C4  EFF7  F000         	goto	i2l1565
  2516  0001C8                     i2l1845:
  2517                           
  2518                           ; Switch size 1, requested type "simple"
  2519                           ; Number of cases is 4, Range of values is 1 to 4
  2520                           ; switch strategies available:
  2521                           ; Name         Instructions Cycles
  2522                           ; simple_byte           13     7 (average)
  2523                           ;	Chosen strategy is simple_byte
  2524  0001C8  501B               	movf	??_I2C1_Isr^(0+1280),w,c
  2525  0001CA  0A01               	xorlw	1	; case 1
  2526  0001CC  B4D8               	btfsc	status,2,c
  2527  0001CE  EFA8  F000         	goto	i2l1541
  2528  0001D2  0A03               	xorlw	3	; case 2
  2529  0001D4  B4D8               	btfsc	status,2,c
  2530  0001D6  EFBA  F000         	goto	i2l1549
  2531  0001DA  0A01               	xorlw	1	; case 3
  2532  0001DC  B4D8               	btfsc	status,2,c
  2533  0001DE  EFC0  F000         	goto	i2l1553
  2534  0001E2  0A07               	xorlw	7	; case 4
  2535  0001E4  B4D8               	btfsc	status,2,c
  2536  0001E6  EFCC  F000         	goto	i2l1557
  2537  0001EA  EFF7  F000         	goto	i2l1565
  2538  0001EE                     i2l1565:
  2539                           
  2540                           ;i2c1.c: 273:         I2C1_SlaveReleaseClock();
  2541  0001EE  ECA7  F003         	call	_I2C1_SlaveReleaseClock	;wreg free
  2542  0001F2                     i2l253:
  2543  0001F2  0012               	return		;funcret
  2544  0001F4                     __end_of_I2C1_Isr:
  2545                           	callstack 0
  2546                           
  2547 ;; *************** function _I2C1_SlaveWrCallBack *****************
  2548 ;; Defined at:
  2549 ;;		line 321 in file "i2c1.c"
  2550 ;; Parameters:    Size  Location     Type
  2551 ;;		None
  2552 ;; Auto vars:     Size  Location     Type
  2553 ;;		None
  2554 ;; Return value:  Size  Location     Type
  2555 ;;                  1    wreg      void 
  2556 ;; Registers used:
  2557 ;;		wreg, fsr2l, fsr2h, status,2, status,0, pcl, pclath, pclatu, tosl, cstack
  2558 ;; Tracked objects:
  2559 ;;		On entry : 0/0
  2560 ;;		On exit  : 0/0
  2561 ;;		Unchanged: 0/0
  2562 ;; Data sizes:     COMRAM   BANK5   BANK6   BANK7   BANK8   BANK9  BANK10  BANK11  BANK12  BANK13  BANK14  BANK15  BANK1
      +6  BANK17  BANK18  BANK19  BANK20  BANK21
  2563 ;;      Params:         0       0       0       0       0       0       0       0       0       0       0       0       
      +0       0       0       0       0       0
  2564 ;;      Locals:         0       0       0       0       0       0       0       0       0       0       0       0       
      +0       0       0       0       0       0
  2565 ;;      Temps:          0       0       0       0       0       0       0       0       0       0       0       0       
      +0       0       0       0       0       0
  2566 ;;      Totals:         0       0       0       0       0       0       0       0       0       0       0       0       
      +0       0       0       0       0       0
  2567 ;;Total ram usage:        0 bytes
  2568 ;; Hardware stack levels used: 1
  2569 ;; Hardware stack levels required when called: 2
  2570 ;; This function calls:
  2571 ;;		Absolute function
  2572 ;;		_I2C1_SlaveDefWrInterruptHandler
  2573 ;; This function is called by:
  2574 ;;		_I2C1_Isr
  2575 ;; This function uses a non-reentrant model
  2576 ;;
  2577                           
  2578                           	psect	text30
  2579  0004C2                     __ptext30:
  2580                           	callstack 0
  2581  0004C2                     _I2C1_SlaveWrCallBack:
  2582                           	callstack 120
  2583  0004C2                     
  2584                           ;i2c1.c: 323:     if (I2C1_SlaveWrInterruptHandler)
  2585  0004C2  500D               	movf	_I2C1_SlaveWrInterruptHandler^(0+1280),w,c
  2586  0004C4  100E               	iorwf	(_I2C1_SlaveWrInterruptHandler+1)^(0+1280),w,c
  2587  0004C6  B4D8               	btfsc	status,2,c
  2588  0004C8  EF68  F002         	goto	i2u10_41
  2589  0004CC  EF6A  F002         	goto	i2u10_40
  2590  0004D0                     i2u10_41:
  2591  0004D0  EF77  F002         	goto	i2l275
  2592  0004D4                     i2u10_40:
  2593  0004D4                     
  2594                           ;i2c1.c: 324:     {;i2c1.c: 325:         I2C1_SlaveWrInterruptHandler();
  2595  0004D4  D802               	call	i2u11_48
  2596  0004D6  EF77  F002         	goto	i2u11_49
  2597  0004DA                     i2u11_48:
  2598  0004DA  0005               	push	
  2599  0004DC  6EFA               	movwf	pclath,c
  2600  0004DE  500D               	movf	_I2C1_SlaveWrInterruptHandler^(0+1280),w,c
  2601  0004E0  6EFD               	movwf	tosl,c
  2602  0004E2  500E               	movf	(_I2C1_SlaveWrInterruptHandler+1)^(0+1280),w,c
  2603  0004E4  6EFE               	movwf	tosh,c
  2604  0004E6  50F8               	movf	tblptru,w,c
  2605  0004E8  6EFF               	movwf	tosu,c
  2606  0004EA  50FA               	movf	pclath,w,c
  2607  0004EC  0012               	return		;indir
  2608  0004EE                     i2u11_49:
  2609  0004EE                     i2l275:
  2610  0004EE  0012               	return		;funcret
  2611  0004F0                     __end_of_I2C1_SlaveWrCallBack:
  2612                           	callstack 0
  2613                           
  2614 ;; *************** function _I2C1_SlaveDefWrInterruptHandler *****************
  2615 ;; Defined at:
  2616 ;;		line 329 in file "i2c1.c"
  2617 ;; Parameters:    Size  Location     Type
  2618 ;;		None
  2619 ;; Auto vars:     Size  Location     Type
  2620 ;;		None
  2621 ;; Return value:  Size  Location     Type
  2622 ;;                  1    wreg      void 
  2623 ;; Registers used:
  2624 ;;		wreg, fsr2l, fsr2h, status,2, status,0, cstack
  2625 ;; Tracked objects:
  2626 ;;		On entry : 0/0
  2627 ;;		On exit  : 0/0
  2628 ;;		Unchanged: 0/0
  2629 ;; Data sizes:     COMRAM   BANK5   BANK6   BANK7   BANK8   BANK9  BANK10  BANK11  BANK12  BANK13  BANK14  BANK15  BANK1
      +6  BANK17  BANK18  BANK19  BANK20  BANK21
  2630 ;;      Params:         0       0       0       0       0       0       0       0       0       0       0       0       
      +0       0       0       0       0       0
  2631 ;;      Locals:         0       0       0       0       0       0       0       0       0       0       0       0       
      +0       0       0       0       0       0
  2632 ;;      Temps:          0       0       0       0       0       0       0       0       0       0       0       0       
      +0       0       0       0       0       0
  2633 ;;      Totals:         0       0       0       0       0       0       0       0       0       0       0       0       
      +0       0       0       0       0       0
  2634 ;;Total ram usage:        0 bytes
  2635 ;; Hardware stack levels used: 1
  2636 ;; Hardware stack levels required when called: 1
  2637 ;; This function calls:
  2638 ;;		_I2C1_SlaveSendTxData
  2639 ;; This function is called by:
  2640 ;;		_I2C1_Open
  2641 ;;		_I2C1_SlaveWrCallBack
  2642 ;; This function uses a non-reentrant model
  2643 ;;
  2644                           
  2645                           	psect	text31
  2646  00064E                     __ptext31:
  2647                           	callstack 0
  2648  00064E                     _I2C1_SlaveDefWrInterruptHandler:
  2649                           	callstack 120
  2650  00064E                     
  2651                           ;i2c1.c: 334:     I2C1_SlaveSendTxData(Ji2c_registers[Jaccess_reg]);
  2652  00064E  0E60               	movlw	low _Ji2c_registers
  2653  000650  2414               	addwf	_Jaccess_reg^(0+1280),w,c	;volatile
  2654  000652  6ED9               	movwf	fsr2l,c
  2655  000654  6ADA               	clrf	fsr2h,c
  2656  000656  0E05               	movlw	high _Ji2c_registers
  2657  000658  22DA               	addwfc	fsr2h,f,c
  2658  00065A  50DF               	movf	indf2,w,c
  2659  00065C  EC96  F003         	call	_I2C1_SlaveSendTxData
  2660  000660  0012               	return		;funcret
  2661  000662                     __end_of_I2C1_SlaveDefWrInterruptHandler:
  2662                           	callstack 0
  2663                           
  2664 ;; *************** function _I2C1_SlaveSendTxData *****************
  2665 ;; Defined at:
  2666 ;;		line 491 in file "i2c1.c"
  2667 ;; Parameters:    Size  Location     Type
  2668 ;;  data            1    wreg     unsigned char 
  2669 ;; Auto vars:     Size  Location     Type
  2670 ;;  data            1    0[COMRAM] unsigned char 
  2671 ;; Return value:  Size  Location     Type
  2672 ;;                  1    wreg      void 
  2673 ;; Registers used:
  2674 ;;		wreg
  2675 ;; Tracked objects:
  2676 ;;		On entry : 0/0
  2677 ;;		On exit  : 0/0
  2678 ;;		Unchanged: 0/0
  2679 ;; Data sizes:     COMRAM   BANK5   BANK6   BANK7   BANK8   BANK9  BANK10  BANK11  BANK12  BANK13  BANK14  BANK15  BANK1
      +6  BANK17  BANK18  BANK19  BANK20  BANK21
  2680 ;;      Params:         0       0       0       0       0       0       0       0       0       0       0       0       
      +0       0       0       0       0       0
  2681 ;;      Locals:         1       0       0       0       0       0       0       0       0       0       0       0       
      +0       0       0       0       0       0
  2682 ;;      Temps:          0       0       0       0       0       0       0       0       0       0       0       0       
      +0       0       0       0       0       0
  2683 ;;      Totals:         1       0       0       0       0       0       0       0       0       0       0       0       
      +0       0       0       0       0       0
  2684 ;;Total ram usage:        1 bytes
  2685 ;; Hardware stack levels used: 1
  2686 ;; This function calls:
  2687 ;;		Nothing
  2688 ;; This function is called by:
  2689 ;;		_I2C1_SlaveDefWrInterruptHandler
  2690 ;;		_I2C1_Write
  2691 ;; This function uses a non-reentrant model
  2692 ;;
  2693                           
  2694                           	psect	text32
  2695  00072C                     __ptext32:
  2696                           	callstack 0
  2697  00072C                     _I2C1_SlaveSendTxData:
  2698                           	callstack 120
  2699                           
  2700                           ;incstack = 0
  2701                           ;I2C1_SlaveSendTxData@data stored from wreg
  2702  00072C  6E1A               	movwf	I2C1_SlaveSendTxData@data^(0+1280),c
  2703  00072E                     
  2704                           ;i2c1.c: 491: static __attribute__((inline)) void I2C1_SlaveSendTxData(uint8_t data);i2c
      +                          1.c: 492: {;i2c1.c: 493:     I2C1TXB = data;
  2705  00072E  0061  F468  F28B   	movff	I2C1_SlaveSendTxData@data,651	;volatile
  2706  000734  0012               	return		;funcret
  2707  000736                     __end_of_I2C1_SlaveSendTxData:
  2708                           	callstack 0
  2709                           
  2710 ;; *************** function _I2C1_SlaveSetCounter *****************
  2711 ;; Defined at:
  2712 ;;		line 460 in file "i2c1.c"
  2713 ;; Parameters:    Size  Location     Type
  2714 ;;  counter         1    wreg     unsigned char 
  2715 ;; Auto vars:     Size  Location     Type
  2716 ;;  counter         1    0[COMRAM] unsigned char 
  2717 ;; Return value:  Size  Location     Type
  2718 ;;                  1    wreg      void 
  2719 ;; Registers used:
  2720 ;;		wreg, status,2
  2721 ;; Tracked objects:
  2722 ;;		On entry : 0/0
  2723 ;;		On exit  : 0/0
  2724 ;;		Unchanged: 0/0
  2725 ;; Data sizes:     COMRAM   BANK5   BANK6   BANK7   BANK8   BANK9  BANK10  BANK11  BANK12  BANK13  BANK14  BANK15  BANK1
      +6  BANK17  BANK18  BANK19  BANK20  BANK21
  2726 ;;      Params:         0       0       0       0       0       0       0       0       0       0       0       0       
      +0       0       0       0       0       0
  2727 ;;      Locals:         1       0       0       0       0       0       0       0       0       0       0       0       
      +0       0       0       0       0       0
  2728 ;;      Temps:          0       0       0       0       0       0       0       0       0       0       0       0       
      +0       0       0       0       0       0
  2729 ;;      Totals:         1       0       0       0       0       0       0       0       0       0       0       0       
      +0       0       0       0       0       0
  2730 ;;Total ram usage:        1 bytes
  2731 ;; Hardware stack levels used: 1
  2732 ;; This function calls:
  2733 ;;		Nothing
  2734 ;; This function is called by:
  2735 ;;		_I2C1_Isr
  2736 ;; This function uses a non-reentrant model
  2737 ;;
  2738                           
  2739                           	psect	text33
  2740  000698                     __ptext33:
  2741                           	callstack 0
  2742  000698                     _I2C1_SlaveSetCounter:
  2743                           	callstack 122
  2744                           
  2745                           ;incstack = 0
  2746                           ;I2C1_SlaveSetCounter@counter stored from wreg
  2747  000698  6E1A               	movwf	I2C1_SlaveSetCounter@counter^(0+1280),c
  2748  00069A                     
  2749                           ;i2c1.c: 460: static __attribute__((inline)) void I2C1_SlaveSetCounter(uint8_t counter);
      +                          i2c1.c: 461: {;i2c1.c: 462:     I2C1CNTL = counter;
  2750  00069A  0061  F468  F28C   	movff	I2C1_SlaveSetCounter@counter,652	;volatile
  2751  0006A0                     
  2752                           ;i2c1.c: 463:     I2C1CNTH = 0x00;
  2753  0006A0  0E00               	movlw	0
  2754  0006A2  0102               	movlb	2	; () banked
  2755  0006A4  6F8D               	movwf	141,b	;volatile
  2756  0006A6                     
  2757                           ; BSR set to: 2
  2758  0006A6  0012               	return		;funcret
  2759  0006A8                     __end_of_I2C1_SlaveSetCounter:
  2760                           	callstack 0
  2761                           
  2762 ;; *************** function _I2C1_SlaveReleaseClock *****************
  2763 ;; Defined at:
  2764 ;;		line 466 in file "i2c1.c"
  2765 ;; Parameters:    Size  Location     Type
  2766 ;;		None
  2767 ;; Auto vars:     Size  Location     Type
  2768 ;;		None
  2769 ;; Return value:  Size  Location     Type
  2770 ;;                  1    wreg      void 
  2771 ;; Registers used:
  2772 ;;		None
  2773 ;; Tracked objects:
  2774 ;;		On entry : 0/0
  2775 ;;		On exit  : 0/0
  2776 ;;		Unchanged: 0/0
  2777 ;; Data sizes:     COMRAM   BANK5   BANK6   BANK7   BANK8   BANK9  BANK10  BANK11  BANK12  BANK13  BANK14  BANK15  BANK1
      +6  BANK17  BANK18  BANK19  BANK20  BANK21
  2778 ;;      Params:         0       0       0       0       0       0       0       0       0       0       0       0       
      +0       0       0       0       0       0
  2779 ;;      Locals:         0       0       0       0       0       0       0       0       0       0       0       0       
      +0       0       0       0       0       0
  2780 ;;      Temps:          0       0       0       0       0       0       0       0       0       0       0       0       
      +0       0       0       0       0       0
  2781 ;;      Totals:         0       0       0       0       0       0       0       0       0       0       0       0       
      +0       0       0       0       0       0
  2782 ;;Total ram usage:        0 bytes
  2783 ;; Hardware stack levels used: 1
  2784 ;; This function calls:
  2785 ;;		Nothing
  2786 ;; This function is called by:
  2787 ;;		_I2C1_Isr
  2788 ;; This function uses a non-reentrant model
  2789 ;;
  2790                           
  2791                           	psect	text34
  2792  00074E                     __ptext34:
  2793                           	callstack 0
  2794  00074E                     _I2C1_SlaveReleaseClock:
  2795                           	callstack 122
  2796  00074E                     
  2797                           ;i2c1.c: 468:     I2C1CON0bits.CSTR = 0;
  2798  00074E  0102               	movlb	2	; () banked
  2799  000750  9994               	bcf	148,4,b	;volatile
  2800  000752                     
  2801                           ; BSR set to: 2
  2802  000752  0012               	return		;funcret
  2803  000754                     __end_of_I2C1_SlaveReleaseClock:
  2804                           	callstack 0
  2805                           
  2806 ;; *************** function _I2C1_SlaveRdCallBack *****************
  2807 ;; Defined at:
  2808 ;;		line 288 in file "i2c1.c"
  2809 ;; Parameters:    Size  Location     Type
  2810 ;;		None
  2811 ;; Auto vars:     Size  Location     Type
  2812 ;;		None
  2813 ;; Return value:  Size  Location     Type
  2814 ;;                  1    wreg      void 
  2815 ;; Registers used:
  2816 ;;		wreg, fsr2l, fsr2h, status,2, status,0, pcl, pclath, pclatu, tosl, cstack
  2817 ;; Tracked objects:
  2818 ;;		On entry : 0/0
  2819 ;;		On exit  : 0/0
  2820 ;;		Unchanged: 0/0
  2821 ;; Data sizes:     COMRAM   BANK5   BANK6   BANK7   BANK8   BANK9  BANK10  BANK11  BANK12  BANK13  BANK14  BANK15  BANK1
      +6  BANK17  BANK18  BANK19  BANK20  BANK21
  2822 ;;      Params:         0       0       0       0       0       0       0       0       0       0       0       0       
      +0       0       0       0       0       0
  2823 ;;      Locals:         0       0       0       0       0       0       0       0       0       0       0       0       
      +0       0       0       0       0       0
  2824 ;;      Temps:          0       0       0       0       0       0       0       0       0       0       0       0       
      +0       0       0       0       0       0
  2825 ;;      Totals:         0       0       0       0       0       0       0       0       0       0       0       0       
      +0       0       0       0       0       0
  2826 ;;Total ram usage:        0 bytes
  2827 ;; Hardware stack levels used: 1
  2828 ;; Hardware stack levels required when called: 2
  2829 ;; This function calls:
  2830 ;;		Absolute function
  2831 ;;		_I2C1_SlaveDefRdInterruptHandler
  2832 ;; This function is called by:
  2833 ;;		_I2C1_Isr
  2834 ;; This function uses a non-reentrant model
  2835 ;;
  2836                           
  2837                           	psect	text35
  2838  0004F0                     __ptext35:
  2839                           	callstack 0
  2840  0004F0                     _I2C1_SlaveRdCallBack:
  2841                           	callstack 120
  2842  0004F0                     
  2843                           ;i2c1.c: 290:     if (I2C1_SlaveRdInterruptHandler)
  2844  0004F0  500F               	movf	_I2C1_SlaveRdInterruptHandler^(0+1280),w,c
  2845  0004F2  1010               	iorwf	(_I2C1_SlaveRdInterruptHandler+1)^(0+1280),w,c
  2846  0004F4  B4D8               	btfsc	status,2,c
  2847  0004F6  EF7F  F002         	goto	i2u13_41
  2848  0004FA  EF81  F002         	goto	i2u13_40
  2849  0004FE                     i2u13_41:
  2850  0004FE  EF8E  F002         	goto	i2l263
  2851  000502                     i2u13_40:
  2852  000502                     
  2853                           ;i2c1.c: 291:     {;i2c1.c: 292:         I2C1_SlaveRdInterruptHandler();
  2854  000502  D802               	call	i2u14_48
  2855  000504  EF8E  F002         	goto	i2u14_49
  2856  000508                     i2u14_48:
  2857  000508  0005               	push	
  2858  00050A  6EFA               	movwf	pclath,c
  2859  00050C  500F               	movf	_I2C1_SlaveRdInterruptHandler^(0+1280),w,c
  2860  00050E  6EFD               	movwf	tosl,c
  2861  000510  5010               	movf	(_I2C1_SlaveRdInterruptHandler+1)^(0+1280),w,c
  2862  000512  6EFE               	movwf	tosh,c
  2863  000514  50F8               	movf	tblptru,w,c
  2864  000516  6EFF               	movwf	tosu,c
  2865  000518  50FA               	movf	pclath,w,c
  2866  00051A  0012               	return		;indir
  2867  00051C                     i2u14_49:
  2868  00051C                     i2l263:
  2869  00051C  0012               	return		;funcret
  2870  00051E                     __end_of_I2C1_SlaveRdCallBack:
  2871                           	callstack 0
  2872                           
  2873 ;; *************** function _I2C1_SlaveDefRdInterruptHandler *****************
  2874 ;; Defined at:
  2875 ;;		line 296 in file "i2c1.c"
  2876 ;; Parameters:    Size  Location     Type
  2877 ;;		None
  2878 ;; Auto vars:     Size  Location     Type
  2879 ;;		None
  2880 ;; Return value:  Size  Location     Type
  2881 ;;                  1    wreg      void 
  2882 ;; Registers used:
  2883 ;;		wreg, fsr2l, fsr2h, status,2, status,0, cstack
  2884 ;; Tracked objects:
  2885 ;;		On entry : 0/0
  2886 ;;		On exit  : 0/0
  2887 ;;		Unchanged: 0/0
  2888 ;; Data sizes:     COMRAM   BANK5   BANK6   BANK7   BANK8   BANK9  BANK10  BANK11  BANK12  BANK13  BANK14  BANK15  BANK1
      +6  BANK17  BANK18  BANK19  BANK20  BANK21
  2889 ;;      Params:         0       0       0       0       0       0       0       0       0       0       0       0       
      +0       0       0       0       0       0
  2890 ;;      Locals:         0       0       0       0       0       0       0       0       0       0       0       0       
      +0       0       0       0       0       0
  2891 ;;      Temps:          0       0       0       0       0       0       0       0       0       0       0       0       
      +0       0       0       0       0       0
  2892 ;;      Totals:         0       0       0       0       0       0       0       0       0       0       0       0       
      +0       0       0       0       0       0
  2893 ;;Total ram usage:        0 bytes
  2894 ;; Hardware stack levels used: 1
  2895 ;; Hardware stack levels required when called: 1
  2896 ;; This function calls:
  2897 ;;		_I2C1_SlaveGetRxData
  2898 ;; This function is called by:
  2899 ;;		_I2C1_Open
  2900 ;;		_I2C1_SlaveRdCallBack
  2901 ;; This function uses a non-reentrant model
  2902 ;;
  2903                           
  2904                           	psect	text36
  2905  00045E                     __ptext36:
  2906                           	callstack 0
  2907  00045E                     _I2C1_SlaveDefRdInterruptHandler:
  2908                           	callstack 120
  2909  00045E                     
  2910                           ;i2c1.c: 298:     i2c1RdData = I2C1_SlaveGetRxData();
  2911  00045E  ECAA  F003         	call	_I2C1_SlaveGetRxData	;wreg free
  2912  000462  6E18               	movwf	_i2c1RdData^(0+1280),c	;volatile
  2913  000464                     
  2914                           ;i2c1.c: 301:     if (Ji2c_state == 0)
  2915  000464  5015               	movf	_Ji2c_state^(0+1280),w,c	;volatile
  2916  000466  A4D8               	btfss	status,2,c
  2917  000468  EF38  F002         	goto	i2u2_41
  2918  00046C  EF3A  F002         	goto	i2u2_40
  2919  000470                     i2u2_41:
  2920  000470  EF3E  F002         	goto	i2l1335
  2921  000474                     i2u2_40:
  2922  000474                     
  2923                           ;i2c1.c: 302:     {;i2c1.c: 303:         Jaccess_reg = i2c1RdData;
  2924  000474  C518  F514         	movff	_i2c1RdData,_Jaccess_reg	;volatile
  2925                           
  2926                           ;i2c1.c: 304:     }
  2927  000478  EF47  F002         	goto	i2l1337
  2928  00047C                     i2l1335:
  2929                           
  2930                           ;i2c1.c: 308:     {;i2c1.c: 309:         Ji2c_registers[Jaccess_reg] = i2c1RdData;
  2931  00047C  0E60               	movlw	low _Ji2c_registers
  2932  00047E  2414               	addwf	_Jaccess_reg^(0+1280),w,c	;volatile
  2933  000480  6ED9               	movwf	fsr2l,c
  2934  000482  6ADA               	clrf	fsr2h,c
  2935  000484  0E05               	movlw	high _Ji2c_registers
  2936  000486  22DA               	addwfc	fsr2h,f,c
  2937  000488  0061  F460  F4DF   	movff	_i2c1RdData,indf2	;volatile
  2938  00048E                     i2l1337:
  2939                           
  2940                           ;i2c1.c: 313:     Ji2c_state++;
  2941  00048E  2A15               	incf	_Ji2c_state^(0+1280),f,c	;volatile
  2942  000490  0012               	return		;funcret
  2943  000492                     __end_of_I2C1_SlaveDefRdInterruptHandler:
  2944                           	callstack 0
  2945                           
  2946 ;; *************** function _I2C1_SlaveGetRxData *****************
  2947 ;; Defined at:
  2948 ;;		line 496 in file "i2c1.c"
  2949 ;; Parameters:    Size  Location     Type
  2950 ;;		None
  2951 ;; Auto vars:     Size  Location     Type
  2952 ;;		None
  2953 ;; Return value:  Size  Location     Type
  2954 ;;                  1    wreg      unsigned char 
  2955 ;; Registers used:
  2956 ;;		wreg, status,2
  2957 ;; Tracked objects:
  2958 ;;		On entry : 0/0
  2959 ;;		On exit  : 0/0
  2960 ;;		Unchanged: 0/0
  2961 ;; Data sizes:     COMRAM   BANK5   BANK6   BANK7   BANK8   BANK9  BANK10  BANK11  BANK12  BANK13  BANK14  BANK15  BANK1
      +6  BANK17  BANK18  BANK19  BANK20  BANK21
  2962 ;;      Params:         0       0       0       0       0       0       0       0       0       0       0       0       
      +0       0       0       0       0       0
  2963 ;;      Locals:         0       0       0       0       0       0       0       0       0       0       0       0       
      +0       0       0       0       0       0
  2964 ;;      Temps:          0       0       0       0       0       0       0       0       0       0       0       0       
      +0       0       0       0       0       0
  2965 ;;      Totals:         0       0       0       0       0       0       0       0       0       0       0       0       
      +0       0       0       0       0       0
  2966 ;;Total ram usage:        0 bytes
  2967 ;; Hardware stack levels used: 1
  2968 ;; This function calls:
  2969 ;;		Nothing
  2970 ;; This function is called by:
  2971 ;;		_I2C1_SlaveDefRdInterruptHandler
  2972 ;;		_I2C1_Read
  2973 ;; This function uses a non-reentrant model
  2974 ;;
  2975                           
  2976                           	psect	text37
  2977  000754                     __ptext37:
  2978                           	callstack 0
  2979  000754                     _I2C1_SlaveGetRxData:
  2980                           	callstack 120
  2981  000754                     
  2982                           ;i2c1.c: 498:     return I2C1RXB;
  2983  000754  0102               	movlb	2	; () banked
  2984  000756  518A               	movf	138,w,b	;volatile
  2985  000758                     
  2986                           ; BSR set to: 2
  2987  000758  0012               	return		;funcret
  2988  00075A                     __end_of_I2C1_SlaveGetRxData:
  2989                           	callstack 0
  2990                           
  2991 ;; *************** function _I2C1_SlaveIsTxBufEmpty *****************
  2992 ;; Defined at:
  2993 ;;		line 476 in file "i2c1.c"
  2994 ;; Parameters:    Size  Location     Type
  2995 ;;		None
  2996 ;; Auto vars:     Size  Location     Type
  2997 ;;		None
  2998 ;; Return value:  Size  Location     Type
  2999 ;;                  1    wreg      _Bool 
  3000 ;; Registers used:
  3001 ;;		wreg
  3002 ;; Tracked objects:
  3003 ;;		On entry : 0/0
  3004 ;;		On exit  : 0/0
  3005 ;;		Unchanged: 0/0
  3006 ;; Data sizes:     COMRAM   BANK5   BANK6   BANK7   BANK8   BANK9  BANK10  BANK11  BANK12  BANK13  BANK14  BANK15  BANK1
      +6  BANK17  BANK18  BANK19  BANK20  BANK21
  3007 ;;      Params:         0       0       0       0       0       0       0       0       0       0       0       0       
      +0       0       0       0       0       0
  3008 ;;      Locals:         0       0       0       0       0       0       0       0       0       0       0       0       
      +0       0       0       0       0       0
  3009 ;;      Temps:          0       0       0       0       0       0       0       0       0       0       0       0       
      +0       0       0       0       0       0
  3010 ;;      Totals:         0       0       0       0       0       0       0       0       0       0       0       0       
      +0       0       0       0       0       0
  3011 ;;Total ram usage:        0 bytes
  3012 ;; Hardware stack levels used: 1
  3013 ;; This function calls:
  3014 ;;		Nothing
  3015 ;; This function is called by:
  3016 ;;		_I2C1_Isr
  3017 ;; This function uses a non-reentrant model
  3018 ;;
  3019                           
  3020                           	psect	text38
  3021  0005CC                     __ptext38:
  3022                           	callstack 0
  3023  0005CC                     _I2C1_SlaveIsTxBufEmpty:
  3024                           	callstack 122
  3025  0005CC                     
  3026                           ;i2c1.c: 478:     return I2C1STAT1bits.TXBE;
  3027  0005CC  0102               	movlb	2	; () banked
  3028  0005CE  BB99               	btfsc	153,5,b	;volatile
  3029  0005D0  EFEC  F002         	goto	i2u9_41
  3030  0005D4  EFEF  F002         	goto	i2u9_40
  3031  0005D8                     i2u9_41:
  3032  0005D8  0E01               	movlw	1
  3033  0005DA  EFF0  F002         	goto	i2u9_46
  3034  0005DE                     i2u9_40:
  3035  0005DE  0E00               	movlw	0
  3036  0005E0                     i2u9_46:
  3037  0005E0                     
  3038                           ; BSR set to: 2
  3039  0005E0  0012               	return		;funcret
  3040  0005E2                     __end_of_I2C1_SlaveIsTxBufEmpty:
  3041                           	callstack 0
  3042                           
  3043 ;; *************** function _I2C1_SlaveIsStop *****************
  3044 ;; Defined at:
  3045 ;;		line 445 in file "i2c1.c"
  3046 ;; Parameters:    Size  Location     Type
  3047 ;;		None
  3048 ;; Auto vars:     Size  Location     Type
  3049 ;;		None
  3050 ;; Return value:  Size  Location     Type
  3051 ;;                  1    wreg      _Bool 
  3052 ;; Registers used:
  3053 ;;		wreg
  3054 ;; Tracked objects:
  3055 ;;		On entry : 0/0
  3056 ;;		On exit  : 0/0
  3057 ;;		Unchanged: 0/0
  3058 ;; Data sizes:     COMRAM   BANK5   BANK6   BANK7   BANK8   BANK9  BANK10  BANK11  BANK12  BANK13  BANK14  BANK15  BANK1
      +6  BANK17  BANK18  BANK19  BANK20  BANK21
  3059 ;;      Params:         0       0       0       0       0       0       0       0       0       0       0       0       
      +0       0       0       0       0       0
  3060 ;;      Locals:         0       0       0       0       0       0       0       0       0       0       0       0       
      +0       0       0       0       0       0
  3061 ;;      Temps:          0       0       0       0       0       0       0       0       0       0       0       0       
      +0       0       0       0       0       0
  3062 ;;      Totals:         0       0       0       0       0       0       0       0       0       0       0       0       
      +0       0       0       0       0       0
  3063 ;;Total ram usage:        0 bytes
  3064 ;; Hardware stack levels used: 1
  3065 ;; This function calls:
  3066 ;;		Nothing
  3067 ;; This function is called by:
  3068 ;;		_I2C1_Isr
  3069 ;; This function uses a non-reentrant model
  3070 ;;
  3071                           
  3072                           	psect	text39
  3073  0005E2                     __ptext39:
  3074                           	callstack 0
  3075  0005E2                     _I2C1_SlaveIsStop:
  3076                           	callstack 122
  3077  0005E2                     
  3078                           ;i2c1.c: 447:     return I2C1PIRbits.PCIF;
  3079  0005E2  0102               	movlb	2	; () banked
  3080  0005E4  B59A               	btfsc	154,2,b	;volatile
  3081  0005E6  EFF7  F002         	goto	i2u4_41
  3082  0005EA  EFFA  F002         	goto	i2u4_40
  3083  0005EE                     i2u4_41:
  3084  0005EE  0E01               	movlw	1
  3085  0005F0  EFFB  F002         	goto	i2u4_46
  3086  0005F4                     i2u4_40:
  3087  0005F4  0E00               	movlw	0
  3088  0005F6                     i2u4_46:
  3089  0005F6                     
  3090                           ; BSR set to: 2
  3091  0005F6  0012               	return		;funcret
  3092  0005F8                     __end_of_I2C1_SlaveIsStop:
  3093                           	callstack 0
  3094                           
  3095 ;; *************** function _I2C1_SlaveIsRxBufFull *****************
  3096 ;; Defined at:
  3097 ;;		line 486 in file "i2c1.c"
  3098 ;; Parameters:    Size  Location     Type
  3099 ;;		None
  3100 ;; Auto vars:     Size  Location     Type
  3101 ;;		None
  3102 ;; Return value:  Size  Location     Type
  3103 ;;                  1    wreg      _Bool 
  3104 ;; Registers used:
  3105 ;;		wreg
  3106 ;; Tracked objects:
  3107 ;;		On entry : 0/0
  3108 ;;		On exit  : 0/0
  3109 ;;		Unchanged: 0/0
  3110 ;; Data sizes:     COMRAM   BANK5   BANK6   BANK7   BANK8   BANK9  BANK10  BANK11  BANK12  BANK13  BANK14  BANK15  BANK1
      +6  BANK17  BANK18  BANK19  BANK20  BANK21
  3111 ;;      Params:         0       0       0       0       0       0       0       0       0       0       0       0       
      +0       0       0       0       0       0
  3112 ;;      Locals:         0       0       0       0       0       0       0       0       0       0       0       0       
      +0       0       0       0       0       0
  3113 ;;      Temps:          0       0       0       0       0       0       0       0       0       0       0       0       
      +0       0       0       0       0       0
  3114 ;;      Totals:         0       0       0       0       0       0       0       0       0       0       0       0       
      +0       0       0       0       0       0
  3115 ;;Total ram usage:        0 bytes
  3116 ;; Hardware stack levels used: 1
  3117 ;; This function calls:
  3118 ;;		Nothing
  3119 ;; This function is called by:
  3120 ;;		_I2C1_Isr
  3121 ;; This function uses a non-reentrant model
  3122 ;;
  3123                           
  3124                           	psect	text40
  3125  0005F8                     __ptext40:
  3126                           	callstack 0
  3127  0005F8                     _I2C1_SlaveIsRxBufFull:
  3128                           	callstack 122
  3129  0005F8                     
  3130                           ;i2c1.c: 488:     return I2C1STAT1bits.RXBF;
  3131  0005F8  0102               	movlb	2	; () banked
  3132  0005FA  B199               	btfsc	153,0,b	;volatile
  3133  0005FC  EF02  F003         	goto	i2u12_41
  3134  000600  EF05  F003         	goto	i2u12_40
  3135  000604                     i2u12_41:
  3136  000604  0E01               	movlw	1
  3137  000606  EF06  F003         	goto	i2u12_46
  3138  00060A                     i2u12_40:
  3139  00060A  0E00               	movlw	0
  3140  00060C                     i2u12_46:
  3141  00060C                     
  3142                           ; BSR set to: 2
  3143  00060C  0012               	return		;funcret
  3144  00060E                     __end_of_I2C1_SlaveIsRxBufFull:
  3145                           	callstack 0
  3146                           
  3147 ;; *************** function _I2C1_SlaveIsRead *****************
  3148 ;; Defined at:
  3149 ;;		line 430 in file "i2c1.c"
  3150 ;; Parameters:    Size  Location     Type
  3151 ;;		None
  3152 ;; Auto vars:     Size  Location     Type
  3153 ;;		None
  3154 ;; Return value:  Size  Location     Type
  3155 ;;                  1    wreg      _Bool 
  3156 ;; Registers used:
  3157 ;;		wreg
  3158 ;; Tracked objects:
  3159 ;;		On entry : 0/0
  3160 ;;		On exit  : 0/0
  3161 ;;		Unchanged: 0/0
  3162 ;; Data sizes:     COMRAM   BANK5   BANK6   BANK7   BANK8   BANK9  BANK10  BANK11  BANK12  BANK13  BANK14  BANK15  BANK1
      +6  BANK17  BANK18  BANK19  BANK20  BANK21
  3163 ;;      Params:         0       0       0       0       0       0       0       0       0       0       0       0       
      +0       0       0       0       0       0
  3164 ;;      Locals:         0       0       0       0       0       0       0       0       0       0       0       0       
      +0       0       0       0       0       0
  3165 ;;      Temps:          0       0       0       0       0       0       0       0       0       0       0       0       
      +0       0       0       0       0       0
  3166 ;;      Totals:         0       0       0       0       0       0       0       0       0       0       0       0       
      +0       0       0       0       0       0
  3167 ;;Total ram usage:        0 bytes
  3168 ;; Hardware stack levels used: 1
  3169 ;; This function calls:
  3170 ;;		Nothing
  3171 ;; This function is called by:
  3172 ;;		_I2C1_Isr
  3173 ;;		_I2C1_IsRead
  3174 ;; This function uses a non-reentrant model
  3175 ;;
  3176                           
  3177                           	psect	text41
  3178  00060E                     __ptext41:
  3179                           	callstack 0
  3180  00060E                     _I2C1_SlaveIsRead:
  3181                           	callstack 122
  3182  00060E                     
  3183                           ;i2c1.c: 432:     return I2C1STAT0bits.R;
  3184  00060E  0102               	movlb	2	; () banked
  3185  000610  B998               	btfsc	152,4,b	;volatile
  3186  000612  EF0D  F003         	goto	i2u3_41
  3187  000616  EF10  F003         	goto	i2u3_40
  3188  00061A                     i2u3_41:
  3189  00061A  0E01               	movlw	1
  3190  00061C  EF11  F003         	goto	i2u3_46
  3191  000620                     i2u3_40:
  3192  000620  0E00               	movlw	0
  3193  000622                     i2u3_46:
  3194  000622                     
  3195                           ; BSR set to: 2
  3196  000622  0012               	return		;funcret
  3197  000624                     __end_of_I2C1_SlaveIsRead:
  3198                           	callstack 0
  3199                           
  3200 ;; *************** function _I2C1_SlaveIsAddr *****************
  3201 ;; Defined at:
  3202 ;;		line 425 in file "i2c1.c"
  3203 ;; Parameters:    Size  Location     Type
  3204 ;;		None
  3205 ;; Auto vars:     Size  Location     Type
  3206 ;;		None
  3207 ;; Return value:  Size  Location     Type
  3208 ;;                  1    wreg      _Bool 
  3209 ;; Registers used:
  3210 ;;		wreg
  3211 ;; Tracked objects:
  3212 ;;		On entry : 0/0
  3213 ;;		On exit  : 0/0
  3214 ;;		Unchanged: 0/0
  3215 ;; Data sizes:     COMRAM   BANK5   BANK6   BANK7   BANK8   BANK9  BANK10  BANK11  BANK12  BANK13  BANK14  BANK15  BANK1
      +6  BANK17  BANK18  BANK19  BANK20  BANK21
  3216 ;;      Params:         0       0       0       0       0       0       0       0       0       0       0       0       
      +0       0       0       0       0       0
  3217 ;;      Locals:         0       0       0       0       0       0       0       0       0       0       0       0       
      +0       0       0       0       0       0
  3218 ;;      Temps:          0       0       0       0       0       0       0       0       0       0       0       0       
      +0       0       0       0       0       0
  3219 ;;      Totals:         0       0       0       0       0       0       0       0       0       0       0       0       
      +0       0       0       0       0       0
  3220 ;;Total ram usage:        0 bytes
  3221 ;; Hardware stack levels used: 1
  3222 ;; This function calls:
  3223 ;;		Nothing
  3224 ;; This function is called by:
  3225 ;;		_I2C1_Isr
  3226 ;; This function uses a non-reentrant model
  3227 ;;
  3228                           
  3229                           	psect	text42
  3230  000624                     __ptext42:
  3231                           	callstack 0
  3232  000624                     _I2C1_SlaveIsAddr:
  3233                           	callstack 122
  3234  000624                     
  3235                           ;i2c1.c: 427:     return !(I2C1STAT0bits.D);
  3236  000624  0102               	movlb	2	; () banked
  3237  000626  A798               	btfss	152,3,b	;volatile
  3238  000628  EF18  F003         	goto	i2u5_41
  3239  00062C  EF1B  F003         	goto	i2u5_40
  3240  000630                     i2u5_41:
  3241  000630  0E01               	movlw	1
  3242  000632  EF1C  F003         	goto	i2u6_40
  3243  000636                     i2u5_40:
  3244  000636  0E00               	movlw	0
  3245  000638                     i2u6_40:
  3246  000638                     
  3247                           ; BSR set to: 2
  3248  000638  0012               	return		;funcret
  3249  00063A                     __end_of_I2C1_SlaveIsAddr:
  3250                           	callstack 0
  3251                           
  3252 ;; *************** function _I2C1_SlaveClearIrq *****************
  3253 ;; Defined at:
  3254 ;;		line 455 in file "i2c1.c"
  3255 ;; Parameters:    Size  Location     Type
  3256 ;;		None
  3257 ;; Auto vars:     Size  Location     Type
  3258 ;;		None
  3259 ;; Return value:  Size  Location     Type
  3260 ;;                  1    wreg      void 
  3261 ;; Registers used:
  3262 ;;		wreg, status,2
  3263 ;; Tracked objects:
  3264 ;;		On entry : 0/0
  3265 ;;		On exit  : 0/0
  3266 ;;		Unchanged: 0/0
  3267 ;; Data sizes:     COMRAM   BANK5   BANK6   BANK7   BANK8   BANK9  BANK10  BANK11  BANK12  BANK13  BANK14  BANK15  BANK1
      +6  BANK17  BANK18  BANK19  BANK20  BANK21
  3268 ;;      Params:         0       0       0       0       0       0       0       0       0       0       0       0       
      +0       0       0       0       0       0
  3269 ;;      Locals:         0       0       0       0       0       0       0       0       0       0       0       0       
      +0       0       0       0       0       0
  3270 ;;      Temps:          0       0       0       0       0       0       0       0       0       0       0       0       
      +0       0       0       0       0       0
  3271 ;;      Totals:         0       0       0       0       0       0       0       0       0       0       0       0       
      +0       0       0       0       0       0
  3272 ;;Total ram usage:        0 bytes
  3273 ;; Hardware stack levels used: 1
  3274 ;; This function calls:
  3275 ;;		Nothing
  3276 ;; This function is called by:
  3277 ;;		_I2C1_Isr
  3278 ;; This function uses a non-reentrant model
  3279 ;;
  3280                           
  3281                           	psect	text43
  3282  000736                     __ptext43:
  3283                           	callstack 0
  3284  000736                     _I2C1_SlaveClearIrq:
  3285                           	callstack 122
  3286  000736                     
  3287                           ;i2c1.c: 457:     I2C1PIR = 0x00;
  3288  000736  0E00               	movlw	0
  3289  000738  0102               	movlb	2	; () banked
  3290  00073A  6F9A               	movwf	154,b	;volatile
  3291  00073C                     
  3292                           ; BSR set to: 2
  3293  00073C  0012               	return		;funcret
  3294  00073E                     __end_of_I2C1_SlaveClearIrq:
  3295                           	callstack 0
  3296                           
  3297 ;; *************** function _I2C1_SlaveClearBuff *****************
  3298 ;; Defined at:
  3299 ;;		line 450 in file "i2c1.c"
  3300 ;; Parameters:    Size  Location     Type
  3301 ;;		None
  3302 ;; Auto vars:     Size  Location     Type
  3303 ;;		None
  3304 ;; Return value:  Size  Location     Type
  3305 ;;                  1    wreg      void 
  3306 ;; Registers used:
  3307 ;;		None
  3308 ;; Tracked objects:
  3309 ;;		On entry : 0/0
  3310 ;;		On exit  : 0/0
  3311 ;;		Unchanged: 0/0
  3312 ;; Data sizes:     COMRAM   BANK5   BANK6   BANK7   BANK8   BANK9  BANK10  BANK11  BANK12  BANK13  BANK14  BANK15  BANK1
      +6  BANK17  BANK18  BANK19  BANK20  BANK21
  3313 ;;      Params:         0       0       0       0       0       0       0       0       0       0       0       0       
      +0       0       0       0       0       0
  3314 ;;      Locals:         0       0       0       0       0       0       0       0       0       0       0       0       
      +0       0       0       0       0       0
  3315 ;;      Temps:          0       0       0       0       0       0       0       0       0       0       0       0       
      +0       0       0       0       0       0
  3316 ;;      Totals:         0       0       0       0       0       0       0       0       0       0       0       0       
      +0       0       0       0       0       0
  3317 ;;Total ram usage:        0 bytes
  3318 ;; Hardware stack levels used: 1
  3319 ;; This function calls:
  3320 ;;		Nothing
  3321 ;; This function is called by:
  3322 ;;		_I2C1_Isr
  3323 ;; This function uses a non-reentrant model
  3324 ;;
  3325                           
  3326                           	psect	text44
  3327  00075A                     __ptext44:
  3328                           	callstack 0
  3329  00075A                     _I2C1_SlaveClearBuff:
  3330                           	callstack 122
  3331  00075A                     
  3332                           ;i2c1.c: 452:     I2C1STAT1bits.CLRBF = 1;
  3333  00075A  0102               	movlb	2	; () banked
  3334  00075C  8599               	bsf	153,2,b	;volatile
  3335  00075E                     
  3336                           ; BSR set to: 2
  3337  00075E  0012               	return		;funcret
  3338  000760                     __end_of_I2C1_SlaveClearBuff:
  3339                           	callstack 0
  3340                           
  3341 ;; *************** function _I2C1_SlaveAddrCallBack *****************
  3342 ;; Defined at:
  3343 ;;		line 342 in file "i2c1.c"
  3344 ;; Parameters:    Size  Location     Type
  3345 ;;		None
  3346 ;; Auto vars:     Size  Location     Type
  3347 ;;		None
  3348 ;; Return value:  Size  Location     Type
  3349 ;;                  1    wreg      void 
  3350 ;; Registers used:
  3351 ;;		wreg, status,2, status,0, pcl, pclath, pclatu, tosl, cstack
  3352 ;; Tracked objects:
  3353 ;;		On entry : 0/0
  3354 ;;		On exit  : 0/0
  3355 ;;		Unchanged: 0/0
  3356 ;; Data sizes:     COMRAM   BANK5   BANK6   BANK7   BANK8   BANK9  BANK10  BANK11  BANK12  BANK13  BANK14  BANK15  BANK1
      +6  BANK17  BANK18  BANK19  BANK20  BANK21
  3357 ;;      Params:         0       0       0       0       0       0       0       0       0       0       0       0       
      +0       0       0       0       0       0
  3358 ;;      Locals:         0       0       0       0       0       0       0       0       0       0       0       0       
      +0       0       0       0       0       0
  3359 ;;      Temps:          0       0       0       0       0       0       0       0       0       0       0       0       
      +0       0       0       0       0       0
  3360 ;;      Totals:         0       0       0       0       0       0       0       0       0       0       0       0       
      +0       0       0       0       0       0
  3361 ;;Total ram usage:        0 bytes
  3362 ;; Hardware stack levels used: 1
  3363 ;; Hardware stack levels required when called: 2
  3364 ;; This function calls:
  3365 ;;		Absolute function
  3366 ;;		_I2C1_SlaveDefAddrInterruptHandler
  3367 ;; This function is called by:
  3368 ;;		_I2C1_Isr
  3369 ;; This function uses a non-reentrant model
  3370 ;;
  3371                           
  3372                           	psect	text45
  3373  00051E                     __ptext45:
  3374                           	callstack 0
  3375  00051E                     _I2C1_SlaveAddrCallBack:
  3376                           	callstack 120
  3377  00051E                     
  3378                           ;i2c1.c: 344:     if (I2C1_SlaveAddrInterruptHandler) {
  3379  00051E  500B               	movf	_I2C1_SlaveAddrInterruptHandler^(0+1280),w,c
  3380  000520  100C               	iorwf	(_I2C1_SlaveAddrInterruptHandler+1)^(0+1280),w,c
  3381  000522  B4D8               	btfsc	status,2,c
  3382  000524  EF96  F002         	goto	i2u7_41
  3383  000528  EF98  F002         	goto	i2u7_40
  3384  00052C                     i2u7_41:
  3385  00052C  EFA5  F002         	goto	i2l285
  3386  000530                     i2u7_40:
  3387  000530                     
  3388                           ;i2c1.c: 345:         I2C1_SlaveAddrInterruptHandler();
  3389  000530  D802               	call	i2u8_48
  3390  000532  EFA5  F002         	goto	i2u8_49
  3391  000536                     i2u8_48:
  3392  000536  0005               	push	
  3393  000538  6EFA               	movwf	pclath,c
  3394  00053A  500B               	movf	_I2C1_SlaveAddrInterruptHandler^(0+1280),w,c
  3395  00053C  6EFD               	movwf	tosl,c
  3396  00053E  500C               	movf	(_I2C1_SlaveAddrInterruptHandler+1)^(0+1280),w,c
  3397  000540  6EFE               	movwf	tosh,c
  3398  000542  50F8               	movf	tblptru,w,c
  3399  000544  6EFF               	movwf	tosu,c
  3400  000546  50FA               	movf	pclath,w,c
  3401  000548  0012               	return		;indir
  3402  00054A                     i2u8_49:
  3403  00054A                     i2l285:
  3404  00054A  0012               	return		;funcret
  3405  00054C                     __end_of_I2C1_SlaveAddrCallBack:
  3406                           	callstack 0
  3407                           
  3408 ;; *************** function _I2C1_SlaveDefAddrInterruptHandler *****************
  3409 ;; Defined at:
  3410 ;;		line 349 in file "i2c1.c"
  3411 ;; Parameters:    Size  Location     Type
  3412 ;;		None
  3413 ;; Auto vars:     Size  Location     Type
  3414 ;;		None
  3415 ;; Return value:  Size  Location     Type
  3416 ;;                  1    wreg      void 
  3417 ;; Registers used:
  3418 ;;		wreg, status,2, status,0, cstack
  3419 ;; Tracked objects:
  3420 ;;		On entry : 0/0
  3421 ;;		On exit  : 0/0
  3422 ;;		Unchanged: 0/0
  3423 ;; Data sizes:     COMRAM   BANK5   BANK6   BANK7   BANK8   BANK9  BANK10  BANK11  BANK12  BANK13  BANK14  BANK15  BANK1
      +6  BANK17  BANK18  BANK19  BANK20  BANK21
  3424 ;;      Params:         0       0       0       0       0       0       0       0       0       0       0       0       
      +0       0       0       0       0       0
  3425 ;;      Locals:         0       0       0       0       0       0       0       0       0       0       0       0       
      +0       0       0       0       0       0
  3426 ;;      Temps:          0       0       0       0       0       0       0       0       0       0       0       0       
      +0       0       0       0       0       0
  3427 ;;      Totals:         0       0       0       0       0       0       0       0       0       0       0       0       
      +0       0       0       0       0       0
  3428 ;;Total ram usage:        0 bytes
  3429 ;; Hardware stack levels used: 1
  3430 ;; Hardware stack levels required when called: 1
  3431 ;; This function calls:
  3432 ;;		_I2C1_SlaveGetAddr
  3433 ;; This function is called by:
  3434 ;;		_I2C1_Open
  3435 ;;		_I2C1_SlaveAddrCallBack
  3436 ;; This function uses a non-reentrant model
  3437 ;;
  3438                           
  3439                           	psect	text46
  3440  00073E                     __ptext46:
  3441                           	callstack 0
  3442  00073E                     _I2C1_SlaveDefAddrInterruptHandler:
  3443                           	callstack 120
  3444  00073E                     
  3445                           ;i2c1.c: 350:     i2c1SlaveAddr = I2C1_SlaveGetAddr();
  3446  00073E  ECA3  F003         	call	_I2C1_SlaveGetAddr	;wreg free
  3447  000742  6E17               	movwf	_i2c1SlaveAddr^(0+1280),c	;volatile
  3448  000744  0012               	return		;funcret
  3449  000746                     __end_of_I2C1_SlaveDefAddrInterruptHandler:
  3450                           	callstack 0
  3451                           
  3452 ;; *************** function _I2C1_SlaveGetAddr *****************
  3453 ;; Defined at:
  3454 ;;		line 501 in file "i2c1.c"
  3455 ;; Parameters:    Size  Location     Type
  3456 ;;		None
  3457 ;; Auto vars:     Size  Location     Type
  3458 ;;		None
  3459 ;; Return value:  Size  Location     Type
  3460 ;;                  1    wreg      unsigned char 
  3461 ;; Registers used:
  3462 ;;		wreg, status,2, status,0
  3463 ;; Tracked objects:
  3464 ;;		On entry : 0/0
  3465 ;;		On exit  : 0/0
  3466 ;;		Unchanged: 0/0
  3467 ;; Data sizes:     COMRAM   BANK5   BANK6   BANK7   BANK8   BANK9  BANK10  BANK11  BANK12  BANK13  BANK14  BANK15  BANK1
      +6  BANK17  BANK18  BANK19  BANK20  BANK21
  3468 ;;      Params:         0       0       0       0       0       0       0       0       0       0       0       0       
      +0       0       0       0       0       0
  3469 ;;      Locals:         0       0       0       0       0       0       0       0       0       0       0       0       
      +0       0       0       0       0       0
  3470 ;;      Temps:          0       0       0       0       0       0       0       0       0       0       0       0       
      +0       0       0       0       0       0
  3471 ;;      Totals:         0       0       0       0       0       0       0       0       0       0       0       0       
      +0       0       0       0       0       0
  3472 ;;Total ram usage:        0 bytes
  3473 ;; Hardware stack levels used: 1
  3474 ;; This function calls:
  3475 ;;		Nothing
  3476 ;; This function is called by:
  3477 ;;		_I2C1_SlaveDefAddrInterruptHandler
  3478 ;;		_I2C1_ReadAddr
  3479 ;; This function uses a non-reentrant model
  3480 ;;
  3481                           
  3482                           	psect	text47
  3483  000746                     __ptext47:
  3484                           	callstack 0
  3485  000746                     _I2C1_SlaveGetAddr:
  3486                           	callstack 120
  3487  000746                     
  3488                           ;i2c1.c: 503:     return I2C1ADB0 >> 1;
  3489  000746  0102               	movlb	2	; () banked
  3490  000748  90D8               	bcf	status,0,c
  3491  00074A  318E               	rrcf	142,w,b	;volatile
  3492  00074C                     
  3493                           ; BSR set to: 2
  3494  00074C  0012               	return		;funcret
  3495  00074E                     __end_of_I2C1_SlaveGetAddr:
  3496                           	callstack 0
  3497                           
  3498 ;; *************** function _Default_ISR *****************
  3499 ;; Defined at:
  3500 ;;		line 78 in file "interrupt.c"
  3501 ;; Parameters:    Size  Location     Type
  3502 ;;		None
  3503 ;; Auto vars:     Size  Location     Type
  3504 ;;		None
  3505 ;; Return value:  Size  Location     Type
  3506 ;;                  1    wreg      void 
  3507 ;; Registers used:
  3508 ;;		None
  3509 ;; Tracked objects:
  3510 ;;		On entry : 0/0
  3511 ;;		On exit  : 0/0
  3512 ;;		Unchanged: 0/0
  3513 ;; Data sizes:     COMRAM   BANK5   BANK6   BANK7   BANK8   BANK9  BANK10  BANK11  BANK12  BANK13  BANK14  BANK15  BANK1
      +6  BANK17  BANK18  BANK19  BANK20  BANK21
  3514 ;;      Params:         0       0       0       0       0       0       0       0       0       0       0       0       
      +0       0       0       0       0       0
  3515 ;;      Locals:         0       0       0       0       0       0       0       0       0       0       0       0       
      +0       0       0       0       0       0
  3516 ;;      Temps:          0       0       0       0       0       0       0       0       0       0       0       0       
      +0       0       0       0       0       0
  3517 ;;      Totals:         0       0       0       0       0       0       0       0       0       0       0       0       
      +0       0       0       0       0       0
  3518 ;;Total ram usage:        0 bytes
  3519 ;; Hardware stack levels used: 1
  3520 ;; This function calls:
  3521 ;;		Nothing
  3522 ;; This function is called by:
  3523 ;;		Interrupt level 2
  3524 ;; This function uses a non-reentrant model
  3525 ;;
  3526                           
  3527                           	psect	text48
  3528  000768                     __ptext48:
  3529                           	callstack 0
  3530  000768                     _Default_ISR:
  3531                           	callstack 124
  3532  000768  0011               	retfie		f
  3533  00076A                     __end_of_Default_ISR:
  3534                           	callstack 0
  3535                           
  3536                           ;
  3537                           ; Interrupt Vector Table @ 0x8
  3538                           ;
  3539                           
  3540                           	psect	ivt0x8
  3541  000008                     __pivt0x8:
  3542                           	callstack 0
  3543  000008                     ivt0x8_base:
  3544                           	callstack 0
  3545                           
  3546                           ; Vector 0 : SWINT
  3547  000008  01DA               	dw	_Default_ISR shr (0+2)
  3548                           
  3549                           ; Vector 1 : HLVD
  3550  00000A  01DA               	dw	_Default_ISR shr (0+2)
  3551                           
  3552                           ; Vector 2 : OSF
  3553  00000C  01DA               	dw	_Default_ISR shr (0+2)
  3554                           
  3555                           ; Vector 3 : CSW
  3556  00000E  01DA               	dw	_Default_ISR shr (0+2)
  3557                           
  3558                           ; Vector 4 : NVMIP
  3559  000010  01DA               	dw	_Default_ISR shr (0+2)
  3560                           
  3561                           ; Vector 5 : CLC1
  3562  000012  01DA               	dw	_Default_ISR shr (0+2)
  3563                           
  3564                           ; Vector 6 : CRC
  3565  000014  01DA               	dw	_Default_ISR shr (0+2)
  3566                           
  3567                           ; Vector 7 : IOC
  3568  000016  01DA               	dw	_Default_ISR shr (0+2)
  3569                           
  3570                           ; Vector 8 : INT0
  3571  000018  01DA               	dw	_Default_ISR shr (0+2)
  3572                           
  3573                           ; Vector 9 : ZCD
  3574  00001A  01DA               	dw	_Default_ISR shr (0+2)
  3575                           
  3576                           ; Vector 10 : AD
  3577  00001C  01DA               	dw	_Default_ISR shr (0+2)
  3578                           
  3579                           ; Vector 11 : ACT
  3580  00001E  01DA               	dw	_Default_ISR shr (0+2)
  3581                           
  3582                           ; Vector 12 : CMP1
  3583  000020  01DA               	dw	_Default_ISR shr (0+2)
  3584                           
  3585                           ; Vector 13 : SMT1
  3586  000022  01DA               	dw	_Default_ISR shr (0+2)
  3587                           
  3588                           ; Vector 14 : SMT1PRA
  3589  000024  01DA               	dw	_Default_ISR shr (0+2)
  3590                           
  3591                           ; Vector 15 : SMT1PWA
  3592  000026  01DA               	dw	_Default_ISR shr (0+2)
  3593                           
  3594                           ; Vector 16 : ADT
  3595  000028  01DA               	dw	_Default_ISR shr (0+2)
  3596                           
  3597                           ; Vector 17 : Undefined
  3598  00002A  002E               	dw	ivt0x8_undefint shr (0+2)
  3599                           
  3600                           ; Vector 18 : Undefined
  3601  00002C  002E               	dw	ivt0x8_undefint shr (0+2)
  3602                           
  3603                           ; Vector 19 : Undefined
  3604  00002E  002E               	dw	ivt0x8_undefint shr (0+2)
  3605                           
  3606                           ; Vector 20 : DMA1SCNT
  3607  000030  01DA               	dw	_Default_ISR shr (0+2)
  3608                           
  3609                           ; Vector 21 : DMA1DCNT
  3610  000032  01DA               	dw	_Default_ISR shr (0+2)
  3611                           
  3612                           ; Vector 22 : DMA1OR
  3613  000034  01DA               	dw	_Default_ISR shr (0+2)
  3614                           
  3615                           ; Vector 23 : DMA1A
  3616  000036  01DA               	dw	_Default_ISR shr (0+2)
  3617                           
  3618                           ; Vector 24 : SPI1RX
  3619  000038  01DA               	dw	_Default_ISR shr (0+2)
  3620                           
  3621                           ; Vector 25 : SPI1TX
  3622  00003A  01DA               	dw	_Default_ISR shr (0+2)
  3623                           
  3624                           ; Vector 26 : SPI1
  3625  00003C  01DA               	dw	_Default_ISR shr (0+2)
  3626                           
  3627                           ; Vector 27 : TMR2
  3628  00003E  01DA               	dw	_Default_ISR shr (0+2)
  3629                           
  3630                           ; Vector 28 : TMR1
  3631  000040  01DA               	dw	_Default_ISR shr (0+2)
  3632                           
  3633                           ; Vector 29 : TMR1G
  3634  000042  01DA               	dw	_Default_ISR shr (0+2)
  3635                           
  3636                           ; Vector 30 : CCP1
  3637  000044  01DA               	dw	_Default_ISR shr (0+2)
  3638                           
  3639                           ; Vector 31 : TMR0
  3640  000046  01DA               	dw	_Default_ISR shr (0+2)
  3641                           
  3642                           ; Vector 32 : U1RX
  3643  000048  01DA               	dw	_Default_ISR shr (0+2)
  3644                           
  3645                           ; Vector 33 : U1TX
  3646  00004A  01DA               	dw	_Default_ISR shr (0+2)
  3647                           
  3648                           ; Vector 34 : U1E
  3649  00004C  01DA               	dw	_Default_ISR shr (0+2)
  3650                           
  3651                           ; Vector 35 : U1
  3652  00004E  01DA               	dw	_Default_ISR shr (0+2)
  3653                           
  3654                           ; Vector 36 : TMR3
  3655  000050  01DA               	dw	_Default_ISR shr (0+2)
  3656                           
  3657                           ; Vector 37 : TMR3G
  3658  000052  01DA               	dw	_Default_ISR shr (0+2)
  3659                           
  3660                           ; Vector 38 : PWM1PR
  3661  000054  01DA               	dw	_Default_ISR shr (0+2)
  3662                           
  3663                           ; Vector 39 : PWM1
  3664  000056  01DA               	dw	_Default_ISR shr (0+2)
  3665                           
  3666                           ; Vector 40 : SPI2RX
  3667  000058  01DA               	dw	_Default_ISR shr (0+2)
  3668                           
  3669                           ; Vector 41 : SPI2TX
  3670  00005A  01DA               	dw	_Default_ISR shr (0+2)
  3671                           
  3672                           ; Vector 42 : SPI2
  3673  00005C  01DA               	dw	_Default_ISR shr (0+2)
  3674                           
  3675                           ; Vector 43 : Undefined
  3676  00005E  002E               	dw	ivt0x8_undefint shr (0+2)
  3677                           
  3678                           ; Vector 44 : CMP2
  3679  000060  01DA               	dw	_Default_ISR shr (0+2)
  3680                           
  3681                           ; Vector 45 : CLC2
  3682  000062  01DA               	dw	_Default_ISR shr (0+2)
  3683                           
  3684                           ; Vector 46 : PWM2PR
  3685  000064  01DA               	dw	_Default_ISR shr (0+2)
  3686                           
  3687                           ; Vector 47 : PWM2
  3688  000066  01DA               	dw	_Default_ISR shr (0+2)
  3689                           
  3690                           ; Vector 48 : INT1
  3691  000068  01DA               	dw	_Default_ISR shr (0+2)
  3692                           
  3693                           ; Vector 49 : CWG1
  3694  00006A  01DA               	dw	_Default_ISR shr (0+2)
  3695                           
  3696                           ; Vector 50 : NCO1
  3697  00006C  01DA               	dw	_Default_ISR shr (0+2)
  3698                           
  3699                           ; Vector 51 : DMA2SCNT
  3700  00006E  01DA               	dw	_Default_ISR shr (0+2)
  3701                           
  3702                           ; Vector 52 : DMA2DCNT
  3703  000070  01DA               	dw	_Default_ISR shr (0+2)
  3704                           
  3705                           ; Vector 53 : DMA2OR
  3706  000072  01DA               	dw	_Default_ISR shr (0+2)
  3707                           
  3708                           ; Vector 54 : DMA2A
  3709  000074  01DA               	dw	_Default_ISR shr (0+2)
  3710                           
  3711                           ; Vector 55 : Undefined
  3712  000076  002E               	dw	ivt0x8_undefint shr (0+2)
  3713                           
  3714                           ; Vector 56 : I2C1RX
  3715  000078  0165               	dw	_I2C1_ISR shr (0+2)
  3716                           
  3717                           ; Vector 57 : I2C1TX
  3718  00007A  0165               	dw	_I2C1_ISR shr (0+2)
  3719                           
  3720                           ; Vector 58 : I2C1
  3721  00007C  0165               	dw	_I2C1_ISR shr (0+2)
  3722                           
  3723                           ; Vector 59 : I2C1E
  3724  00007E  0165               	dw	_I2C1_ISR shr (0+2)
  3725                           
  3726                           ; Vector 60 : Undefined
  3727  000080  002E               	dw	ivt0x8_undefint shr (0+2)
  3728                           
  3729                           ; Vector 61 : CLC3
  3730  000082  01DA               	dw	_Default_ISR shr (0+2)
  3731                           
  3732                           ; Vector 62 : PWM3PR
  3733  000084  01DA               	dw	_Default_ISR shr (0+2)
  3734                           
  3735                           ; Vector 63 : PWM3
  3736  000086  01DA               	dw	_Default_ISR shr (0+2)
  3737                           
  3738                           ; Vector 64 : U2RX
  3739  000088  01DA               	dw	_Default_ISR shr (0+2)
  3740                           
  3741                           ; Vector 65 : U2TX
  3742  00008A  01DA               	dw	_Default_ISR shr (0+2)
  3743                           
  3744                           ; Vector 66 : U2E
  3745  00008C  01DA               	dw	_Default_ISR shr (0+2)
  3746                           
  3747                           ; Vector 67 : U2
  3748  00008E  01DA               	dw	_Default_ISR shr (0+2)
  3749                           
  3750                           ; Vector 68 : Undefined
  3751  000090  002E               	dw	ivt0x8_undefint shr (0+2)
  3752                           
  3753                           ; Vector 69 : CLC4
  3754  000092  01DA               	dw	_Default_ISR shr (0+2)
  3755                           
  3756                           ; Vector 70 : Undefined
  3757  000094  002E               	dw	ivt0x8_undefint shr (0+2)
  3758                           
  3759                           ; Vector 71 : SCAN
  3760  000096  01DA               	dw	_Default_ISR shr (0+2)
  3761                           
  3762                           ; Vector 72 : U3RX
  3763  000098  01DA               	dw	_Default_ISR shr (0+2)
  3764                           
  3765                           ; Vector 73 : U3TX
  3766  00009A  01DA               	dw	_Default_ISR shr (0+2)
  3767                           
  3768                           ; Vector 74 : U3E
  3769  00009C  01DA               	dw	_Default_ISR shr (0+2)
  3770                           
  3771                           ; Vector 75 : U3
  3772  00009E  01DA               	dw	_Default_ISR shr (0+2)
  3773                           
  3774                           ; Vector 76 : DMA3SCNT
  3775  0000A0  01DA               	dw	_Default_ISR shr (0+2)
  3776                           
  3777                           ; Vector 77 : DMA3DCNT
  3778  0000A2  01DA               	dw	_Default_ISR shr (0+2)
  3779                           
  3780                           ; Vector 78 : DMA3OR
  3781  0000A4  01DA               	dw	_Default_ISR shr (0+2)
  3782                           
  3783                           ; Vector 79 : DMA3A
  3784  0000A6  01DA               	dw	_Default_ISR shr (0+2)
  3785                           
  3786                           ; Vector 80 : INT2
  3787  0000A8  01DA               	dw	_Default_ISR shr (0+2)
  3788                           
  3789                           ; Vector 81 : Undefined
  3790  0000AA  002E               	dw	ivt0x8_undefint shr (0+2)
  3791                           
  3792                           ; Vector 82 : Undefined
  3793  0000AC  002E               	dw	ivt0x8_undefint shr (0+2)
  3794                           
  3795                           ; Vector 83 : TMR4
  3796  0000AE  01DA               	dw	_Default_ISR shr (0+2)
  3797                           
  3798                           ; Vector 84 : DMA4SCNT
  3799  0000B0  01DA               	dw	_Default_ISR shr (0+2)
  3800                           
  3801                           ; Vector 85 : DMA4DCNT
  3802  0000B2  01DA               	dw	_Default_ISR shr (0+2)
  3803                           
  3804                           ; Vector 86 : DMA4OR
  3805  0000B4  01DA               	dw	_Default_ISR shr (0+2)
  3806                           
  3807                           ; Vector 87 : DMA4A
  3808  0000B6  01DA               	dw	_Default_ISR shr (0+2)
  3809  0000B8                     ivt0x8_undefint:
  3810                           	callstack 0
  3811  0000B8  00FF               	reset	
  3812  0000                     
  3813                           	psect	text49
  3814  000000                     __ptext49:
  3815                           	callstack 0
  3816  000000                     
  3817                           	psect	rparam
  3818  0000                     
  3819                           	psect	idloc
  3820                           
  3821                           ;Config register IDLOC0 @ 0x200000
  3822                           ;	unspecified, using default values
  3823  200000                     	org	2097152
  3824  200000  0FFF               	dw	4095
  3825                           
  3826                           ;Config register IDLOC1 @ 0x200002
  3827                           ;	unspecified, using default values
  3828  200002                     	org	2097154
  3829  200002  0FFF               	dw	4095
  3830                           
  3831                           ;Config register IDLOC2 @ 0x200004
  3832                           ;	unspecified, using default values
  3833  200004                     	org	2097156
  3834  200004  0FFF               	dw	4095
  3835                           
  3836                           ;Config register IDLOC3 @ 0x200006
  3837                           ;	unspecified, using default values
  3838  200006                     	org	2097158
  3839  200006  0FFF               	dw	4095
  3840                           
  3841                           ;Config register IDLOC4 @ 0x200008
  3842                           ;	unspecified, using default values
  3843  200008                     	org	2097160
  3844  200008  0FFF               	dw	4095
  3845                           
  3846                           ;Config register IDLOC5 @ 0x20000A
  3847                           ;	unspecified, using default values
  3848  20000A                     	org	2097162
  3849  20000A  0FFF               	dw	4095
  3850                           
  3851                           ;Config register IDLOC6 @ 0x20000C
  3852                           ;	unspecified, using default values
  3853  20000C                     	org	2097164
  3854  20000C  0FFF               	dw	4095
  3855                           
  3856                           ;Config register IDLOC7 @ 0x20000E
  3857                           ;	unspecified, using default values
  3858  20000E                     	org	2097166
  3859  20000E  0FFF               	dw	4095
  3860                           
  3861                           ;Config register IDLOC8 @ 0x200010
  3862                           ;	unspecified, using default values
  3863  200010                     	org	2097168
  3864  200010  0FFF               	dw	4095
  3865                           
  3866                           ;Config register IDLOC9 @ 0x200012
  3867                           ;	unspecified, using default values
  3868  200012                     	org	2097170
  3869  200012  0FFF               	dw	4095
  3870                           
  3871                           ;Config register IDLOC10 @ 0x200014
  3872                           ;	unspecified, using default values
  3873  200014                     	org	2097172
  3874  200014  0FFF               	dw	4095
  3875                           
  3876                           ;Config register IDLOC11 @ 0x200016
  3877                           ;	unspecified, using default values
  3878  200016                     	org	2097174
  3879  200016  0FFF               	dw	4095
  3880                           
  3881                           ;Config register IDLOC12 @ 0x200018
  3882                           ;	unspecified, using default values
  3883  200018                     	org	2097176
  3884  200018  0FFF               	dw	4095
  3885                           
  3886                           ;Config register IDLOC13 @ 0x20001A
  3887                           ;	unspecified, using default values
  3888  20001A                     	org	2097178
  3889  20001A  0FFF               	dw	4095
  3890                           
  3891                           ;Config register IDLOC14 @ 0x20001C
  3892                           ;	unspecified, using default values
  3893  20001C                     	org	2097180
  3894  20001C  0FFF               	dw	4095
  3895                           
  3896                           ;Config register IDLOC15 @ 0x20001E
  3897                           ;	unspecified, using default values
  3898  20001E                     	org	2097182
  3899  20001E  0FFF               	dw	4095
  3900                           
  3901                           	psect	config
  3902                           
  3903                           ;Config register CONFIG1 @ 0x300000
  3904                           ;	External Oscillator Selection
  3905                           ;	FEXTOSC = OFF, Oscillator not enabled
  3906                           ;	Reset Oscillator Selection
  3907                           ;	RSTOSC = HFINTOSC_64MHZ, HFINTOSC with HFFRQ = 64 MHz and CDIV = 1:1
  3908  300000                     	org	3145728
  3909  300000  8C                 	db	140
  3910                           
  3911                           ;Config register CONFIG2 @ 0x300001
  3912                           ;	Clock out Enable bit
  3913                           ;	CLKOUTEN = OFF, CLKOUT function is disabled
  3914                           ;	PRLOCKED One-Way Set Enable bit
  3915                           ;	PR1WAY = ON, PRLOCKED bit can be cleared and set only once
  3916                           ;	Clock Switch Enable bit
  3917                           ;	CSWEN = ON, Writing to NOSC and NDIV is allowed
  3918                           ;	Fail-Safe Clock Monitor Enable bit
  3919                           ;	FCMEN = ON, Fail-Safe Clock Monitor enabled
  3920                           ;	Fail-Safe Clock Monitor - Primary XTAL Enable bit
  3921                           ;	FCMENP = ON, Fail-Safe Clock Monitor enabled; timer will flag FSCMP bit and OSFIF inte
      +                          rrupt on EXTOSC failure.
  3922                           ;	Fail-Safe Clock Monitor - Secondary XTAL Enable bit
  3923                           ;	FCMENS = ON, Fail-Safe Clock Monitor enabled; timer will flag FSCMP bit and OSFIF inte
      +                          rrupt on SOSC failure.
  3924  300001                     	org	3145729
  3925  300001  FF                 	db	255
  3926                           
  3927                           ;Config register CONFIG3 @ 0x300002
  3928                           ;	MCLR Enable bit
  3929                           ;	MCLRE = EXTMCLR, If LVP = 0, MCLR pin is MCLR; If LVP = 1, RE3 pin function is MCLR
  3930                           ;	Power-up timer selection bits
  3931                           ;	PWRTS = PWRT_OFF, PWRT is disabled
  3932                           ;	Multi-vector enable bit
  3933                           ;	MVECEN = ON, Multi-vector enabled, Vector table used for interrupts
  3934                           ;	IVTLOCK bit One-way set enable bit
  3935                           ;	IVT1WAY = ON, IVTLOCKED bit can be cleared and set only once
  3936                           ;	Low Power BOR Enable bit
  3937                           ;	LPBOREN = OFF, Low-Power BOR disabled
  3938                           ;	Brown-out Reset Enable bits
  3939                           ;	BOREN = SBORDIS, Brown-out Reset enabled , SBOREN bit is ignored
  3940  300002                     	org	3145730
  3941  300002  FF                 	db	255
  3942                           
  3943                           ;Config register CONFIG4 @ 0x300003
  3944                           ;	Brown-out Reset Voltage Selection bits
  3945                           ;	BORV = VBOR_1P9, Brown-out Reset Voltage (VBOR) set to 1.9V
  3946                           ;	ZCD Disable bit
  3947                           ;	ZCD = OFF, ZCD module is disabled. ZCD can be enabled by setting the ZCDSEN bit of ZCD
      +                          CON
  3948                           ;	PPSLOCK bit One-Way Set Enable bit
  3949                           ;	PPS1WAY = ON, PPSLOCKED bit can be cleared and set only once; PPS registers remain loc
      +                          ked after one clear/set cycle
  3950                           ;	Stack Full/Underflow Reset Enable bit
  3951                           ;	STVREN = ON, Stack full/underflow will cause Reset
  3952                           ;	Low Voltage Programming Enable bit
  3953                           ;	LVP = ON, Low voltage programming enabled. MCLR/VPP pin function is MCLR. MCLRE config
      +                          uration bit is ignored
  3954                           ;	Extended Instruction Set Enable bit
  3955                           ;	XINST = OFF, Extended Instruction Set and Indexed Addressing Mode disabled
  3956  300003                     	org	3145731
  3957  300003  FF                 	db	255
  3958                           
  3959                           ;Config register CONFIG5 @ 0x300004
  3960                           ;	WDT Period selection bits
  3961                           ;	WDTCPS = WDTCPS_31, Divider ratio 1:65536; software control of WDTPS
  3962                           ;	WDT operating mode
  3963                           ;	WDTE = OFF, WDT Disabled; SWDTEN is ignored
  3964  300004                     	org	3145732
  3965  300004  9F                 	db	159
  3966                           
  3967                           ;Config register CONFIG6 @ 0x300005
  3968                           ;	WDT Window Select bits
  3969                           ;	WDTCWS = WDTCWS_7, window always open (100%); software control; keyed access not requi
      +                          red
  3970                           ;	WDT input clock selector
  3971                           ;	WDTCCS = SC, Software Control
  3972  300005                     	org	3145733
  3973  300005  FF                 	db	255
  3974                           
  3975                           ;Config register CONFIG7 @ 0x300006
  3976                           ;	Boot Block Size selection bits
  3977                           ;	BBSIZE = BBSIZE_512, Boot Block size is 512 words
  3978                           ;	Boot Block enable bit
  3979                           ;	BBEN = OFF, Boot block disabled
  3980                           ;	Storage Area Flash enable bit
  3981                           ;	SAFEN = OFF, SAF disabled
  3982                           ;	Background Debugger
  3983                           ;	DEBUG = OFF, Background Debugger disabled
  3984  300006                     	org	3145734
  3985  300006  FF                 	db	255
  3986                           
  3987                           ;Config register CONFIG8 @ 0x300007
  3988                           ;	Boot Block Write Protection bit
  3989                           ;	WRTB = OFF, Boot Block not Write protected
  3990                           ;	Configuration Register Write Protection bit
  3991                           ;	WRTC = OFF, Configuration registers not Write protected
  3992                           ;	Data EEPROM Write Protection bit
  3993                           ;	WRTD = OFF, Data EEPROM not Write protected
  3994                           ;	SAF Write protection bit
  3995                           ;	WRTSAF = OFF, SAF not Write Protected
  3996                           ;	Application Block write protection bit
  3997                           ;	WRTAPP = OFF, Application Block not write protected
  3998  300007                     	org	3145735
  3999  300007  FF                 	db	255
  4000                           
  4001                           ;Config register CONFIG9 @ 0x300008
  4002                           ;	PFM and Data EEPROM Code Protection bit
  4003                           ;	CP = OFF, PFM and Data EEPROM code protection disabled
  4004  300008                     	org	3145736
  4005  300008  FF                 	db	255
  4006                           
  4007                           ; Padding undefined space
  4008  300009                     	org	3145737
  4009  300009  FF                 	db	255
  4010                           tosu	equ	0x4FF
  4011                           tosh	equ	0x4FE
  4012                           tosl	equ	0x4FD
  4013                           stkptr	equ	0x4FC
  4014                           pclatu	equ	0x4FB
  4015                           pclath	equ	0x4FA
  4016                           pcl	equ	0x4F9
  4017                           tblptru	equ	0x4F8
  4018                           tblptrh	equ	0x4F7
  4019                           tblptrl	equ	0x4F6
  4020                           tablat	equ	0x4F5
  4021                           prodh	equ	0x4F4
  4022                           prodl	equ	0x4F3
  4023                           indf0	equ	0x4EF
  4024                           postinc0	equ	0x4EE
  4025                           postdec0	equ	0x4ED
  4026                           preinc0	equ	0x4EC
  4027                           plusw0	equ	0x4EB
  4028                           fsr0h	equ	0x4EA
  4029                           fsr0l	equ	0x4E9
  4030                           wreg	equ	0x4E8
  4031                           indf1	equ	0x4E7
  4032                           postinc1	equ	0x4E6
  4033                           postdec1	equ	0x4E5
  4034                           preinc1	equ	0x4E4
  4035                           plusw1	equ	0x4E3
  4036                           fsr1h	equ	0x4E2
  4037                           fsr1l	equ	0x4E1
  4038                           bsr	equ	0x4E0
  4039                           indf2	equ	0x4DF
  4040                           postinc2	equ	0x4DE
  4041                           postdec2	equ	0x4DD
  4042                           preinc2	equ	0x4DC
  4043                           plusw2	equ	0x4DB
  4044                           fsr2h	equ	0x4DA
  4045                           fsr2l	equ	0x4D9
  4046                           status	equ	0x4D8

Data Sizes:
    Strings     0
    Constant    0
    Data        0
    BSS         153
    Persistent  0
    Stack       0

Auto Spaces:
    Space          Size  Autos    Used
    COMRAM           95      9      34
    BANK5           160      0     128
    BANK6           256      0       0
    BANK7           256      0       0
    BANK8           256      0       0
    BANK9           256      0       0
    BANK10          256      0       0
    BANK11          256      0       0
    BANK12          256      0       0
    BANK13          256      0       0
    BANK14          256      0       0
    BANK15          256      0       0
    BANK16          256      0       0
    BANK17          256      0       0
    BANK18          256      0       0
    BANK19          256      0       0
    BANK20          256      0       0
    BANK21          256      0       0

Pointer List with Targets:

    UART1_SetErrorHandler@interruptHandler	PTR FTN()void  size(2) Largest target is 1
		 -> UART1_DefaultErrorHandler(), 

    UART1_SetOverrunErrorHandler@interruptHandler	PTR FTN()void  size(2) Largest target is 1
		 -> UART1_DefaultOverrunErrorHandler(), 

    UART1_SetFramingErrorHandler@interruptHandler	PTR FTN()void  size(2) Largest target is 1
		 -> UART1_DefaultFramingErrorHandler(), 

    UART1_ErrorHandler	PTR FTN()void  size(2) Largest target is 1
		 -> UART1_DefaultErrorHandler(), Absolute function(), 

    UART1_OverrunErrorHandler	PTR FTN()void  size(2) Largest target is 1
		 -> UART1_DefaultOverrunErrorHandler(), Absolute function(), 

    UART1_FramingErrorHandler	PTR FTN()void  size(2) Largest target is 1
		 -> UART1_DefaultFramingErrorHandler(), Absolute function(), 

    I2C1_SlaveSetBusColIntHandler@handler	PTR FTN()void  size(2) Largest target is 1
		 -> I2C1_SlaveDefBusColInterruptHandler(), 

    I2C1_SlaveBusColInterruptHandler	PTR FTN()void  size(2) Largest target is 1
		 -> Absolute function(), I2C1_SlaveDefBusColInterruptHandler(), 

    I2C1_SlaveSetWrColIntHandler@handler	PTR FTN()void  size(2) Largest target is 1
		 -> I2C1_SlaveDefWrColInterruptHandler(), 

    I2C1_SlaveWrColInterruptHandler	PTR FTN()void  size(2) Largest target is 1
		 -> Absolute function(), I2C1_SlaveDefWrColInterruptHandler(), 

    I2C1_SlaveSetAddrIntHandler@handler	PTR FTN()void  size(2) Largest target is 1
		 -> I2C1_SlaveDefAddrInterruptHandler(), 

    I2C1_SlaveAddrInterruptHandler	PTR FTN()void  size(2) Largest target is 1
		 -> Absolute function(), I2C1_SlaveDefAddrInterruptHandler(), 

    I2C1_SlaveSetWriteIntHandler@handler	PTR FTN()void  size(2) Largest target is 1
		 -> I2C1_SlaveDefWrInterruptHandler(), 

    I2C1_SlaveWrInterruptHandler	PTR FTN()void  size(2) Largest target is 1
		 -> Absolute function(), I2C1_SlaveDefWrInterruptHandler(), 

    I2C1_SlaveSetReadIntHandler@handler	PTR FTN()void  size(2) Largest target is 1
		 -> I2C1_SlaveDefRdInterruptHandler(), 

    I2C1_SlaveRdInterruptHandler	PTR FTN()void  size(2) Largest target is 1
		 -> Absolute function(), I2C1_SlaveDefRdInterruptHandler(), 

    I2C1_SlaveSetIsrHandler@handler	PTR FTN()void  size(2) Largest target is 1
		 -> I2C1_Isr(), 

    I2C1_InterruptHandler	PTR FTN()void  size(2) Largest target is 1
		 -> Absolute function(), I2C1_Isr(), 


Critical Paths under _main in COMRAM

    _UART1_Initialize->_UART1_SetErrorHandler
    _UART1_Initialize->_UART1_SetFramingErrorHandler
    _UART1_Initialize->_UART1_SetOverrunErrorHandler
    _I2C1_Open->_I2C1_SlaveSetAddrIntHandler
    _I2C1_Open->_I2C1_SlaveSetBusColIntHandler
    _I2C1_Open->_I2C1_SlaveSetIsrHandler
    _I2C1_Open->_I2C1_SlaveSetReadIntHandler
    _I2C1_Open->_I2C1_SlaveSetWrColIntHandler
    _I2C1_Open->_I2C1_SlaveSetWriteIntHandler

Critical Paths under _I2C1_ISR in COMRAM

    _I2C1_ISR->_I2C1_Isr
    _I2C1_Isr->_I2C1_SlaveSetCounter
    _I2C1_SlaveDefWrInterruptHandler->_I2C1_SlaveSendTxData

Critical Paths under _Default_ISR in COMRAM

    None.

Critical Paths under _main in BANK5

    None.

Critical Paths under _I2C1_ISR in BANK5

    None.

Critical Paths under _Default_ISR in BANK5

    None.

Critical Paths under _main in BANK6

    None.

Critical Paths under _I2C1_ISR in BANK6

    None.

Critical Paths under _Default_ISR in BANK6

    None.

Critical Paths under _main in BANK7

    None.

Critical Paths under _I2C1_ISR in BANK7

    None.

Critical Paths under _Default_ISR in BANK7

    None.

Critical Paths under _main in BANK8

    None.

Critical Paths under _I2C1_ISR in BANK8

    None.

Critical Paths under _Default_ISR in BANK8

    None.

Critical Paths under _main in BANK9

    None.

Critical Paths under _I2C1_ISR in BANK9

    None.

Critical Paths under _Default_ISR in BANK9

    None.

Critical Paths under _main in BANK10

    None.

Critical Paths under _I2C1_ISR in BANK10

    None.

Critical Paths under _Default_ISR in BANK10

    None.

Critical Paths under _main in BANK11

    None.

Critical Paths under _I2C1_ISR in BANK11

    None.

Critical Paths under _Default_ISR in BANK11

    None.

Critical Paths under _main in BANK12

    None.

Critical Paths under _I2C1_ISR in BANK12

    None.

Critical Paths under _Default_ISR in BANK12

    None.

Critical Paths under _main in BANK13

    None.

Critical Paths under _I2C1_ISR in BANK13

    None.

Critical Paths under _Default_ISR in BANK13

    None.

Critical Paths under _main in BANK14

    None.

Critical Paths under _I2C1_ISR in BANK14

    None.

Critical Paths under _Default_ISR in BANK14

    None.

Critical Paths under _main in BANK15

    None.

Critical Paths under _I2C1_ISR in BANK15

    None.

Critical Paths under _Default_ISR in BANK15

    None.

Critical Paths under _main in BANK16

    None.

Critical Paths under _I2C1_ISR in BANK16

    None.

Critical Paths under _Default_ISR in BANK16

    None.

Critical Paths under _main in BANK17

    None.

Critical Paths under _I2C1_ISR in BANK17

    None.

Critical Paths under _Default_ISR in BANK17

    None.

Critical Paths under _main in BANK18

    None.

Critical Paths under _I2C1_ISR in BANK18

    None.

Critical Paths under _Default_ISR in BANK18

    None.

Critical Paths under _main in BANK19

    None.

Critical Paths under _I2C1_ISR in BANK19

    None.

Critical Paths under _Default_ISR in BANK19

    None.

Critical Paths under _main in BANK20

    None.

Critical Paths under _I2C1_ISR in BANK20

    None.

Critical Paths under _Default_ISR in BANK20

    None.

Critical Paths under _main in BANK21

    None.

Critical Paths under _I2C1_ISR in BANK21

    None.

Critical Paths under _Default_ISR in BANK21

    None.

Call Graph Tables:

 ---------------------------------------------------------------------------------
 (Depth) Function   	        Calls       Base Space   Used Autos Params    Refs
 ---------------------------------------------------------------------------------
 (0) _main                                                 3     3      0    1003
                                              7 COMRAM     2     2      0
                    _CMP1_Initialize
                          _I2C1_init
                   _UART1_Initialize
                         _UART1_Read
                     _interrupt_init
                _io_VDD_3V3_CE_write
                 _io_VDD_5V_EN_write
                _io_VDD_PIC_EN_write
                            _io_init
                        _system_init
 ---------------------------------------------------------------------------------
 (1) _system_init                                          0     0      0       0
 ---------------------------------------------------------------------------------
 (1) _io_init                                              0     0      0       0
 ---------------------------------------------------------------------------------
 (1) _io_VDD_PIC_EN_write                                  1     1      0      15
                                              5 COMRAM     1     1      0
 ---------------------------------------------------------------------------------
 (1) _io_VDD_5V_EN_write                                   1     1      0      15
                                              5 COMRAM     1     1      0
 ---------------------------------------------------------------------------------
 (1) _io_VDD_3V3_CE_write                                  1     1      0      15
                                              5 COMRAM     1     1      0
 ---------------------------------------------------------------------------------
 (1) _interrupt_init                                       1     1      0      15
                                              5 COMRAM     1     1      0
 ---------------------------------------------------------------------------------
 (1) _UART1_Read                                           0     0      0       0
                   Absolute function *
          _UART1_DefaultErrorHandler *
   _UART1_DefaultFramingErrorHandler *
   _UART1_DefaultOverrunErrorHandler *
 ---------------------------------------------------------------------------------
 (2) _UART1_DefaultOverrunErrorHandler                     0     0      0       0
 ---------------------------------------------------------------------------------
 (2) _UART1_DefaultFramingErrorHandler                     0     0      0       0
 ---------------------------------------------------------------------------------
 (2) _UART1_DefaultErrorHandler                            0     0      0       0
 ---------------------------------------------------------------------------------
 (7) Absolute function(Fake)                               0     0      0       0
 ---------------------------------------------------------------------------------
 (1) _UART1_Initialize                                     0     0      0     294
              _UART1_SetErrorHandler
       _UART1_SetFramingErrorHandler
       _UART1_SetOverrunErrorHandler
 ---------------------------------------------------------------------------------
 (2) _UART1_SetOverrunErrorHandler                         2     0      2      98
                                              5 COMRAM     2     0      2
 ---------------------------------------------------------------------------------
 (2) _UART1_SetFramingErrorHandler                         2     0      2      98
                                              5 COMRAM     2     0      2
 ---------------------------------------------------------------------------------
 (2) _UART1_SetErrorHandler                                2     0      2      98
                                              5 COMRAM     2     0      2
 ---------------------------------------------------------------------------------
 (1) _I2C1_init                                            0     0      0     648
                          _I2C1_Open
 ---------------------------------------------------------------------------------
 (2) _I2C1_Open                                            0     0      0     648
                _I2C1_SlaveEnableIrq
                     _I2C1_SlaveOpen
        _I2C1_SlaveSetAddrIntHandler
      _I2C1_SlaveSetBusColIntHandler
            _I2C1_SlaveSetIsrHandler
        _I2C1_SlaveSetReadIntHandler
             _I2C1_SlaveSetSlaveAddr
             _I2C1_SlaveSetSlaveMask
       _I2C1_SlaveSetWrColIntHandler
       _I2C1_SlaveSetWriteIntHandler
 ---------------------------------------------------------------------------------
 (3) _I2C1_SlaveSetWriteIntHandler                         2     0      2      98
                                              5 COMRAM     2     0      2
 ---------------------------------------------------------------------------------
 (3) _I2C1_SlaveSetWrColIntHandler                         2     0      2      98
                                              5 COMRAM     2     0      2
 ---------------------------------------------------------------------------------
 (3) _I2C1_SlaveSetSlaveMask                               1     1      0      30
                                              5 COMRAM     1     1      0
 ---------------------------------------------------------------------------------
 (3) _I2C1_SlaveSetSlaveAddr                               1     1      0      30
                                              5 COMRAM     1     1      0
 ---------------------------------------------------------------------------------
 (3) _I2C1_SlaveSetReadIntHandler                          2     0      2      98
                                              5 COMRAM     2     0      2
 ---------------------------------------------------------------------------------
 (3) _I2C1_SlaveSetIsrHandler                              2     0      2      98
                                              5 COMRAM     2     0      2
 ---------------------------------------------------------------------------------
 (3) _I2C1_SlaveSetBusColIntHandler                        2     0      2      98
                                              5 COMRAM     2     0      2
 ---------------------------------------------------------------------------------
 (3) _I2C1_SlaveSetAddrIntHandler                          2     0      2      98
                                              5 COMRAM     2     0      2
 ---------------------------------------------------------------------------------
 (3) _I2C1_SlaveOpen                                       0     0      0       0
 ---------------------------------------------------------------------------------
 (3) _I2C1_SlaveEnableIrq                                  0     0      0       0
 ---------------------------------------------------------------------------------
 (1) _CMP1_Initialize                                      0     0      0       0
 ---------------------------------------------------------------------------------
 Estimated maximum stack depth 7
 ---------------------------------------------------------------------------------
 (Depth) Function   	        Calls       Base Space   Used Autos Params    Refs
 ---------------------------------------------------------------------------------
 (4) _I2C1_ISR                                             2     2      0      30
                                              3 COMRAM     2     2      0
                           _I2C1_Isr
 ---------------------------------------------------------------------------------
 (5) _I2C1_Isr                                             2     2      0      30
                                              1 COMRAM     2     2      0
             _I2C1_SlaveAddrCallBack
                _I2C1_SlaveClearBuff
                 _I2C1_SlaveClearIrq
                   _I2C1_SlaveIsAddr
                   _I2C1_SlaveIsRead
              _I2C1_SlaveIsRxBufFull
                   _I2C1_SlaveIsStop
             _I2C1_SlaveIsTxBufEmpty
               _I2C1_SlaveRdCallBack
             _I2C1_SlaveReleaseClock
               _I2C1_SlaveSetCounter
               _I2C1_SlaveWrCallBack
 ---------------------------------------------------------------------------------
 (6) _I2C1_SlaveWrCallBack                                 0     0      0      15
                   Absolute function *
    _I2C1_SlaveDefWrInterruptHandler *
 ---------------------------------------------------------------------------------
 (7) _I2C1_SlaveDefWrInterruptHandler                      0     0      0      15
               _I2C1_SlaveSendTxData
 ---------------------------------------------------------------------------------
 (8) _I2C1_SlaveSendTxData                                 1     1      0      15
                                              0 COMRAM     1     1      0
 ---------------------------------------------------------------------------------
 (6) _I2C1_SlaveSetCounter                                 1     1      0      15
                                              0 COMRAM     1     1      0
 ---------------------------------------------------------------------------------
 (6) _I2C1_SlaveReleaseClock                               0     0      0       0
 ---------------------------------------------------------------------------------
 (6) _I2C1_SlaveRdCallBack                                 0     0      0       0
                   Absolute function *
    _I2C1_SlaveDefRdInterruptHandler *
 ---------------------------------------------------------------------------------
 (7) _I2C1_SlaveDefRdInterruptHandler                      0     0      0       0
                _I2C1_SlaveGetRxData
 ---------------------------------------------------------------------------------
 (8) _I2C1_SlaveGetRxData                                  0     0      0       0
 ---------------------------------------------------------------------------------
 (6) _I2C1_SlaveIsTxBufEmpty                               0     0      0       0
 ---------------------------------------------------------------------------------
 (6) _I2C1_SlaveIsStop                                     0     0      0       0
 ---------------------------------------------------------------------------------
 (6) _I2C1_SlaveIsRxBufFull                                0     0      0       0
 ---------------------------------------------------------------------------------
 (6) _I2C1_SlaveIsRead                                     0     0      0       0
 ---------------------------------------------------------------------------------
 (6) _I2C1_SlaveIsAddr                                     0     0      0       0
 ---------------------------------------------------------------------------------
 (6) _I2C1_SlaveClearIrq                                   0     0      0       0
 ---------------------------------------------------------------------------------
 (6) _I2C1_SlaveClearBuff                                  0     0      0       0
 ---------------------------------------------------------------------------------
 (6) _I2C1_SlaveAddrCallBack                               0     0      0       0
                   Absolute function *
  _I2C1_SlaveDefAddrInterruptHandler *
 ---------------------------------------------------------------------------------
 (7) _I2C1_SlaveDefAddrInterruptHandler                    0     0      0       0
                  _I2C1_SlaveGetAddr
 ---------------------------------------------------------------------------------
 (8) _I2C1_SlaveGetAddr                                    0     0      0       0
 ---------------------------------------------------------------------------------
 (7) Absolute function(Fake)                               0     0      0       0
 ---------------------------------------------------------------------------------
 Estimated maximum stack depth 8
 ---------------------------------------------------------------------------------
 (Depth) Function   	        Calls       Base Space   Used Autos Params    Refs
 ---------------------------------------------------------------------------------
 (4) _Default_ISR                                          0     0      0       0
 ---------------------------------------------------------------------------------
 Estimated maximum stack depth 4
 ---------------------------------------------------------------------------------

 Call Graph Graphs:

 _main (ROOT)
   _CMP1_Initialize
   _I2C1_init
     _I2C1_Open
       _I2C1_SlaveEnableIrq
       _I2C1_SlaveOpen
       _I2C1_SlaveSetAddrIntHandler
       _I2C1_SlaveSetBusColIntHandler
       _I2C1_SlaveSetIsrHandler
       _I2C1_SlaveSetReadIntHandler
       _I2C1_SlaveSetSlaveAddr
       _I2C1_SlaveSetSlaveMask
       _I2C1_SlaveSetWrColIntHandler
       _I2C1_SlaveSetWriteIntHandler
   _UART1_Initialize
     _UART1_SetErrorHandler
     _UART1_SetFramingErrorHandler
     _UART1_SetOverrunErrorHandler
   _UART1_Read
     Absolute function(Fake) *
     _UART1_DefaultErrorHandler *
     _UART1_DefaultFramingErrorHandler *
     _UART1_DefaultOverrunErrorHandler *
   _interrupt_init
   _io_VDD_3V3_CE_write
   _io_VDD_5V_EN_write
   _io_VDD_PIC_EN_write
   _io_init
   _system_init

 _I2C1_ISR (ROOT)
   _I2C1_Isr
     _I2C1_SlaveAddrCallBack
       Absolute function(Fake) *
       _I2C1_SlaveDefAddrInterruptHandler *
         _I2C1_SlaveGetAddr
     _I2C1_SlaveClearBuff
     _I2C1_SlaveClearIrq
     _I2C1_SlaveIsAddr
     _I2C1_SlaveIsRead
     _I2C1_SlaveIsRxBufFull
     _I2C1_SlaveIsStop
     _I2C1_SlaveIsTxBufEmpty
     _I2C1_SlaveRdCallBack
       Absolute function(Fake) *
       _I2C1_SlaveDefRdInterruptHandler *
         _I2C1_SlaveGetRxData
     _I2C1_SlaveReleaseClock
     _I2C1_SlaveSetCounter
     _I2C1_SlaveWrCallBack
       Absolute function(Fake) *
       _I2C1_SlaveDefWrInterruptHandler *
         _I2C1_SlaveSendTxData

 _Default_ISR (ROOT)

 Address spaces:
Name               Size   Autos  Total    Cost      Usage
BIGRAM            10FF      0       0      38        0.0%
EEDATA             200      0       0       0        0.0%
BITBIGSFRllllll    14F      0       0      61        0.0%
BITBANK21          100      0       0      36        0.0%
BANK21             100      0       0      37        0.0%
BITBANK20          100      0       0      34        0.0%
BANK20             100      0       0      35        0.0%
BITBANK19          100      0       0      32        0.0%
BANK19             100      0       0      33        0.0%
BITBANK18          100      0       0      30        0.0%
BANK18             100      0       0      31        0.0%
BITBANK17          100      0       0      28        0.0%
BANK17             100      0       0      29        0.0%
BITBANK16          100      0       0      26        0.0%
BANK16             100      0       0      27        0.0%
BITBANK15          100      0       0      24        0.0%
BANK15             100      0       0      25        0.0%
BITBANK14          100      0       0      22        0.0%
BANK14             100      0       0      23        0.0%
BITBANK13          100      0       0      20        0.0%
BANK13             100      0       0      21        0.0%
BITBANK12          100      0       0      18        0.0%
BANK12             100      0       0      19        0.0%
BITBANK11          100      0       0      16        0.0%
BANK11             100      0       0      17        0.0%
BITBANK10          100      0       0      14        0.0%
BANK10             100      0       0      15        0.0%
BITBANK9           100      0       0      12        0.0%
BANK9              100      0       0      13        0.0%
BITBANK8           100      0       0      10        0.0%
BANK8              100      0       0      11        0.0%
BITBANK7           100      0       0       8        0.0%
BANK7              100      0       0       9        0.0%
BITBANK6           100      0       0       6        0.0%
BANK6              100      0       0       7        0.0%
BITBIGSFRllhhll     BA      0       0      51        0.0%
BITBANK5            A0      0       0       4        0.0%
BANK5               A0      0      80       5       80.0%
BITBIGSFRllhhll     91      0       0      50        0.0%
BITBIGSFRllllll     63      0       0      66        0.0%
BITCOMRAM           5F      0       0       0        0.0%
COMRAM              5F      9      22       1       35.8%
BITBIGSFRlllllh     58      0       0      58        0.0%
BITBIGSFRllhhhl     4F      0       0      45        0.0%
BITBIGSFRllhhhl     46      0       0      47        0.0%
BITBIGSFRllllll     38      0       0      64        0.0%
BITBIGSFRh          29      0       0      39        0.0%
BITBIGSFRllllh      18      0       0      57        0.0%
BITBIGSFRllllll     10      0       0      60        0.0%
BITBIGSFRllhhhh      7      0       0      43        0.0%
BITBIGSFRllhhlh      7      0       0      48        0.0%
BITBIGSFRllhhlh      7      0       0      49        0.0%
BITBIGSFRllllll      7      0       0      65        0.0%
BITBIGSFRllhhhh      7      0       0      44        0.0%
BITBIGSFRlhhh        6      0       0      40        0.0%
BITBIGSFRlhhl        5      0       0      41        0.0%
BITBIGSFRlhll        5      0       0      42        0.0%
BITBIGSFRllhhhl      3      0       0      46        0.0%
BITBIGSFRllhhll      3      0       0      54        0.0%
BITBIGSFRlllllh      2      0       0      59        0.0%
BITBIGSFRllhhll      1      0       0      52        0.0%
BITBIGSFRllhhll      1      0       0      53        0.0%
BITBIGSFRllllll      1      0       0      62        0.0%
BITBIGSFRllllll      1      0       0      63        0.0%
BITBIGSFRllhlh       1      0       0      55        0.0%
BITBIGSFRlllhl       1      0       0      56        0.0%
BIGSFR               0      0       0     200        0.0%
BITSFR_5             0      0       0     200        0.0%
SFR_5                0      0       0     200        0.0%
BITSFR_4             0      0       0     200        0.0%
SFR_4                0      0       0     200        0.0%
BITSFR_3             0      0       0     200        0.0%
SFR_3                0      0       0     200        0.0%
BITSFR_2             0      0       0     200        0.0%
SFR_2                0      0       0     200        0.0%
BITSFR_1             0      0       0     200        0.0%
SFR_1                0      0       0     200        0.0%
BITSFR               0      0       0     200        0.0%
SFR                  0      0       0     200        0.0%
STACK                0      0       0       2        0.0%
NULL                 0      0       0       0        0.0%
ABS                  0      0      A2      67        0.0%
DATA                 0      0      A2       3        0.0%
CODE                 0      0       0       0        0.0%


Microchip Technology PIC18 Macro Assembler V2.35 build 20211206165544 
Symbol Table                                                                                   Sat Jul 30 20:58:19 2022

                    ??_I2C1_SlaveAddrCallBack 051A                             ??_CMP1_Initialize 051F  
                                          u10 064A                                            u11 0646  
                         __end_of_system_init 045E                        __end_of_interrupt_init 042A  
                                         l301 0720                                           l205 0592  
                                         l312 064C                                           l208 030E  
                                         l321 0672                                           l324 0696  
                                         l318 0684                                           l271 06F8  
                                         l256 0716                                           l416 045C  
                                         l281 072A                                           l259 070C  
                                         l291 0702                                           l452 06C2  
                                         l437 05CA                                           l552 03E4  
                                         l465 06D0                                           l449 06B4  
                                         l618 0572                                           l484 0428  
                                         l590 0764                                           l575 028C  
                                         l584 0762                                           l593 06E4  
                                         l569 01F4                                           l587 0760  
                                         l596 06DA                                           l599 06EE  
                                         _GIE 0026B7                                           u200 0216  
                                         u201 0212                                           u220 0242  
                                         u221 023E                                           u240 026E  
                                         u241 026A                                           u218 021E  
                                         u219 0232                                           u155 041C  
                                         u156 041E                                           u165 06B2  
                                         u238 024A                                           u190 0202  
                                         u166 06B4                                           u239 025E  
                                         u191 01FE                                           u175 06C0  
                                         u176 06C2                                           u185 06CE  
                                         u258 0274                                           u186 06D0  
                    __end_of_I2C1_SlaveIsAddr 063A                                           u259 0288  
                                         u427 034E                                           u437 0368  
                    __end_of_I2C1_SlaveIsRead 0624                      __end_of_I2C1_SlaveIsStop 05F8  
                                         tosl 0004FD                                           wreg 0004E8  
                            __end_of_I2C1_ISR 05B2                                          l1311 0676  
                                        l1313 0664                                          l1307 063A  
                                        l1309 064A                                          l1501 0232  
                                        l1327 0686                                          l1511 0288  
                                        l1503 0242                                          l1505 0244  
                                        l1441 0412                                          l1433 03E6  
                                        l1507 025E                                          l1451 0426  
                                        l1443 0414                                          l1435 03E8  
                                        l1509 026E                                          l1445 041E  
                                        l1437 03F0                                          l1453 042A  
                                        l1471 054C                                          l1447 0422  
                                        l1439 03FC                                          l1455 05B2  
                                        l1481 056E                                          l1473 0564  
                                        l1721 070E                                          l1449 0424  
                                        l1801 0320                              __end_of_I2C1_Isr 01F4  
                                        l1483 0570                                          l1475 0568  
                                        l1723 0718                                          l1731 06FA  
                                        l1491 01F4                                          l1811 0332  
                                        l1803 0324                                          l1477 056A  
                                        l1725 06F0                                          l1741 02AA  
                                        l1733 028E                                          l1493 0202  
                                        l1485 06AA                                          l1821 035C  
                                        l1813 0338                                          l1805 0328  
                                        l1479 056C                                          l1727 0704  
                                        l1751 02EA                                          l1743 02B6  
                                        l1735 0292                                          l1495 0206  
                                        l1487 06B8                                          l1823 035E  
                                        l1815 033E                                          l1807 032A  
                                        l1729 0722                                          l1761 02F6  
                                        l1753 02EC                                          l1745 02C2  
                                        l1737 0298                                          l1497 0216  
                                        l1489 06C6                                          l1817 0342  
                                        l1809 032C                                          l1771 0306  
                                        l1763 02F8                                          l1755 02EE  
                                        l1747 02CE                                          l1739 029E  
                                        l1499 0218                                          l1819 0344  
                                        l1773 030A                                          l1765 02FA  
                                        l1757 02F2                                          l1749 02DA  
                                        l1781 0574                                          l1767 02FC  
                                        l1759 02F4                                          l1783 058E  
                                        l1775 06DC                                          l1791 03D4  
                                        l1769 0302                                          l1777 06D2  
                                        l1793 03E0                                          l1785 037E  
                                        l1779 06E6                                          l1787 03BC  
                                        l1795 0310                                          l1789 03C8  
                                        l1797 0318                                          l1799 031C  
                                        _PMD0 000063                                          _PMD1 000064  
                                        _PMD2 000065                                          _PMD3 000066  
                                        _PMD4 000067                                          _PMD5 000068  
                                        _main 0310            I2C1_SlaveSetAddrIntHandler@handler 051F  
                                        indf2 0004DF                                          fsr2l 0004D9  
                                        start 00BA                                    _i2c1RdData 0518  
                                ___param_bank 000000                                    _i2c1WrData 0519  
          I2C1_SlaveSetReadIntHandler@handler 051F                  _I2C1_SlaveRdInterruptHandler 050F  
                _I2C1_SlaveWrInterruptHandler 050D                                   ?_UART1_Read 051A  
                            ??_I2C1_SlaveOpen 051F                             __end_of_I2C1_Open 0310  
                                       ?_main 051A                               ?_interrupt_init 051A  
                                       _U1P1H 0002A6                                         _U1P2H 0002A8  
                                       _U1P3H 0002AA                                         _U1P1L 0002A5  
                                       _U1P2L 0002A7                                         _U1P3L 0002A9  
                           __end_of_I2C1_init 0594                                         _U1UIR 0002B1  
                                       _U1RXB 0002A1                                         _U1TXB 0002A3  
                                       i2l330 0622                                         i2l253 01F2  
                                       i2l342 075E                                         i2l327 0638  
                                       i2l263 051C                                         i2l351 0752  
                                       i2l345 073C                                         i2l363 060C  
                                       i2l339 05F6                                         i2l275 04EE  
                                       i2l372 074C                                         i2l268 0490  
                                       i2l348 06A6                                         i2l285 054A  
                                       i2l357 05E0                                         i2l366 0734  
                                       i2l278 0660                                         i2l288 0744  
                                       i2l369 0758                                         i2l389 05A4  
                                       i2l489 0768                                         _OSCEN 0000B3  
                                 _Default_ISR 0768                       io_VDD_5V_EN_write@state 051F  
              I2C1_SlaveSetSlaveMask@maskAddr 051F                               __end_of_io_init 05CC  
                 __end_of_io_VDD_PIC_EN_write 06B6                                _i2c1SlaveState 0516  
                                       pclath 0004FA                                         pclatu 0004FB  
                                       status 0004D8           fp__UART1_DefaultFramingErrorHandler 0000  
    __end_of_UART1_DefaultFramingErrorHandler 0764            ??_UART1_DefaultFramingErrorHandler 051F  
           ?_UART1_DefaultFramingErrorHandler 051A              _UART1_DefaultFramingErrorHandler 0762  
                             __initialization 0492                                   _system_init 042A  
                                __end_of_main 037E                   ??_UART1_DefaultErrorHandler 051F  
                       _I2C1_InterruptHandler 0511                                   _Jaccess_reg 0514  
                                      ??_main 0521                            _I2C1_SlaveClearIrq 0736  
                               __activetblptr 000002                              _UART1_Initialize 037E  
                         ?_I2C1_SlaveClearIrq 051A                      io_VDD_3V3_CE_write@state 051F  
                                      _CM1NCH 000072                                        _CM1PCH 000073  
                                      _ACTCON 0000AC                       ?_I2C1_SlaveReleaseClock 051A  
                                      _U1CON0 0002AB                                        _U1CON1 0002AC  
                                      _U1CON2 0002AD                                        _U1BRGH 0002AF  
                                      _U1FIFO 0002B0                                        _U1BRGL 0002AE  
                                      _RA2PPS 000203                                        _RC3PPS 000214  
                                      _RC6PPS 000217                                        i2l1301 072E  
                                      i2l1303 0746                                        i2l1401 074E  
                                      i2l1403 0624                                        i2l1411 05CC  
                                      i2l1331 0464                                        i2l1341 073E  
                                      i2l1333 0474                                        i2l1407 051E  
                                      i2l1335 047C                                        i2l1423 04F0  
                                      i2l1415 04C2                                        i2l1409 0530  
                                      i2l1337 048E                                        i2l1329 045E  
                                      i2l1425 0502                                        i2l1417 04D4  
                                      i2l1521 00DA                                        i2l1419 05F8  
                                      i2l1339 064E                                        i2l1531 011C  
                                      i2l1523 00E4                                        i2l1515 00BE  
                                      i2l1541 0150                                        i2l1533 0124  
                                      i2l1525 00E8                                        i2l1517 00D2  
                                      i2l1551 0178                                        i2l1543 0154  
                                      i2l1535 012C                                        i2l1519 00D6  
                                      i2l1527 00F0                                        i2l1393 0736  
                                      i2l1385 060E                                        i2l1297 0754  
                                      i2l1553 0180                                        i2l1545 0158  
                                      i2l1537 0140                                        i2l1529 0108  
                                      i2l1395 075A                                        i2l1547 016C  
                                      i2l1539 0148                                        i2l1563 01B4  
                                      i2l1389 05E2                                        i2l1397 069A  
                                      i2l1557 0198                                        i2l1549 0174  
                                      i2l1565 01EE                                        i2l1399 06A0  
                                      i2l1559 01AC                                        i2l1657 05A0  
                                      i2l1845 01C8                                        _OSCFRQ 0000B1  
                                      i2u2_40 0474                                        i2u2_41 0470  
                                      i2u3_40 0620                                        i2u3_41 061A  
                                      i2u3_46 0622                                        i2u4_40 05F4  
                                      i2u4_41 05EE                                        i2u4_46 05F6  
                                      i2u5_40 0636                                        i2u5_41 0630  
                                      i2u6_40 0638                                        i2u7_40 0530  
                                      i2u7_41 052C                                        i2u8_48 0536  
                                      i2u9_40 05DE                                        i2u8_49 054A  
                                      i2u9_41 05D8                                        i2u9_46 05E0  
                       _UART1_SetErrorHandler 06E6                   __end_of_io_VDD_3V3_CE_write 06D2  
                        ??_I2C1_SlaveClearIrq 051A                                     ?_I2C1_ISR 051A  
                                      clear_0 0498                                        clear_1 04A4  
                                   ?_I2C1_Isr 051A                       ?_I2C1_SlaveSetSlaveAddr 051A  
                                      isa$std 000001                       ?_I2C1_SlaveSetSlaveMask 051A  
                                   ??_io_init 051F          __end_of_I2C1_SlaveSetWrColIntHandler 0704  
                _I2C1_SlaveSetWrColIntHandler 06FA          I2C1_SlaveSetBusColIntHandler@handler 051F  
                                      tblptru 0004F8                __end_of_I2C1_SlaveReleaseClock 0754  
        __end_of_UART1_SetOverrunErrorHandler 06DC                  _UART1_SetOverrunErrorHandler 06D2  
                      _I2C1_SlaveAddrCallBack 051E                     _UART1_DefaultErrorHandler 0764  
                                  __accesstop 0560                       __end_of__initialization 04B8  
         I2C1_SlaveSetWrColIntHandler@handler 051F                               _CMP1_Initialize 054C  
                               ___rparam_used 000001                                __pcstackCOMRAM 051A  
                              ivt0x8_undefint 00B8                __end_of_I2C1_SlaveSetSlaveAddr 0686  
              __end_of_I2C1_SlaveSetSlaveMask 0674                                    ??_I2C1_ISR 051D  
                                  ??_I2C1_Isr 051B                             ?_I2C1_SlaveIsAddr 051A  
                  __end_of_io_VDD_5V_EN_write 06C4                             ?_I2C1_SlaveIsRead 051A  
                           ?_I2C1_SlaveIsStop 051A                     _UART1_FramingErrorHandler 0505  
                          ??_I2C1_SlaveIsAddr 051A                            ??_I2C1_SlaveIsRead 051A  
                          ??_I2C1_SlaveIsStop 051A                           _I2C1_SlaveClearBuff 075A  
                                  __pbssBANK5 0560                 ?_UART1_SetOverrunErrorHandler 051F  
                      ?_UART1_SetErrorHandler 051F                           _I2C1_SlaveEnableIrq 0686  
                         _I2C1_SlaveGetRxData 0754                         _I2C1_SlaveIsRxBufFull 05F8  
                                     IVTBASEH 00045E                                       IVTBASEL 00045D  
                                     IVTBASEU 00045F                 ?_I2C1_SlaveSetWriteIntHandler 051F  
                        ?_I2C1_SlaveClearBuff 051A                                  ??_UART1_Read 051F  
                                     _I2C1PIR 00029A                                       _I2C1RXB 00028A  
                                     _I2C1TXB 00028B                              ??_interrupt_init 051F  
                                     _CM1CON0 000070                                       _CM1CON1 000071  
                        ?_I2C1_SlaveEnableIrq 051A                          ?_I2C1_SlaveGetRxData 051A  
                                     _U1ERRIE 0002B3                                       _U1ERRIR 0002B2  
                                ?_Default_ISR 051A                                       _OSCCON1 0000AD  
                                     _OSCCON3 0000AF                                     _I2C1_Open 028E  
                                     _IVTLOCK 000459                                       i2u10_40 04D4  
                                     i2u10_41 04D0                                       i2u12_40 060A  
                                     i2u11_48 04DA                                       i2u12_41 0604  
                                     i2u11_49 04EE                                       i2u12_46 060C  
                                     i2u13_40 0502                                       i2u13_41 04FE  
                                     i2u30_40 016C                                       i2u30_41 0168  
                                     i2u14_48 0508                                       i2u31_40 0194  
                                     i2u14_49 051C                                       i2u31_41 0190  
                                     i2u32_40 01AC                                       i2u32_41 01A8  
                                     i2u26_40 00D2                                       i2u26_41 00CE  
                                     i2u27_40 0108                                       i2u27_41 0104  
                                     i2u28_40 011C                                       i2u28_41 0118  
                                     i2u29_40 0140                                       i2u29_41 013C  
                                     _OSCTUNE 0000B0                                     _I2C1_init 0574  
                     __end_of_CMP1_Initialize 0574                      ?_I2C1_SlaveSetIsrHandler 051F  
                          __end_of_UART1_Read 028E                ?_I2C1_SlaveSetBusColIntHandler 051F  
                                     __Hparam 0000                                       __Lparam 0000  
                    __end_of_UART1_Initialize 03E6                         ??_I2C1_SlaveClearBuff 051A  
                                ?_system_init 051A                         ??_I2C1_SlaveEnableIrq 051F  
                       ??_I2C1_SlaveGetRxData 051A                                       __pcinit 0492  
                                     __ramtop 1600                                       __ptext0 0310  
                                     __ptext1 042A                                       __ptext2 05B2  
                                     __ptext3 06A8                                       __ptext4 06B6  
                                     __ptext5 06C4                                       __ptext6 03E6  
                                     __ptext7 01F4                                       __ptext8 0760  
                                     __ptext9 0762                _I2C1_SlaveAddrInterruptHandler 050B  
                                     _io_init 05B2                                   _I2C1ERRbits 000297  
             I2C1_SlaveSetSlaveAddr@slaveAddr 051F                                   _I2C1PIEbits 00029B  
                                  ?_I2C1_Open 051A                      ??_I2C1_SlaveIsTxBufEmpty 051A  
                                 _I2C1PIRbits 00029A                                    ?_I2C1_init 051A  
                        end_of_initialization 04B8                                 __Lmediumconst 0000  
                      ?_I2C1_SlaveIsRxBufFull 051A               _I2C1_SlaveWrColInterruptHandler 0507  
              ??_UART1_SetOverrunErrorHandler 0521                  __end_of_I2C1_SlaveRdCallBack 051E  
                    io_VDD_PIC_EN_write@state 051F                                       postinc0 0004EE  
              ??_I2C1_SlaveSetWriteIntHandler 0521                                     _PORTAbits 0004CE  
                                   _PORTBbits 0004CF               __end_of_I2C1_SlaveSetIsrHandler 0718  
                     ?_I2C1_SlaveAddrCallBack 051A                                     _TRISAbits 0004C6  
                                   _TRISBbits 0004C7                                     _TRISCbits 0004C8  
                            ?_CMP1_Initialize 051A                I2C1_SlaveSetIsrHandler@handler 051F  
                                 _CM1CON0bits 000070                   I2C1_SlaveSetCounter@counter 051A  
                               _i2c1SlaveAddr 0517                __end_of_I2C1_SlaveAddrCallBack 054C  
                __end_of_I2C1_SlaveSetCounter 06A8                  __end_of_I2C1_SlaveSendTxData 0736  
                         start_initialization 0492                                   ??_I2C1_Open 0521  
                __end_of_I2C1_SlaveWrCallBack 04F0                                   ??_I2C1_init 0521  
                     ??_UART1_SetErrorHandler 0521                                    ivt0x8_base 0008  
                           _I2C1_SlaveGetAddr 0746                            ?_I2C1_SlaveGetAddr 051A  
                          _io_VDD_5V_EN_write 06B6                      I2C1_SlaveSendTxData@data 051A  
                         ??_I2C1_SlaveGetAddr 051A                           ?_io_VDD_5V_EN_write 051A  
          fp__I2C1_SlaveDefRdInterruptHandler 0000       __end_of_I2C1_SlaveDefRdInterruptHandler 0492  
           ??_I2C1_SlaveDefRdInterruptHandler 051A              ?_I2C1_SlaveDefRdInterruptHandler 051A  
             _I2C1_SlaveDefRdInterruptHandler 045E            fp__I2C1_SlaveDefWrInterruptHandler 0000  
     __end_of_I2C1_SlaveDefWrInterruptHandler 0662             ??_I2C1_SlaveDefWrInterruptHandler 051B  
            ?_I2C1_SlaveDefWrInterruptHandler 051A               _I2C1_SlaveDefWrInterruptHandler 064E  
                                 __pbssCOMRAM 0501                            _UART1_ErrorHandler 0501  
                        ??_io_VDD_5V_EN_write 051F                          _I2C1_SlaveRdCallBack 04F0  
                   __end_of_I2C1_SlaveGetAddr 074E                  ?_I2C1_SlaveSetAddrIntHandler 051F  
                fp__UART1_DefaultErrorHandler 0000                        _I2C1_SlaveIsTxBufEmpty 05CC  
                           ?_UART1_Initialize 051A          __end_of_UART1_SetFramingErrorHandler 06E6  
                _UART1_SetFramingErrorHandler 06DC                  ?_I2C1_SlaveSetReadIntHandler 051F  
                                    _I2C1ADB0 00028E                                      _I2C1ADR0 000290  
                                    _I2C1ADR1 000291                                      _I2C1ADR2 000292  
                                    _I2C1ADR3 000293                                      _I2C1BAUD 00029D  
                          ??_UART1_Initialize 0521                                      _I2C1CON0 000294  
                                    _I2C1CON1 000295                                      _I2C1CON2 000296  
                                    _I2C1CNTH 00028D                                      _I2C1CNTL 00028C  
             ??_I2C1_SlaveSetBusColIntHandler 0521                                      _I2C1_ISR 0594  
                            _uart1RxLastError 0513                                      _I2C1_Isr 00BE  
                    ??_I2C1_SlaveReleaseClock 051A                                      ?_io_init 051A  
                         _io_VDD_PIC_EN_write 06A8           fp__UART1_DefaultOverrunErrorHandler 0000  
    __end_of_UART1_DefaultOverrunErrorHandler 0762            ??_UART1_DefaultOverrunErrorHandler 051F  
           ?_UART1_DefaultOverrunErrorHandler 051A              _UART1_DefaultOverrunErrorHandler 0760  
         __end_of_I2C1_SlaveSetAddrIntHandler 072C                   _I2C1_SlaveSetAddrIntHandler 0722  
                              _I2C1_SlaveOpen 063A                         ?_I2C1_SlaveRdCallBack 051A  
                     ??_I2C1_SlaveIsRxBufFull 051A                                   _U1ERRIRbits 0002B2  
               ?_I2C1_SlaveSetWrColIntHandler 051F                                    _I2C1SDAPPS 000270  
                                  _I2C1SCLPPS 000271                 ??_I2C1_SlaveSetAddrIntHandler 0521  
       UART1_SetErrorHandler@interruptHandler 051F                                      _LATBbits 0004BF  
                                    _LATCbits 0004C0                   __end_of_I2C1_SlaveClearBuff 0760  
                        ?_io_VDD_PIC_EN_write 051A                                      _IPR7bits 00036E  
                                    _PIE7bits 0004AF                      ??_I2C1_SlaveSetSlaveAddr 051F  
         __end_of_I2C1_SlaveSetReadIntHandler 070E                   _I2C1_SlaveSetReadIntHandler 0704  
                                    _IVTBASEH 00045E                                      _IVTBASEL 00045D  
                                    _IVTBASEU 00045F                      ??_I2C1_SlaveSetSlaveMask 051F  
                 __end_of_I2C1_SlaveEnableIrq 0698                          _I2C1_SlaveSetCounter 0698  
                               _I2C1STAT0bits 000298                                 _I2C1STAT1bits 000299  
                 __end_of_I2C1_SlaveGetRxData 075A                                      _PIR4bits 0004B7  
                        _I2C1_SlaveSendTxData 072C                          _I2C1_SlaveWrCallBack 04C2  
               ?_UART1_SetFramingErrorHandler 051F                 ??_I2C1_SlaveSetReadIntHandler 0521  
                      __end_of_I2C1_SlaveOpen 064E                                      _WPUCbits 000411  
            _I2C1_SlaveBusColInterruptHandler 0509                                   _INTCON0bits 0004D6  
          _I2C1_SlaveDefWrColInterruptHandler 000000                           _io_VDD_3V3_CE_write 06C4  
        fp__I2C1_SlaveDefAddrInterruptHandler 0000     __end_of_I2C1_SlaveDefAddrInterruptHandler 0746  
         ??_I2C1_SlaveDefAddrInterruptHandler 051A            ?_I2C1_SlaveDefAddrInterruptHandler 051A  
           _I2C1_SlaveDefAddrInterruptHandler 073E                         ??_io_VDD_PIC_EN_write 051F  
                            _I2C1_SlaveIsAddr 0624                              _I2C1_SlaveIsRead 060E  
                            _I2C1_SlaveIsStop 05E2                         ?_I2C1_SlaveSetCounter 051A  
                                    __Hrparam 0000                         ?_I2C1_SlaveSendTxData 051A  
                                    __Lrparam 0000                         ?_I2C1_SlaveWrCallBack 051A  
                        ?_io_VDD_3V3_CE_write 051A                                    _ANSELAbits 000400  
                                  _ANSELBbits 000408                                    _ANSELCbits 000410  
         _I2C1_SlaveDefBusColInterruptHandler 000000                               ?_I2C1_SlaveOpen 051A  
                      ??_I2C1_SlaveRdCallBack 051A         __end_of_I2C1_SlaveSetBusColIntHandler 0722  
               _I2C1_SlaveSetBusColIntHandler 0718                                  _I2C1CON0bits 000294  
                                _I2C1CON1bits 000295                                      __pivt0x8 0008  
                                 fp__I2C1_Isr 0000                                      __ptext10 0764  
                                    __ptext11 037E                                      __ptext20 0674  
                                    __ptext12 06D2                                      __ptext21 0704  
                                    __ptext13 06DC                                      __ptext30 04C2  
                                    __ptext22 070E                                      __ptext14 06E6  
                                    __ptext31 064E                                      __ptext23 0718  
                                    __ptext15 0574                                      __ptext40 05F8  
                                    __ptext32 072C                                      __ptext24 0722  
                                    __ptext16 028E                                      __ptext41 060E  
                                    __ptext33 0698                                      __ptext25 063A  
                                    __ptext17 06F0                                      __ptext42 0624  
                                    __ptext34 074E                                      __ptext26 0686  
                                    __ptext18 06FA                                      __ptext43 0736  
                                    __ptext35 04F0                                      __ptext27 054C  
                                    __ptext19 0662                                      __ptext44 075A  
                                    __ptext36 045E                                      __ptext28 0594  
                                    __ptext45 051E                                      __ptext37 0754  
                                    __ptext29 00BE                                      __ptext46 073E  
                                    __ptext38 05CC                                      __ptext47 0746  
                                    __ptext39 05E2                                      __ptext48 0768  
                                    __ptext49 0000                                    _U1CON0bits 0002AB  
               __end_of_UART1_SetErrorHandler 06F0          __end_of_I2C1_SlaveSetWriteIntHandler 06FA  
                _I2C1_SlaveSetWriteIntHandler 06F0                           interrupt_init@state 051F  
              ??_I2C1_SlaveSetWrColIntHandler 0521                    __end_of_I2C1_SlaveClearIrq 073E  
                                 _IVTLOCKbits 000459                       _I2C1_SlaveSetIsrHandler 070E  
                   _UART1_OverrunErrorHandler 0503  UART1_SetOverrunErrorHandler@interruptHandler 051F  
                                    isa$xinst 000000                    ?_UART1_DefaultErrorHandler 051A  
                                  _ODCONCbits 000412                         ??_io_VDD_3V3_CE_write 051F  
                               ??_Default_ISR 051F                ??_UART1_SetFramingErrorHandler 0521  
                                    intlevel2 0000                        _I2C1_SlaveReleaseClock 074E  
                     ?_I2C1_SlaveIsTxBufEmpty 051A                        ??_I2C1_SlaveSetCounter 051A  
                      ??_I2C1_SlaveSendTxData 051A                        ??_I2C1_SlaveWrCallBack 051B  
                               ??_system_init 051F                                    _UART1_Read 01F4  
         I2C1_SlaveSetWriteIntHandler@handler 051F  UART1_SetFramingErrorHandler@interruptHandler 051F  
           __end_of_UART1_DefaultErrorHandler 0766                                _Ji2c_registers 0560  
                      _I2C1_SlaveSetSlaveAddr 0674                                _interrupt_init 03E6  
                      _I2C1_SlaveSetSlaveMask 0662                           __end_of_Default_ISR 076A  
              __end_of_I2C1_SlaveIsTxBufEmpty 05E2                 __end_of_I2C1_SlaveIsRxBufFull 060E  
                   ??_I2C1_SlaveSetIsrHandler 0521                                    _Ji2c_state 0515  
