

Microchip MPLAB XC8 Assembler V2.35 build 20211206165544 
                                                                                               Thu Aug 04 11:52:49 2022

Microchip MPLAB XC8 C Compiler v2.35 (Free license) build 20211206165544 Og1 
     1                           	processor	18F16Q40
     2                           	fnconf	rparam,??,?,0
     3                           	pagewidth 120
     4                           	opt	flic
     5                           	psect	nvCOMRAM,global,class=COMRAM,space=1,delta=1,lowdata,noexec
     6                           	psect	cinit,global,reloc=2,class=CODE,delta=1
     7                           	psect	bssCOMRAM,global,class=COMRAM,space=1,delta=1,lowdata,noexec
     8                           	psect	bssBANK5,global,class=BANK5,space=1,delta=1,lowdata,noexec
     9                           	psect	cstackCOMRAM,global,class=COMRAM,space=1,delta=1,lowdata,noexec
    10                           	psect	text0,global,reloc=2,class=CODE,delta=1
    11                           	psect	text1,global,reloc=2,class=CODE,delta=1
    12                           	psect	text2,global,reloc=2,class=CODE,delta=1
    13                           	psect	text3,global,reloc=2,class=CODE,delta=1
    14                           	psect	text4,global,reloc=2,class=CODE,delta=1
    15                           	psect	text5,global,reloc=2,class=CODE,delta=1
    16                           	psect	text6,global,reloc=2,class=CODE,delta=1
    17                           	psect	text7,global,reloc=2,class=CODE,delta=1
    18                           	psect	text8,global,reloc=2,class=CODE,delta=1
    19                           	psect	text9,global,reloc=2,class=CODE,delta=1
    20                           	psect	text10,global,reloc=2,class=CODE,delta=1
    21                           	psect	text11,global,reloc=2,class=CODE,delta=1
    22                           	psect	text12,global,reloc=2,class=CODE,delta=1
    23                           	psect	text13,global,reloc=2,class=CODE,delta=1
    24                           	psect	text14,global,reloc=2,class=CODE,delta=1
    25                           	psect	text15,global,reloc=2,class=CODE,delta=1
    26                           	psect	text16,global,reloc=2,class=CODE,delta=1
    27                           	psect	text17,global,reloc=2,class=CODE,delta=1
    28                           	psect	text18,global,reloc=2,class=CODE,delta=1
    29                           	psect	text19,global,reloc=2,class=CODE,delta=1
    30                           	psect	text20,global,reloc=2,class=CODE,delta=1
    31                           	psect	text21,global,reloc=2,class=CODE,delta=1
    32                           	psect	text22,global,reloc=2,class=CODE,delta=1
    33                           	psect	text23,global,reloc=2,class=CODE,delta=1
    34                           	psect	text24,global,reloc=2,class=CODE,delta=1
    35                           	psect	text25,global,reloc=2,class=CODE,delta=1
    36                           	psect	text26,global,reloc=2,class=CODE,delta=1,inline
    37                           	psect	text27,global,reloc=2,class=CODE,delta=1,inline
    38                           	psect	text28,global,reloc=2,class=CODE,delta=1
    39                           	psect	text29,global,reloc=2,class=CODE,delta=1
    40                           	psect	text30,global,reloc=2,class=CODE,delta=1
    41                           	psect	text31,global,reloc=2,class=CODE,delta=1,inline
    42                           	psect	text32,global,reloc=2,class=CODE,delta=1,inline
    43                           	psect	text33,global,reloc=4,class=CODE,delta=1
    44                           	psect	text34,global,reloc=2,class=CODE,delta=1
    45                           	psect	text35,global,reloc=4,class=CODE,delta=1
    46                           	psect	text36,global,reloc=2,class=CODE,delta=1
    47                           	psect	text37,global,reloc=2,class=CODE,delta=1
    48                           	psect	text38,global,reloc=4,class=CODE,delta=1
    49                           	psect	text39,global,reloc=4,class=CODE,delta=1
    50                           	psect	text40,global,reloc=4,class=CODE,delta=1
    51                           	psect	text41,global,reloc=2,class=CODE,delta=1
    52                           	psect	ivt0x8,global,reloc=2,class=CODE,delta=1,noexec,keep,optim=
    53                           	psect	intsave_regs,global,class=BIGRAM,space=1,delta=1,noexec
    54                           	psect	text42,global,reloc=2,class=CODE,delta=1
    55                           	psect	rparam,global,class=COMRAM,space=1,delta=1,noexec
    56                           	psect	idloc,global,abs,ovrld,class=IDLOC,space=5,delta=1,noexec
    57                           	psect	config,global,abs,ovrld,class=CONFIG,space=4,delta=1,noexec
    58  0000                     
    59                           ; Version 2.32
    60                           ; Generated 10/02/2021 GMT
    61                           ; 
    62                           ; Copyright © 2021, Microchip Technology Inc. and its subsidiaries ("Microchip")
    63                           ; All rights reserved.
    64                           ; 
    65                           ; This software is developed by Microchip Technology Inc. and its subsidiaries ("Microch
      +                          ip").
    66                           ; 
    67                           ; Redistribution and use in source and binary forms, with or without modification, are
    68                           ; permitted provided that the following conditions are met:
    69                           ; 
    70                           ;     1. Redistributions of source code must retain the above copyright notice, this lis
      +                          t of
    71                           ;        conditions and the following disclaimer.
    72                           ; 
    73                           ;     2. Redistributions in binary form must reproduce the above copyright notice, this 
      +                          list
    74                           ;        of conditions and the following disclaimer in the documentation and/or other
    75                           ;        materials provided with the distribution. Publication is not required when
    76                           ;        this file is used in an embedded application.
    77                           ; 
    78                           ;     3. Microchip's name may not be used to endorse or promote products derived from th
      +                          is
    79                           ;        software without specific prior written permission.
    80                           ; 
    81                           ; THIS SOFTWARE IS PROVIDED BY MICROCHIP "AS IS" AND ANY EXPRESS OR IMPLIED WARRANTIES,
    82                           ; INCLUDING, BUT NOT LIMITED TO, THE IMPLIED WARRANTIES OF MERCHANTABILITY AND FITNESS F
      +                          OR
    83                           ; PURPOSE ARE DISCLAIMED.  IN NO EVENT SHALL MICROCHIP BE LIABLE FOR ANY DIRECT, INDIREC
      +                          T,
    84                           ; INCIDENTAL, SPECIAL, EXEMPLARY, OR CONSEQUENTIAL DAMAGES (INCLUDING BUT NOT LIMITED TO
    85                           ; PROCUREMENT OF SUBSTITUTE GOODS OR SERVICES; LOSS OF USE, DATA OR PROFITS; OR BUSINESS
    86                           ; INTERRUPTION) HOWSOEVER CAUSED AND ON ANY THEORY OF LIABILITY, WHETHER IN CONTRACT, ST
      +                          RICT
    87                           ; LIABILITY, OR TORT (INCLUDING NEGLIGENCE OR OTHERWISE) ARISING IN ANY WAY OUT OF THE U
      +                          SE OF
    88                           ; THIS SOFTWARE, EVEN IF ADVISED OF THE POSSIBILITY OF SUCH DAMAGE.
    89                           ; 
    90                           ; 
    91                           ; Code-generator required, PIC18F16Q40 Definitions
    92                           ; 
    93                           ; SFR Addresses
    94  0000                     
    95 ;; Function _I2C1_SlaveDefRdInterruptHandler is unused but had its address taken
    96  0000                     
    97 ;; Function _I2C1_SlaveDefWrInterruptHandler is unused but had its address taken
    98  0000                     
    99 ;; Function _I2C1_SlaveDefAddrInterruptHandler is unused but had its address taken
   100  0000                     
   101 ;; Function _I2C1_SlaveDefWrColInterruptHandler is unused but had its address taken
   102  0000                     
   103 ;; Function _I2C1_SlaveDefBusColInterruptHandler is unused but had its address taken
   104  0000                     _ADERRL	set	989
   105  0000                     _ADERRH	set	990
   106  0000                     _ADPREVL	set	1000
   107  0000                     _ADPREVH	set	1001
   108  0000                     _ADFLTRL	set	993
   109  0000                     _ADFLTRH	set	994
   110  0000                     _ADACCL	set	995
   111  0000                     _ADACCH	set	996
   112  0000                     _ADCNT	set	998
   113  0000                     _ADRESL	set	1002
   114  0000                     _ADRESH	set	1003
   115  0000                     _ADCON0	set	1011
   116  0000                     _ADCON1	set	1012
   117  0000                     _ADPREH	set	1010
   118  0000                     _ADPREL	set	1009
   119  0000                     _ADCAP	set	1008
   120  0000                     _ADACQH	set	1007
   121  0000                     _ADPCH	set	1004
   122  0000                     _ADRPT	set	999
   123  0000                     _ADACCU	set	997
   124  0000                     _ADSTPTH	set	992
   125  0000                     _ADSTPTL	set	991
   126  0000                     _ADUTHH	set	988
   127  0000                     _ADUTHL	set	987
   128  0000                     _ADLTHH	set	986
   129  0000                     _T1CON	set	788
   130  0000                     _T1CLK	set	791
   131  0000                     _T1GATE	set	790
   132  0000                     _T0CON0	set	794
   133  0000                     _I2C1STAT0bits	set	664
   134  0000                     _I2C1ERRbits	set	663
   135  0000                     _I2C1ADR3	set	659
   136  0000                     _I2C1ADR1	set	657
   137  0000                     _I2C1ADR2	set	658
   138  0000                     _I2C1STAT1bits	set	665
   139  0000                     _I2C1PIR	set	666
   140  0000                     _I2C1BAUD	set	669
   141  0000                     _I2C1CON2	set	662
   142  0000                     _I2C1CON1	set	661
   143  0000                     _OSCTUNE	set	176
   144  0000                     _OSCFRQ	set	177
   145  0000                     _OSCEN	set	179
   146  0000                     _I2C1SCLPPS	set	625
   147  0000                     _U1RXPPS	set	626
   148                           
   149                           	psect	nvCOMRAM
   150  00052A                     __pnvCOMRAM:
   151                           	callstack 0
   152  00052A                     _ADCC_ADI_InterruptHandler:
   153                           	callstack 0
   154  00052A                     	ds	2
   155  00052C                     _TMR1_InterruptHandler:
   156                           	callstack 0
   157  00052C                     	ds	2
   158  00052E                     _timer1ReloadVal:
   159                           	callstack 0
   160  00052E                     	ds	2
   161  000530                     _TMR0_InterruptHandler:
   162                           	callstack 0
   163  000530                     	ds	2
   164  000532                     _timer0ReloadVal16bit:
   165                           	callstack 0
   166  000532                     	ds	2
   167  000534                     _UART1_ErrorHandler:
   168                           	callstack 0
   169  000534                     	ds	2
   170  000536                     _UART1_OverrunErrorHandler:
   171                           	callstack 0
   172  000536                     	ds	2
   173  000538                     _UART1_FramingErrorHandler:
   174                           	callstack 0
   175  000538                     	ds	2
   176  0000                     _CM1CON0bits	set	112
   177  0000                     _I2C1CON1bits	set	661
   178  0000                     _I2C1PIRbits	set	666
   179  0000                     _I2C1CON0bits	set	660
   180  0000                     _U1ERRIRbits	set	690
   181  0000                     _U1CON0bits	set	683
   182  0000                     _ADCON1bits	set	1012
   183  0000                     _ADSTATbits	set	1015
   184  0000                     _ADCON2bits	set	1013
   185  0000                     _ADCON3bits	set	1014
   186  0000                     _ADCON0bits	set	1011
   187  0000                     _T1GCONbits	set	789
   188  0000                     _T1CONbits	set	788
   189  0000                     _T0CON0bits	set	794
   190  0000                     _IVTLOCKbits	set	1113
   191  0000                     _GIE	set	9911
   192  0000                     _PMD0	set	99
   193  0000                     _CM1CON0	set	112
   194  0000                     _RA2PPS	set	515
   195  0000                     _RC3PPS	set	532
   196  0000                     _I2C1SDAPPS	set	624
   197  0000                     _ANSELA	set	1024
   198  0000                     _ANSELB	set	1032
   199  0000                     _ANSELC	set	1040
   200  0000                     _LATA	set	1214
   201  0000                     _TRISA	set	1222
   202  0000                     _LATC	set	1216
   203  0000                     _LATB	set	1215
   204  0000                     _PORTAbits	set	1230
   205  0000                     _INTCON0bits	set	1238
   206  0000                     _TRISC	set	1224
   207  0000                     _TRISB	set	1223
   208  0000                     _IVTLOCK	set	1113
   209  0000                     _PIE7bits	set	1199
   210  0000                     _PIR4bits	set	1207
   211  0000                     _INLVLC	set	1044
   212  0000                     _SLRCONC	set	1043
   213  0000                     _ODCONC	set	1042
   214  0000                     _WPUC	set	1041
   215  0000                     _INLVLB	set	1036
   216  0000                     _SLRCONB	set	1035
   217  0000                     _ODCONB	set	1034
   218  0000                     _WPUB	set	1033
   219  0000                     _INLVLA	set	1028
   220  0000                     _SLRCONA	set	1027
   221  0000                     _ODCONA	set	1026
   222  0000                     _WPUA	set	1025
   223  0000                     _RC6PPS	set	535
   224  0000                     _I2C1RXB	set	650
   225  0000                     _I2C1TXB	set	651
   226  0000                     _I2C1CNTL	set	652
   227  0000                     _I2C1CON0	set	660
   228  0000                     _U1RXB	set	673
   229  0000                     _U1P1L	set	677
   230  0000                     _ACTCON	set	172
   231  0000                     _OSCCON1	set	173
   232  0000                     _CM1PCH	set	115
   233  0000                     _CM1NCH	set	114
   234  0000                     _CM1CON1	set	113
   235  0000                     _TMR1L	set	786
   236  0000                     _TMR1H	set	787
   237  0000                     _T1GCON	set	789
   238  0000                     _TMR0L	set	792
   239  0000                     _TMR0H	set	793
   240  0000                     _T0CON1	set	795
   241  0000                     _IPR1bits	set	872
   242  0000                     _IPR3bits	set	874
   243  0000                     _U1ERRIE	set	691
   244  0000                     _U1ERRIR	set	690
   245  0000                     _U1UIR	set	689
   246  0000                     _U1FIFO	set	688
   247  0000                     _U1BRGH	set	687
   248  0000                     _U1BRGL	set	686
   249  0000                     _U1CON2	set	685
   250  0000                     _U1CON1	set	684
   251  0000                     _U1CON0	set	683
   252  0000                     _U1P3H	set	682
   253  0000                     _U1P3L	set	681
   254  0000                     _U1P2H	set	680
   255  0000                     _U1P2L	set	679
   256  0000                     _U1P1H	set	678
   257  0000                     _U1TXB	set	675
   258  0000                     _OSCCON3	set	175
   259  0000                     _PMD5	set	104
   260  0000                     _PMD4	set	103
   261  0000                     _PMD3	set	102
   262  0000                     _PMD2	set	101
   263  0000                     _PMD1	set	100
   264  0000                     _I2C1ADB0	set	654
   265  0000                     _I2C1ADR0	set	656
   266  0000                     _I2C1CNTH	set	653
   267  0000                     _I2C1PIEbits	set	667
   268  0000                     _PIR1bits	set	1204
   269  0000                     _PIR3bits	set	1206
   270  0000                     _IVTBASEL	set	1117
   271  0000                     _IVTBASEH	set	1118
   272  0000                     _IVTBASEU	set	1119
   273  0000                     _PIE1bits	set	1193
   274  0000                     _PIE3bits	set	1195
   275  0000                     _IPR7bits	set	878
   276  0000                     _ADLTHL	set	985
   277  0000                     _ADACQL	set	1006
   278  0000                     _ADCLK	set	1018
   279  0000                     _ADACT	set	1017
   280  0000                     _ADREF	set	1016
   281  0000                     _ADSTAT	set	1015
   282  0000                     _ADCON3	set	1014
   283  0000                     _ADCON2	set	1013
   284                           
   285                           ; #config settings
   286                           
   287                           	psect	cinit
   288  0006FC                     __pcinit:
   289                           	callstack 0
   290  0006FC                     start_initialization:
   291                           	callstack 0
   292  0006FC                     __initialization:
   293                           	callstack 0
   294                           
   295                           ; Clear objects allocated to BANK5 (128 bytes)
   296  0006FC  EE01  F160         	lfsr	0,__pbssBANK5
   297  000700  0E80               	movlw	128
   298  000702                     clear_0:
   299  000702  6AEE               	clrf	postinc0,c
   300  000704  06E8               	decf	wreg,f,c
   301  000706  E1FD               	bnz	clear_0
   302                           
   303                           ; Clear objects allocated to COMRAM (24 bytes)
   304  000708  EE01  F101         	lfsr	0,__pbssCOMRAM
   305  00070C  0E18               	movlw	24
   306  00070E                     clear_1:
   307  00070E  6AEE               	clrf	postinc0,c
   308  000710  06E8               	decf	wreg,f,c
   309  000712  E1FD               	bnz	clear_1
   310                           
   311                           ;
   312                           ; Setup IVTBASE
   313                           ;
   314  000714  0104               	movlb	4
   315  000716  0E08               	movlw	(ivt0x8_base shr 0)& (0+255)
   316  000718  6F5D               	movwf	93,b
   317  00071A  0E00               	movlw	(ivt0x8_base shr (0+8))& (0+255)
   318  00071C  6F5E               	movwf	94,b
   319  00071E  0E00               	movlw	(ivt0x8_base shr (0+16))& (0+255)
   320  000720  6F5F               	movwf	95,b
   321  000722                     end_of_initialization:
   322                           	callstack 0
   323  000722                     __end_of__initialization:
   324                           	callstack 0
   325  000722  0E00               	movlw	low (__Lmediumconst shr (0+16))
   326  000724  6EF8               	movwf	tblptru,c
   327  000726  0100               	movlb	0
   328  000728  EF5A  F002         	goto	_main	;jump to C main() function
   329                           
   330                           	psect	bssCOMRAM
   331  000501                     __pbssCOMRAM:
   332                           	callstack 0
   333  000501                     _millis:
   334                           	callstack 0
   335  000501                     	ds	4
   336  000505                     _I2C1_SlaveWrColInterruptHandler:
   337                           	callstack 0
   338  000505                     	ds	2
   339  000507                     _I2C1_SlaveBusColInterruptHandler:
   340                           	callstack 0
   341  000507                     	ds	2
   342  000509                     _I2C1_SlaveAddrInterruptHandler:
   343                           	callstack 0
   344  000509                     	ds	2
   345  00050B                     _I2C1_SlaveWrInterruptHandler:
   346                           	callstack 0
   347  00050B                     	ds	2
   348  00050D                     _I2C1_SlaveRdInterruptHandler:
   349                           	callstack 0
   350  00050D                     	ds	2
   351  00050F                     _I2C1_InterruptHandler:
   352                           	callstack 0
   353  00050F                     	ds	2
   354  000511                     _Jaccess_reg:
   355                           	callstack 0
   356  000511                     	ds	1
   357  000512                     _Ji2c_state:
   358                           	callstack 0
   359  000512                     	ds	1
   360  000513                     _i2c1SlaveState:
   361                           	callstack 0
   362  000513                     	ds	1
   363  000514                     _i2c1SlaveAddr:
   364                           	callstack 0
   365  000514                     	ds	1
   366  000515                     _i2c1RdData:
   367                           	callstack 0
   368  000515                     	ds	1
   369  000516                     _i2c1WrData:
   370                           	callstack 0
   371  000516                     	ds	1
   372  000517                     _uart1RxLastError:
   373                           	callstack 0
   374  000517                     	ds	1
   375  000518                     _ADPCHSelector:
   376                           	callstack 0
   377  000518                     	ds	1
   378                           
   379                           	psect	bssBANK5
   380  000560                     __pbssBANK5:
   381                           	callstack 0
   382  000560                     _Ji2c_registers:
   383                           	callstack 0
   384  000560                     	ds	128
   385                           
   386                           	psect	cstackCOMRAM
   387  000519                     __pcstackCOMRAM:
   388                           	callstack 0
   389  000519                     ??_ADCC_DefaultInterruptHandler:
   390  000519                     
   391                           ; 1 bytes @ 0x0
   392  000519                     	ds	2
   393  00051B                     ??_ADCC_ISR:
   394                           
   395                           ; 1 bytes @ 0x2
   396  00051B                     	ds	2
   397  00051D                     ??_TMR0_ISR:
   398                           
   399                           ; 1 bytes @ 0x4
   400  00051D                     	ds	3
   401  000520                     ??_TMR1_DefaultInterruptHandler:
   402  000520                     TMR1_WriteTimer@timerVal:
   403                           	callstack 0
   404                           
   405                           ; 2 bytes @ 0x7
   406  000520                     	ds	2
   407  000522                     ??_TMR1_ISR:
   408                           
   409                           ; 1 bytes @ 0x9
   410  000522                     	ds	3
   411  000525                     I2C1_SlaveSetSlaveAddr@slaveAddr:
   412                           	callstack 0
   413  000525                     I2C1_SlaveSetSlaveMask@maskAddr:
   414                           	callstack 0
   415  000525                     INTERRUPT_Initialize@state:
   416                           	callstack 0
   417  000525                     UART1_SetFramingErrorHandler@interruptHandler:
   418                           	callstack 0
   419  000525                     UART1_SetOverrunErrorHandler@interruptHandler:
   420                           	callstack 0
   421  000525                     UART1_SetErrorHandler@interruptHandler:
   422                           	callstack 0
   423  000525                     I2C1_SlaveSetReadIntHandler@handler:
   424                           	callstack 0
   425  000525                     I2C1_SlaveSetWriteIntHandler@handler:
   426                           	callstack 0
   427  000525                     I2C1_SlaveSetAddrIntHandler@handler:
   428                           	callstack 0
   429  000525                     I2C1_SlaveSetWrColIntHandler@handler:
   430                           	callstack 0
   431  000525                     I2C1_SlaveSetBusColIntHandler@handler:
   432                           	callstack 0
   433  000525                     TMR0_SetInterruptHandler@InterruptHandler:
   434                           	callstack 0
   435  000525                     TMR1_SetInterruptHandler@InterruptHandler:
   436                           	callstack 0
   437  000525                     acquire_sync@i:
   438                           	callstack 0
   439  000525                     ADCC_SetADIInterruptHandler@InterruptHandler:
   440                           	callstack 0
   441                           
   442                           ; 2 bytes @ 0xC
   443  000525                     	ds	2
   444  000527                     ??_TMR1_Initialize:
   445  000527                     ??_TMR0_Initialize:
   446  000527                     acquire_sync@i_1518:
   447                           	callstack 0
   448                           
   449                           ; 2 bytes @ 0xE
   450  000527                     	ds	2
   451  000529                     main@i:
   452                           	callstack 0
   453                           
   454                           ; 1 bytes @ 0x10
   455  000529                     	ds	1
   456                           
   457 ;;
   458 ;;Main: autosize = 0, tempsize = 0, incstack = 0, save=0
   459 ;;
   460 ;; *************** function _main *****************
   461 ;; Defined at:
   462 ;;		line 49 in file "main.c"
   463 ;; Parameters:    Size  Location     Type
   464 ;;		None
   465 ;; Auto vars:     Size  Location     Type
   466 ;;  i               1   16[COMRAM] unsigned char 
   467 ;; Return value:  Size  Location     Type
   468 ;;                  1    wreg      void 
   469 ;; Registers used:
   470 ;;		wreg, fsr2l, fsr2h, status,2, status,0, pcl, pclath, pclatu, tosl, cstack
   471 ;; Tracked objects:
   472 ;;		On entry : 0/0
   473 ;;		On exit  : 0/0
   474 ;;		Unchanged: 0/0
   475 ;; Data sizes:     COMRAM   BANK5   BANK6   BANK7   BANK8   BANK9  BANK10  BANK11  BANK12  BANK13  BANK14  BANK15  BANK1
      +6  BANK17  BANK18  BANK19  BANK20  BANK21
   476 ;;      Params:         0       0       0       0       0       0       0       0       0       0       0       0       
      +0       0       0       0       0       0
   477 ;;      Locals:         1       0       0       0       0       0       0       0       0       0       0       0       
      +0       0       0       0       0       0
   478 ;;      Temps:          0       0       0       0       0       0       0       0       0       0       0       0       
      +0       0       0       0       0       0
   479 ;;      Totals:         1       0       0       0       0       0       0       0       0       0       0       0       
      +0       0       0       0       0       0
   480 ;;Total ram usage:        1 bytes
   481 ;; Hardware stack levels required when called: 7
   482 ;; This function calls:
   483 ;;		_I2C1_Open
   484 ;;		_SYSTEM_Initialize
   485 ;;		_UART1_Read
   486 ;;		_acquire_sync
   487 ;; This function is called by:
   488 ;;		Startup code after reset
   489 ;; This function uses a non-reentrant model
   490 ;;
   491                           
   492                           	psect	text0
   493  0004B4                     __ptext0:
   494                           	callstack 0
   495  0004B4                     _main:
   496                           	callstack 121
   497  0004B4                     
   498                           ;main.c: 52:     SYSTEM_Initialize();
   499  0004B4  ECAD  F003         	call	_SYSTEM_Initialize	;wreg free
   500                           
   501                           ;main.c: 54:     I2C1_Open();
   502  0004B8  EC84  F002         	call	_I2C1_Open	;wreg free
   503  0004BC                     
   504                           ;main.c: 61:     (INTCON0bits.GIEH = 1);
   505  0004BC  8ED6               	bsf	214,7,c	;volatile
   506  0004BE                     
   507                           ;main.c: 64:     (INTCON0bits.GIEL = 1);
   508  0004BE  8CD6               	bsf	214,6,c	;volatile
   509  0004C0                     l2332:
   510                           
   511                           ;main.c: 73:     {;main.c: 74:         acquire_sync();
   512  0004C0  EC19  F001         	call	_acquire_sync	;wreg free
   513  0004C4                     l2334:
   514                           
   515                           ;main.c: 76:         {;main.c: 77:             for (uint8_t i = 0; i < 12; i++)
   516  0004C4  0E00               	movlw	0
   517  0004C6  6E29               	movwf	main@i^(0+1280),c
   518  0004C8                     l2340:
   519                           
   520                           ;main.c: 78:                 Ji2c_registers[i] = UART1_Read();
   521  0004C8  0E60               	movlw	low _Ji2c_registers
   522  0004CA  2429               	addwf	main@i^(0+1280),w,c
   523  0004CC  6ED9               	movwf	fsr2l,c
   524  0004CE  6ADA               	clrf	fsr2h,c
   525  0004D0  0E05               	movlw	high _Ji2c_registers
   526  0004D2  22DA               	addwfc	fsr2h,f,c
   527  0004D4  ECCC  F000         	call	_UART1_Read	;wreg free
   528  0004D8  6EDF               	movwf	indf2,c
   529  0004DA  2A29               	incf	main@i^(0+1280),f,c
   530  0004DC  0E0B               	movlw	11
   531  0004DE  6429               	cpfsgt	main@i^(0+1280),c
   532  0004E0  EF74  F002         	goto	u531
   533  0004E4  EF76  F002         	goto	u530
   534  0004E8                     u531:
   535  0004E8  EF64  F002         	goto	l2340
   536  0004EC                     u530:
   537  0004EC                     
   538                           ;main.c: 80:             if (UART1_Read() != 0xAA)
   539  0004EC  ECCC  F000         	call	_UART1_Read	;wreg free
   540  0004F0  0AAA               	xorlw	170
   541  0004F2  B4D8               	btfsc	status,2,c
   542  0004F4  EF7E  F002         	goto	u541
   543  0004F8  EF80  F002         	goto	u540
   544  0004FC                     u541:
   545  0004FC  EF62  F002         	goto	l2334
   546  000500                     u540:
   547  000500  EF60  F002         	goto	l2332
   548  000504  EF5D  F000         	goto	start
   549  000508                     __end_of_main:
   550                           	callstack 0
   551                           
   552 ;; *************** function _acquire_sync *****************
   553 ;; Defined at:
   554 ;;		line 32 in file "main.c"
   555 ;; Parameters:    Size  Location     Type
   556 ;;		None
   557 ;; Auto vars:     Size  Location     Type
   558 ;;  i               2   14[COMRAM] int 
   559 ;;  i               2   12[COMRAM] int 
   560 ;; Return value:  Size  Location     Type
   561 ;;                  1    wreg      unsigned char 
   562 ;; Registers used:
   563 ;;		wreg, status,2, status,0, pcl, pclath, pclatu, tosl, cstack
   564 ;; Tracked objects:
   565 ;;		On entry : 0/0
   566 ;;		On exit  : 0/0
   567 ;;		Unchanged: 0/0
   568 ;; Data sizes:     COMRAM   BANK5   BANK6   BANK7   BANK8   BANK9  BANK10  BANK11  BANK12  BANK13  BANK14  BANK15  BANK1
      +6  BANK17  BANK18  BANK19  BANK20  BANK21
   569 ;;      Params:         0       0       0       0       0       0       0       0       0       0       0       0       
      +0       0       0       0       0       0
   570 ;;      Locals:         4       0       0       0       0       0       0       0       0       0       0       0       
      +0       0       0       0       0       0
   571 ;;      Temps:          0       0       0       0       0       0       0       0       0       0       0       0       
      +0       0       0       0       0       0
   572 ;;      Totals:         4       0       0       0       0       0       0       0       0       0       0       0       
      +0       0       0       0       0       0
   573 ;;Total ram usage:        4 bytes
   574 ;; Hardware stack levels used: 1
   575 ;; Hardware stack levels required when called: 6
   576 ;; This function calls:
   577 ;;		_UART1_Read
   578 ;; This function is called by:
   579 ;;		_main
   580 ;; This function uses a non-reentrant model
   581 ;;
   582                           
   583                           	psect	text1
   584  000232                     __ptext1:
   585                           	callstack 0
   586  000232                     _acquire_sync:
   587                           	callstack 121
   588  000232                     l1806:
   589  000232  ECCC  F000         	call	_UART1_Read	;wreg free
   590  000236  0AAA               	xorlw	170
   591  000238  A4D8               	btfss	status,2,c
   592  00023A  EF21  F001         	goto	u141
   593  00023E  EF23  F001         	goto	u140
   594  000242                     u141:
   595  000242  EF19  F001         	goto	l1806
   596  000246                     u140:
   597  000246                     
   598                           ;main.c: 38:     for (int i = 0; i < 10; i++)
   599  000246  0E00               	movlw	0
   600  000248  6E26               	movwf	(acquire_sync@i+1)^(0+1280),c
   601  00024A  0E00               	movlw	0
   602  00024C  6E25               	movwf	acquire_sync@i^(0+1280),c
   603  00024E                     l1814:
   604                           
   605                           ;main.c: 39:     {;main.c: 41:         for (int i = 0; i < 12; i++) UART1_Read();
   606  00024E  0E00               	movlw	0
   607  000250  6E28               	movwf	(acquire_sync@i_1518+1)^(0+1280),c
   608  000252  0E00               	movlw	0
   609  000254  6E27               	movwf	acquire_sync@i_1518^(0+1280),c
   610  000256                     l1820:
   611  000256  ECCC  F000         	call	_UART1_Read	;wreg free
   612  00025A  4A27               	infsnz	acquire_sync@i_1518^(0+1280),f,c
   613  00025C  2A28               	incf	(acquire_sync@i_1518+1)^(0+1280),f,c
   614  00025E  BE28               	btfsc	(acquire_sync@i_1518+1)^(0+1280),7,c
   615  000260  EF3B  F001         	goto	u151
   616  000264  5028               	movf	(acquire_sync@i_1518+1)^(0+1280),w,c
   617  000266  E109               	bnz	u150
   618  000268  0E0C               	movlw	12
   619  00026A  5C27               	subwf	acquire_sync@i_1518^(0+1280),w,c
   620  00026C  A0D8               	btfss	status,0,c
   621  00026E  EF3B  F001         	goto	u151
   622  000272  EF3D  F001         	goto	u150
   623  000276                     u151:
   624  000276  EF2B  F001         	goto	l1820
   625  00027A                     u150:
   626  00027A                     
   627                           ;main.c: 43:         if (UART1_Read() != 0xAA)
   628  00027A  ECCC  F000         	call	_UART1_Read	;wreg free
   629  00027E  0AAA               	xorlw	170
   630  000280  B4D8               	btfsc	status,2,c
   631  000282  EF45  F001         	goto	u161
   632  000286  EF47  F001         	goto	u160
   633  00028A                     u161:
   634  00028A  EF49  F001         	goto	l1830
   635  00028E                     u160:
   636  00028E  EF59  F001         	goto	l736
   637  000292                     l1830:
   638                           
   639                           ;main.c: 45:     }
   640  000292  4A25               	infsnz	acquire_sync@i^(0+1280),f,c
   641  000294  2A26               	incf	(acquire_sync@i+1)^(0+1280),f,c
   642  000296  BE26               	btfsc	(acquire_sync@i+1)^(0+1280),7,c
   643  000298  EF57  F001         	goto	u171
   644  00029C  5026               	movf	(acquire_sync@i+1)^(0+1280),w,c
   645  00029E  E109               	bnz	u170
   646  0002A0  0E0A               	movlw	10
   647  0002A2  5C25               	subwf	acquire_sync@i^(0+1280),w,c
   648  0002A4  A0D8               	btfss	status,0,c
   649  0002A6  EF57  F001         	goto	u171
   650  0002AA  EF59  F001         	goto	u170
   651  0002AE                     u171:
   652  0002AE  EF27  F001         	goto	l1814
   653  0002B2                     u170:
   654  0002B2                     l736:
   655  0002B2  0012               	return		;funcret
   656  0002B4                     __end_of_acquire_sync:
   657                           	callstack 0
   658                           
   659 ;; *************** function _UART1_Read *****************
   660 ;; Defined at:
   661 ;;		line 145 in file "mcc_generated_files/uart1.c"
   662 ;; Parameters:    Size  Location     Type
   663 ;;		None
   664 ;; Auto vars:     Size  Location     Type
   665 ;;		None
   666 ;; Return value:  Size  Location     Type
   667 ;;                  1    wreg      unsigned char 
   668 ;; Registers used:
   669 ;;		wreg, status,2, pcl, pclath, pclatu, tosl, cstack
   670 ;; Tracked objects:
   671 ;;		On entry : 0/0
   672 ;;		On exit  : 0/0
   673 ;;		Unchanged: 0/0
   674 ;; Data sizes:     COMRAM   BANK5   BANK6   BANK7   BANK8   BANK9  BANK10  BANK11  BANK12  BANK13  BANK14  BANK15  BANK1
      +6  BANK17  BANK18  BANK19  BANK20  BANK21
   675 ;;      Params:         0       0       0       0       0       0       0       0       0       0       0       0       
      +0       0       0       0       0       0
   676 ;;      Locals:         0       0       0       0       0       0       0       0       0       0       0       0       
      +0       0       0       0       0       0
   677 ;;      Temps:          0       0       0       0       0       0       0       0       0       0       0       0       
      +0       0       0       0       0       0
   678 ;;      Totals:         0       0       0       0       0       0       0       0       0       0       0       0       
      +0       0       0       0       0       0
   679 ;;Total ram usage:        0 bytes
   680 ;; Hardware stack levels used: 1
   681 ;; Hardware stack levels required when called: 5
   682 ;; This function calls:
   683 ;;		Absolute function
   684 ;;		_UART1_DefaultErrorHandler
   685 ;;		_UART1_DefaultFramingErrorHandler
   686 ;;		_UART1_DefaultOverrunErrorHandler
   687 ;; This function is called by:
   688 ;;		_acquire_sync
   689 ;;		_main
   690 ;; This function uses a non-reentrant model
   691 ;;
   692                           
   693                           	psect	text2
   694  000198                     __ptext2:
   695                           	callstack 0
   696  000198                     _UART1_Read:
   697                           	callstack 121
   698  000198                     l156:
   699                           
   700                           ;mcc_generated_files/uart1.c: 147:     while(!PIR4bits.U1RXIF)
   701  000198  A0B7               	btfss	183,0,c	;volatile
   702  00019A  EFD1  F000         	goto	u11
   703  00019E  EFD3  F000         	goto	u10
   704  0001A2                     u11:
   705  0001A2  EFCC  F000         	goto	l156
   706  0001A6                     u10:
   707  0001A6                     
   708                           ;mcc_generated_files/uart1.c: 151:     uart1RxLastError.status = 0;
   709  0001A6  0E00               	movlw	0
   710  0001A8  6E17               	movwf	_uart1RxLastError^(0+1280),c	;volatile
   711  0001AA                     
   712                           ;mcc_generated_files/uart1.c: 153:     if(U1ERRIRbits.FERIF){
   713  0001AA  0102               	movlb	2	; () banked
   714  0001AC  A7B2               	btfss	178,3,b	;volatile
   715  0001AE  EFDB  F000         	goto	u21
   716  0001B2  EFDD  F000         	goto	u20
   717  0001B6                     u21:
   718  0001B6  EFEB  F000         	goto	l1652
   719  0001BA                     u20:
   720  0001BA                     
   721                           ; BSR set to: 2
   722                           ;mcc_generated_files/uart1.c: 154:         uart1RxLastError.ferr = 1;
   723  0001BA  8217               	bsf	_uart1RxLastError^(0+1280),1,c	;volatile
   724  0001BC                     
   725                           ; BSR set to: 2
   726                           ;mcc_generated_files/uart1.c: 155:         UART1_FramingErrorHandler();
   727  0001BC  D802               	call	u38
   728  0001BE  EFEB  F000         	goto	u39
   729  0001C2                     u38:
   730  0001C2  0005               	push	
   731  0001C4  6EFA               	movwf	pclath,c
   732  0001C6  5038               	movf	_UART1_FramingErrorHandler^(0+1280),w,c
   733  0001C8  6EFD               	movwf	tosl,c
   734  0001CA  5039               	movf	(_UART1_FramingErrorHandler+1)^(0+1280),w,c
   735  0001CC  6EFE               	movwf	tosh,c
   736  0001CE  50F8               	movf	tblptru,w,c
   737  0001D0  6EFF               	movwf	tosu,c
   738  0001D2  50FA               	movf	pclath,w,c
   739  0001D4  0012               	return		;indir
   740  0001D6                     u39:
   741  0001D6                     l1652:
   742                           
   743                           ;mcc_generated_files/uart1.c: 158:     if(U1ERRIRbits.RXFOIF){
   744  0001D6  0102               	movlb	2	; () banked
   745  0001D8  A3B2               	btfss	178,1,b	;volatile
   746  0001DA  EFF1  F000         	goto	u41
   747  0001DE  EFF3  F000         	goto	u40
   748  0001E2                     u41:
   749  0001E2  EF01  F001         	goto	l1658
   750  0001E6                     u40:
   751  0001E6                     
   752                           ; BSR set to: 2
   753                           ;mcc_generated_files/uart1.c: 159:         uart1RxLastError.oerr = 1;
   754  0001E6  8417               	bsf	_uart1RxLastError^(0+1280),2,c	;volatile
   755  0001E8                     
   756                           ; BSR set to: 2
   757                           ;mcc_generated_files/uart1.c: 160:         UART1_OverrunErrorHandler();
   758  0001E8  D802               	call	u58
   759  0001EA  EF01  F001         	goto	u59
   760  0001EE                     u58:
   761  0001EE  0005               	push	
   762  0001F0  6EFA               	movwf	pclath,c
   763  0001F2  5036               	movf	_UART1_OverrunErrorHandler^(0+1280),w,c
   764  0001F4  6EFD               	movwf	tosl,c
   765  0001F6  5037               	movf	(_UART1_OverrunErrorHandler+1)^(0+1280),w,c
   766  0001F8  6EFE               	movwf	tosh,c
   767  0001FA  50F8               	movf	tblptru,w,c
   768  0001FC  6EFF               	movwf	tosu,c
   769  0001FE  50FA               	movf	pclath,w,c
   770  000200  0012               	return		;indir
   771  000202                     u59:
   772  000202                     l1658:
   773                           
   774                           ;mcc_generated_files/uart1.c: 163:     if(uart1RxLastError.status){
   775  000202  5017               	movf	_uart1RxLastError^(0+1280),w,c	;volatile
   776  000204  B4D8               	btfsc	status,2,c
   777  000206  EF07  F001         	goto	u61
   778  00020A  EF09  F001         	goto	u60
   779  00020E                     u61:
   780  00020E  EF16  F001         	goto	l1662
   781  000212                     u60:
   782  000212                     
   783                           ;mcc_generated_files/uart1.c: 164:         UART1_ErrorHandler();
   784  000212  D802               	call	u78
   785  000214  EF16  F001         	goto	u79
   786  000218                     u78:
   787  000218  0005               	push	
   788  00021A  6EFA               	movwf	pclath,c
   789  00021C  5034               	movf	_UART1_ErrorHandler^(0+1280),w,c
   790  00021E  6EFD               	movwf	tosl,c
   791  000220  5035               	movf	(_UART1_ErrorHandler+1)^(0+1280),w,c
   792  000222  6EFE               	movwf	tosh,c
   793  000224  50F8               	movf	tblptru,w,c
   794  000226  6EFF               	movwf	tosu,c
   795  000228  50FA               	movf	pclath,w,c
   796  00022A  0012               	return		;indir
   797  00022C                     u79:
   798  00022C                     l1662:
   799                           
   800                           ;mcc_generated_files/uart1.c: 167:     return U1RXB;
   801  00022C  0102               	movlb	2	; () banked
   802  00022E  51A1               	movf	161,w,b	;volatile
   803  000230                     
   804                           ; BSR set to: 2
   805  000230  0012               	return		;funcret
   806  000232                     __end_of_UART1_Read:
   807                           	callstack 0
   808                           
   809 ;; *************** function _UART1_DefaultOverrunErrorHandler *****************
   810 ;; Defined at:
   811 ;;		line 185 in file "mcc_generated_files/uart1.c"
   812 ;; Parameters:    Size  Location     Type
   813 ;;		None
   814 ;; Auto vars:     Size  Location     Type
   815 ;;		None
   816 ;; Return value:  Size  Location     Type
   817 ;;                  1    wreg      void 
   818 ;; Registers used:
   819 ;;		None
   820 ;; Tracked objects:
   821 ;;		On entry : 0/0
   822 ;;		On exit  : 0/0
   823 ;;		Unchanged: 0/0
   824 ;; Data sizes:     COMRAM   BANK5   BANK6   BANK7   BANK8   BANK9  BANK10  BANK11  BANK12  BANK13  BANK14  BANK15  BANK1
      +6  BANK17  BANK18  BANK19  BANK20  BANK21
   825 ;;      Params:         0       0       0       0       0       0       0       0       0       0       0       0       
      +0       0       0       0       0       0
   826 ;;      Locals:         0       0       0       0       0       0       0       0       0       0       0       0       
      +0       0       0       0       0       0
   827 ;;      Temps:          0       0       0       0       0       0       0       0       0       0       0       0       
      +0       0       0       0       0       0
   828 ;;      Totals:         0       0       0       0       0       0       0       0       0       0       0       0       
      +0       0       0       0       0       0
   829 ;;Total ram usage:        0 bytes
   830 ;; Hardware stack levels used: 1
   831 ;; Hardware stack levels required when called: 4
   832 ;; This function calls:
   833 ;;		Nothing
   834 ;; This function is called by:
   835 ;;		_UART1_Initialize
   836 ;;		_UART1_Read
   837 ;; This function uses a non-reentrant model
   838 ;;
   839                           
   840                           	psect	text3
   841  0008BE                     __ptext3:
   842                           	callstack 0
   843  0008BE                     _UART1_DefaultOverrunErrorHandler:
   844                           	callstack 121
   845  0008BE  0012               	return		;funcret
   846  0008C0                     __end_of_UART1_DefaultOverrunErrorHandler:
   847                           	callstack 0
   848                           
   849 ;; *************** function _UART1_DefaultFramingErrorHandler *****************
   850 ;; Defined at:
   851 ;;		line 183 in file "mcc_generated_files/uart1.c"
   852 ;; Parameters:    Size  Location     Type
   853 ;;		None
   854 ;; Auto vars:     Size  Location     Type
   855 ;;		None
   856 ;; Return value:  Size  Location     Type
   857 ;;                  1    wreg      void 
   858 ;; Registers used:
   859 ;;		None
   860 ;; Tracked objects:
   861 ;;		On entry : 0/0
   862 ;;		On exit  : 0/0
   863 ;;		Unchanged: 0/0
   864 ;; Data sizes:     COMRAM   BANK5   BANK6   BANK7   BANK8   BANK9  BANK10  BANK11  BANK12  BANK13  BANK14  BANK15  BANK1
      +6  BANK17  BANK18  BANK19  BANK20  BANK21
   865 ;;      Params:         0       0       0       0       0       0       0       0       0       0       0       0       
      +0       0       0       0       0       0
   866 ;;      Locals:         0       0       0       0       0       0       0       0       0       0       0       0       
      +0       0       0       0       0       0
   867 ;;      Temps:          0       0       0       0       0       0       0       0       0       0       0       0       
      +0       0       0       0       0       0
   868 ;;      Totals:         0       0       0       0       0       0       0       0       0       0       0       0       
      +0       0       0       0       0       0
   869 ;;Total ram usage:        0 bytes
   870 ;; Hardware stack levels used: 1
   871 ;; Hardware stack levels required when called: 4
   872 ;; This function calls:
   873 ;;		Nothing
   874 ;; This function is called by:
   875 ;;		_UART1_Initialize
   876 ;;		_UART1_Read
   877 ;; This function uses a non-reentrant model
   878 ;;
   879                           
   880                           	psect	text4
   881  0008C0                     __ptext4:
   882                           	callstack 0
   883  0008C0                     _UART1_DefaultFramingErrorHandler:
   884                           	callstack 121
   885  0008C0  0012               	return		;funcret
   886  0008C2                     __end_of_UART1_DefaultFramingErrorHandler:
   887                           	callstack 0
   888                           
   889 ;; *************** function _UART1_DefaultErrorHandler *****************
   890 ;; Defined at:
   891 ;;		line 187 in file "mcc_generated_files/uart1.c"
   892 ;; Parameters:    Size  Location     Type
   893 ;;		None
   894 ;; Auto vars:     Size  Location     Type
   895 ;;		None
   896 ;; Return value:  Size  Location     Type
   897 ;;                  1    wreg      void 
   898 ;; Registers used:
   899 ;;		None
   900 ;; Tracked objects:
   901 ;;		On entry : 0/0
   902 ;;		On exit  : 0/0
   903 ;;		Unchanged: 0/0
   904 ;; Data sizes:     COMRAM   BANK5   BANK6   BANK7   BANK8   BANK9  BANK10  BANK11  BANK12  BANK13  BANK14  BANK15  BANK1
      +6  BANK17  BANK18  BANK19  BANK20  BANK21
   905 ;;      Params:         0       0       0       0       0       0       0       0       0       0       0       0       
      +0       0       0       0       0       0
   906 ;;      Locals:         0       0       0       0       0       0       0       0       0       0       0       0       
      +0       0       0       0       0       0
   907 ;;      Temps:          0       0       0       0       0       0       0       0       0       0       0       0       
      +0       0       0       0       0       0
   908 ;;      Totals:         0       0       0       0       0       0       0       0       0       0       0       0       
      +0       0       0       0       0       0
   909 ;;Total ram usage:        0 bytes
   910 ;; Hardware stack levels used: 1
   911 ;; Hardware stack levels required when called: 4
   912 ;; This function calls:
   913 ;;		Nothing
   914 ;; This function is called by:
   915 ;;		_UART1_Initialize
   916 ;;		_UART1_Read
   917 ;; This function uses a non-reentrant model
   918 ;;
   919                           
   920                           	psect	text5
   921  0008C2                     __ptext5:
   922                           	callstack 0
   923  0008C2                     _UART1_DefaultErrorHandler:
   924                           	callstack 121
   925  0008C2  0012               	return		;funcret
   926  0008C4                     __end_of_UART1_DefaultErrorHandler:
   927                           	callstack 0
   928                           
   929 ;; *************** function _SYSTEM_Initialize *****************
   930 ;; Defined at:
   931 ;;		line 50 in file "mcc_generated_files/mcc.c"
   932 ;; Parameters:    Size  Location     Type
   933 ;;		None
   934 ;; Auto vars:     Size  Location     Type
   935 ;;		None
   936 ;; Return value:  Size  Location     Type
   937 ;;                  1    wreg      void 
   938 ;; Registers used:
   939 ;;		wreg, status,2, status,0, cstack
   940 ;; Tracked objects:
   941 ;;		On entry : 0/0
   942 ;;		On exit  : 0/0
   943 ;;		Unchanged: 0/0
   944 ;; Data sizes:     COMRAM   BANK5   BANK6   BANK7   BANK8   BANK9  BANK10  BANK11  BANK12  BANK13  BANK14  BANK15  BANK1
      +6  BANK17  BANK18  BANK19  BANK20  BANK21
   945 ;;      Params:         0       0       0       0       0       0       0       0       0       0       0       0       
      +0       0       0       0       0       0
   946 ;;      Locals:         0       0       0       0       0       0       0       0       0       0       0       0       
      +0       0       0       0       0       0
   947 ;;      Temps:          0       0       0       0       0       0       0       0       0       0       0       0       
      +0       0       0       0       0       0
   948 ;;      Totals:         0       0       0       0       0       0       0       0       0       0       0       0       
      +0       0       0       0       0       0
   949 ;;Total ram usage:        0 bytes
   950 ;; Hardware stack levels used: 1
   951 ;; Hardware stack levels required when called: 6
   952 ;; This function calls:
   953 ;;		_ADCC_Initialize
   954 ;;		_CMP1_Initialize
   955 ;;		_I2C1_Initialize
   956 ;;		_INTERRUPT_Initialize
   957 ;;		_OSCILLATOR_Initialize
   958 ;;		_PIN_MANAGER_Initialize
   959 ;;		_PMD_Initialize
   960 ;;		_TMR0_Initialize
   961 ;;		_TMR1_Initialize
   962 ;;		_UART1_Initialize
   963 ;; This function is called by:
   964 ;;		_main
   965 ;; This function uses a non-reentrant model
   966 ;;
   967                           
   968                           	psect	text6
   969  00075A                     __ptext6:
   970                           	callstack 0
   971  00075A                     _SYSTEM_Initialize:
   972                           	callstack 121
   973  00075A                     
   974                           ;mcc_generated_files/mcc.c: 52:     INTERRUPT_Initialize();
   975  00075A  ECAD  F002         	call	_INTERRUPT_Initialize	;wreg free
   976                           
   977                           ;mcc_generated_files/mcc.c: 53:     PMD_Initialize();
   978  00075E  ECC2  F003         	call	_PMD_Initialize	;wreg free
   979                           
   980                           ;mcc_generated_files/mcc.c: 54:     I2C1_Initialize();
   981  000762  ECDE  F003         	call	_I2C1_Initialize	;wreg free
   982                           
   983                           ;mcc_generated_files/mcc.c: 55:     PIN_MANAGER_Initialize();
   984  000766  EC5A  F001         	call	_PIN_MANAGER_Initialize	;wreg free
   985                           
   986                           ;mcc_generated_files/mcc.c: 56:     OSCILLATOR_Initialize();
   987  00076A  ECD0  F003         	call	_OSCILLATOR_Initialize	;wreg free
   988                           
   989                           ;mcc_generated_files/mcc.c: 57:     CMP1_Initialize();
   990  00076E  ECF9  F003         	call	_CMP1_Initialize	;wreg free
   991  000772                     
   992                           ;mcc_generated_files/mcc.c: 58:     ADCC_Initialize();
   993  000772  EC91  F001         	call	_ADCC_Initialize	;wreg free
   994  000776                     
   995                           ;mcc_generated_files/mcc.c: 59:     TMR1_Initialize();
   996  000776  EC3D  F003         	call	_TMR1_Initialize	;wreg free
   997  00077A                     
   998                           ;mcc_generated_files/mcc.c: 60:     TMR0_Initialize();
   999  00077A  EC5F  F003         	call	_TMR0_Initialize	;wreg free
  1000  00077E                     
  1001                           ;mcc_generated_files/mcc.c: 61:     UART1_Initialize();
  1002  00077E  ECC6  F001         	call	_UART1_Initialize	;wreg free
  1003  000782  0012               	return		;funcret
  1004  000784                     __end_of_SYSTEM_Initialize:
  1005                           	callstack 0
  1006                           
  1007 ;; *************** function _UART1_Initialize *****************
  1008 ;; Defined at:
  1009 ;;		line 66 in file "mcc_generated_files/uart1.c"
  1010 ;; Parameters:    Size  Location     Type
  1011 ;;		None
  1012 ;; Auto vars:     Size  Location     Type
  1013 ;;		None
  1014 ;; Return value:  Size  Location     Type
  1015 ;;                  1    wreg      void 
  1016 ;; Registers used:
  1017 ;;		wreg, status,2, status,0, cstack
  1018 ;; Tracked objects:
  1019 ;;		On entry : 0/0
  1020 ;;		On exit  : 0/0
  1021 ;;		Unchanged: 0/0
  1022 ;; Data sizes:     COMRAM   BANK5   BANK6   BANK7   BANK8   BANK9  BANK10  BANK11  BANK12  BANK13  BANK14  BANK15  BANK1
      +6  BANK17  BANK18  BANK19  BANK20  BANK21
  1023 ;;      Params:         0       0       0       0       0       0       0       0       0       0       0       0       
      +0       0       0       0       0       0
  1024 ;;      Locals:         0       0       0       0       0       0       0       0       0       0       0       0       
      +0       0       0       0       0       0
  1025 ;;      Temps:          0       0       0       0       0       0       0       0       0       0       0       0       
      +0       0       0       0       0       0
  1026 ;;      Totals:         0       0       0       0       0       0       0       0       0       0       0       0       
      +0       0       0       0       0       0
  1027 ;;Total ram usage:        0 bytes
  1028 ;; Hardware stack levels used: 1
  1029 ;; Hardware stack levels required when called: 5
  1030 ;; This function calls:
  1031 ;;		_UART1_SetErrorHandler
  1032 ;;		_UART1_SetFramingErrorHandler
  1033 ;;		_UART1_SetOverrunErrorHandler
  1034 ;; This function is called by:
  1035 ;;		_SYSTEM_Initialize
  1036 ;; This function uses a non-reentrant model
  1037 ;;
  1038                           
  1039                           	psect	text7
  1040  00038C                     __ptext7:
  1041                           	callstack 0
  1042  00038C                     _UART1_Initialize:
  1043                           	callstack 121
  1044  00038C                     
  1045                           ;mcc_generated_files/uart1.c: 73:     U1P1L = 0x00;
  1046  00038C  0E00               	movlw	0
  1047  00038E  0102               	movlb	2	; () banked
  1048  000390  6FA5               	movwf	165,b	;volatile
  1049                           
  1050                           ;mcc_generated_files/uart1.c: 76:     U1P1H = 0x00;
  1051  000392  0E00               	movlw	0
  1052  000394  6FA6               	movwf	166,b	;volatile
  1053                           
  1054                           ;mcc_generated_files/uart1.c: 79:     U1P2L = 0x00;
  1055  000396  0E00               	movlw	0
  1056  000398  6FA7               	movwf	167,b	;volatile
  1057                           
  1058                           ;mcc_generated_files/uart1.c: 82:     U1P2H = 0x00;
  1059  00039A  0E00               	movlw	0
  1060  00039C  6FA8               	movwf	168,b	;volatile
  1061                           
  1062                           ;mcc_generated_files/uart1.c: 85:     U1P3L = 0x00;
  1063  00039E  0E00               	movlw	0
  1064  0003A0  6FA9               	movwf	169,b	;volatile
  1065                           
  1066                           ;mcc_generated_files/uart1.c: 88:     U1P3H = 0x00;
  1067  0003A2  0E00               	movlw	0
  1068  0003A4  6FAA               	movwf	170,b	;volatile
  1069                           
  1070                           ;mcc_generated_files/uart1.c: 91:     U1CON0 = 0xB8;
  1071  0003A6  0EB8               	movlw	184
  1072  0003A8  6FAB               	movwf	171,b	;volatile
  1073                           
  1074                           ;mcc_generated_files/uart1.c: 94:     U1CON1 = 0x80;
  1075  0003AA  0E80               	movlw	128
  1076  0003AC  6FAC               	movwf	172,b	;volatile
  1077                           
  1078                           ;mcc_generated_files/uart1.c: 97:     U1CON2 = 0x00;
  1079  0003AE  0E00               	movlw	0
  1080  0003B0  6FAD               	movwf	173,b	;volatile
  1081                           
  1082                           ;mcc_generated_files/uart1.c: 100:     U1BRGL = 0x07;
  1083  0003B2  0E07               	movlw	7
  1084  0003B4  6FAE               	movwf	174,b	;volatile
  1085                           
  1086                           ;mcc_generated_files/uart1.c: 103:     U1BRGH = 0x00;
  1087  0003B6  0E00               	movlw	0
  1088  0003B8  6FAF               	movwf	175,b	;volatile
  1089                           
  1090                           ;mcc_generated_files/uart1.c: 106:     U1FIFO = 0x00;
  1091  0003BA  0E00               	movlw	0
  1092  0003BC  6FB0               	movwf	176,b	;volatile
  1093                           
  1094                           ;mcc_generated_files/uart1.c: 109:     U1UIR = 0x00;
  1095  0003BE  0E00               	movlw	0
  1096  0003C0  6FB1               	movwf	177,b	;volatile
  1097                           
  1098                           ;mcc_generated_files/uart1.c: 112:     U1ERRIR = 0x00;
  1099  0003C2  0E00               	movlw	0
  1100  0003C4  6FB2               	movwf	178,b	;volatile
  1101                           
  1102                           ;mcc_generated_files/uart1.c: 115:     U1ERRIE = 0x00;
  1103  0003C6  0E00               	movlw	0
  1104  0003C8  6FB3               	movwf	179,b	;volatile
  1105  0003CA                     
  1106                           ; BSR set to: 2
  1107                           ;mcc_generated_files/uart1.c: 118:     UART1_SetFramingErrorHandler(UART1_DefaultFraming
      +                          ErrorHandler);
  1108  0003CA  0EC0               	movlw	low _UART1_DefaultFramingErrorHandler
  1109  0003CC  6E25               	movwf	UART1_SetFramingErrorHandler@interruptHandler^(0+1280),c
  1110  0003CE  0E08               	movlw	high _UART1_DefaultFramingErrorHandler
  1111  0003D0  6E26               	movwf	(UART1_SetFramingErrorHandler@interruptHandler+1)^(0+1280),c
  1112  0003D2  EC2D  F004         	call	_UART1_SetFramingErrorHandler	;wreg free
  1113  0003D6                     
  1114                           ;mcc_generated_files/uart1.c: 119:     UART1_SetOverrunErrorHandler(UART1_DefaultOverrun
      +                          ErrorHandler);
  1115  0003D6  0EBE               	movlw	low _UART1_DefaultOverrunErrorHandler
  1116  0003D8  6E25               	movwf	UART1_SetOverrunErrorHandler@interruptHandler^(0+1280),c
  1117  0003DA  0E08               	movlw	high _UART1_DefaultOverrunErrorHandler
  1118  0003DC  6E26               	movwf	(UART1_SetOverrunErrorHandler@interruptHandler+1)^(0+1280),c
  1119  0003DE  EC28  F004         	call	_UART1_SetOverrunErrorHandler	;wreg free
  1120  0003E2                     
  1121                           ;mcc_generated_files/uart1.c: 120:     UART1_SetErrorHandler(UART1_DefaultErrorHandler);
  1122  0003E2  0EC2               	movlw	low _UART1_DefaultErrorHandler
  1123  0003E4  6E25               	movwf	UART1_SetErrorHandler@interruptHandler^(0+1280),c
  1124  0003E6  0E08               	movlw	high _UART1_DefaultErrorHandler
  1125  0003E8  6E26               	movwf	(UART1_SetErrorHandler@interruptHandler+1)^(0+1280),c
  1126  0003EA  EC32  F004         	call	_UART1_SetErrorHandler	;wreg free
  1127  0003EE                     
  1128                           ;mcc_generated_files/uart1.c: 122:     uart1RxLastError.status = 0;
  1129  0003EE  0E00               	movlw	0
  1130  0003F0  6E17               	movwf	_uart1RxLastError^(0+1280),c	;volatile
  1131  0003F2  0012               	return		;funcret
  1132  0003F4                     __end_of_UART1_Initialize:
  1133                           	callstack 0
  1134                           
  1135 ;; *************** function _UART1_SetOverrunErrorHandler *****************
  1136 ;; Defined at:
  1137 ;;		line 194 in file "mcc_generated_files/uart1.c"
  1138 ;; Parameters:    Size  Location     Type
  1139 ;;  interruptHan    2   12[COMRAM] PTR FTN()void 
  1140 ;;		 -> UART1_DefaultOverrunErrorHandler(1), 
  1141 ;; Auto vars:     Size  Location     Type
  1142 ;;		None
  1143 ;; Return value:  Size  Location     Type
  1144 ;;                  1    wreg      void 
  1145 ;; Registers used:
  1146 ;;		wreg, status,2, status,0
  1147 ;; Tracked objects:
  1148 ;;		On entry : 0/0
  1149 ;;		On exit  : 0/0
  1150 ;;		Unchanged: 0/0
  1151 ;; Data sizes:     COMRAM   BANK5   BANK6   BANK7   BANK8   BANK9  BANK10  BANK11  BANK12  BANK13  BANK14  BANK15  BANK1
      +6  BANK17  BANK18  BANK19  BANK20  BANK21
  1152 ;;      Params:         2       0       0       0       0       0       0       0       0       0       0       0       
      +0       0       0       0       0       0
  1153 ;;      Locals:         0       0       0       0       0       0       0       0       0       0       0       0       
      +0       0       0       0       0       0
  1154 ;;      Temps:          0       0       0       0       0       0       0       0       0       0       0       0       
      +0       0       0       0       0       0
  1155 ;;      Totals:         2       0       0       0       0       0       0       0       0       0       0       0       
      +0       0       0       0       0       0
  1156 ;;Total ram usage:        2 bytes
  1157 ;; Hardware stack levels used: 1
  1158 ;; Hardware stack levels required when called: 4
  1159 ;; This function calls:
  1160 ;;		Nothing
  1161 ;; This function is called by:
  1162 ;;		_UART1_Initialize
  1163 ;; This function uses a non-reentrant model
  1164 ;;
  1165                           
  1166                           	psect	text8
  1167  000850                     __ptext8:
  1168                           	callstack 0
  1169  000850                     _UART1_SetOverrunErrorHandler:
  1170                           	callstack 121
  1171  000850                     
  1172                           ;mcc_generated_files/uart1.c: 195:     UART1_OverrunErrorHandler = interruptHandler;
  1173  000850  C525  F536         	movff	UART1_SetOverrunErrorHandler@interruptHandler,_UART1_OverrunErrorHandler
  1174  000854  C526  F537         	movff	UART1_SetOverrunErrorHandler@interruptHandler+1,_UART1_OverrunErrorHandler+1
  1175  000858  0012               	return		;funcret
  1176  00085A                     __end_of_UART1_SetOverrunErrorHandler:
  1177                           	callstack 0
  1178                           
  1179 ;; *************** function _UART1_SetFramingErrorHandler *****************
  1180 ;; Defined at:
  1181 ;;		line 190 in file "mcc_generated_files/uart1.c"
  1182 ;; Parameters:    Size  Location     Type
  1183 ;;  interruptHan    2   12[COMRAM] PTR FTN()void 
  1184 ;;		 -> UART1_DefaultFramingErrorHandler(1), 
  1185 ;; Auto vars:     Size  Location     Type
  1186 ;;		None
  1187 ;; Return value:  Size  Location     Type
  1188 ;;                  1    wreg      void 
  1189 ;; Registers used:
  1190 ;;		wreg, status,2, status,0
  1191 ;; Tracked objects:
  1192 ;;		On entry : 0/0
  1193 ;;		On exit  : 0/0
  1194 ;;		Unchanged: 0/0
  1195 ;; Data sizes:     COMRAM   BANK5   BANK6   BANK7   BANK8   BANK9  BANK10  BANK11  BANK12  BANK13  BANK14  BANK15  BANK1
      +6  BANK17  BANK18  BANK19  BANK20  BANK21
  1196 ;;      Params:         2       0       0       0       0       0       0       0       0       0       0       0       
      +0       0       0       0       0       0
  1197 ;;      Locals:         0       0       0       0       0       0       0       0       0       0       0       0       
      +0       0       0       0       0       0
  1198 ;;      Temps:          0       0       0       0       0       0       0       0       0       0       0       0       
      +0       0       0       0       0       0
  1199 ;;      Totals:         2       0       0       0       0       0       0       0       0       0       0       0       
      +0       0       0       0       0       0
  1200 ;;Total ram usage:        2 bytes
  1201 ;; Hardware stack levels used: 1
  1202 ;; Hardware stack levels required when called: 4
  1203 ;; This function calls:
  1204 ;;		Nothing
  1205 ;; This function is called by:
  1206 ;;		_UART1_Initialize
  1207 ;; This function uses a non-reentrant model
  1208 ;;
  1209                           
  1210                           	psect	text9
  1211  00085A                     __ptext9:
  1212                           	callstack 0
  1213  00085A                     _UART1_SetFramingErrorHandler:
  1214                           	callstack 121
  1215  00085A                     
  1216                           ;mcc_generated_files/uart1.c: 191:     UART1_FramingErrorHandler = interruptHandler;
  1217  00085A  C525  F538         	movff	UART1_SetFramingErrorHandler@interruptHandler,_UART1_FramingErrorHandler
  1218  00085E  C526  F539         	movff	UART1_SetFramingErrorHandler@interruptHandler+1,_UART1_FramingErrorHandler+1
  1219  000862  0012               	return		;funcret
  1220  000864                     __end_of_UART1_SetFramingErrorHandler:
  1221                           	callstack 0
  1222                           
  1223 ;; *************** function _UART1_SetErrorHandler *****************
  1224 ;; Defined at:
  1225 ;;		line 198 in file "mcc_generated_files/uart1.c"
  1226 ;; Parameters:    Size  Location     Type
  1227 ;;  interruptHan    2   12[COMRAM] PTR FTN()void 
  1228 ;;		 -> UART1_DefaultErrorHandler(1), 
  1229 ;; Auto vars:     Size  Location     Type
  1230 ;;		None
  1231 ;; Return value:  Size  Location     Type
  1232 ;;                  1    wreg      void 
  1233 ;; Registers used:
  1234 ;;		wreg, status,2, status,0
  1235 ;; Tracked objects:
  1236 ;;		On entry : 0/0
  1237 ;;		On exit  : 0/0
  1238 ;;		Unchanged: 0/0
  1239 ;; Data sizes:     COMRAM   BANK5   BANK6   BANK7   BANK8   BANK9  BANK10  BANK11  BANK12  BANK13  BANK14  BANK15  BANK1
      +6  BANK17  BANK18  BANK19  BANK20  BANK21
  1240 ;;      Params:         2       0       0       0       0       0       0       0       0       0       0       0       
      +0       0       0       0       0       0
  1241 ;;      Locals:         0       0       0       0       0       0       0       0       0       0       0       0       
      +0       0       0       0       0       0
  1242 ;;      Temps:          0       0       0       0       0       0       0       0       0       0       0       0       
      +0       0       0       0       0       0
  1243 ;;      Totals:         2       0       0       0       0       0       0       0       0       0       0       0       
      +0       0       0       0       0       0
  1244 ;;Total ram usage:        2 bytes
  1245 ;; Hardware stack levels used: 1
  1246 ;; Hardware stack levels required when called: 4
  1247 ;; This function calls:
  1248 ;;		Nothing
  1249 ;; This function is called by:
  1250 ;;		_UART1_Initialize
  1251 ;; This function uses a non-reentrant model
  1252 ;;
  1253                           
  1254                           	psect	text10
  1255  000864                     __ptext10:
  1256                           	callstack 0
  1257  000864                     _UART1_SetErrorHandler:
  1258                           	callstack 121
  1259  000864                     
  1260                           ;mcc_generated_files/uart1.c: 199:     UART1_ErrorHandler = interruptHandler;
  1261  000864  C525  F534         	movff	UART1_SetErrorHandler@interruptHandler,_UART1_ErrorHandler
  1262  000868  C526  F535         	movff	UART1_SetErrorHandler@interruptHandler+1,_UART1_ErrorHandler+1
  1263  00086C  0012               	return		;funcret
  1264  00086E                     __end_of_UART1_SetErrorHandler:
  1265                           	callstack 0
  1266                           
  1267 ;; *************** function _TMR1_Initialize *****************
  1268 ;; Defined at:
  1269 ;;		line 69 in file "mcc_generated_files/tmr1.c"
  1270 ;; Parameters:    Size  Location     Type
  1271 ;;		None
  1272 ;; Auto vars:     Size  Location     Type
  1273 ;;		None
  1274 ;; Return value:  Size  Location     Type
  1275 ;;                  1    wreg      void 
  1276 ;; Registers used:
  1277 ;;		wreg, status,2, status,0, cstack
  1278 ;; Tracked objects:
  1279 ;;		On entry : 0/0
  1280 ;;		On exit  : 0/0
  1281 ;;		Unchanged: 0/0
  1282 ;; Data sizes:     COMRAM   BANK5   BANK6   BANK7   BANK8   BANK9  BANK10  BANK11  BANK12  BANK13  BANK14  BANK15  BANK1
      +6  BANK17  BANK18  BANK19  BANK20  BANK21
  1283 ;;      Params:         0       0       0       0       0       0       0       0       0       0       0       0       
      +0       0       0       0       0       0
  1284 ;;      Locals:         0       0       0       0       0       0       0       0       0       0       0       0       
      +0       0       0       0       0       0
  1285 ;;      Temps:          2       0       0       0       0       0       0       0       0       0       0       0       
      +0       0       0       0       0       0
  1286 ;;      Totals:         2       0       0       0       0       0       0       0       0       0       0       0       
      +0       0       0       0       0       0
  1287 ;;Total ram usage:        2 bytes
  1288 ;; Hardware stack levels used: 1
  1289 ;; Hardware stack levels required when called: 5
  1290 ;; This function calls:
  1291 ;;		_TMR1_SetInterruptHandler
  1292 ;; This function is called by:
  1293 ;;		_SYSTEM_Initialize
  1294 ;; This function uses a non-reentrant model
  1295 ;;
  1296                           
  1297                           	psect	text11
  1298  00067A                     __ptext11:
  1299                           	callstack 0
  1300  00067A                     _TMR1_Initialize:
  1301                           	callstack 121
  1302  00067A                     
  1303                           ;mcc_generated_files/tmr1.c: 74:     T1GCON = 0x00;
  1304  00067A  0E00               	movlw	0
  1305  00067C  0103               	movlb	3	; () banked
  1306  00067E  6F15               	movwf	21,b	;volatile
  1307                           
  1308                           ;mcc_generated_files/tmr1.c: 77:     T1GATE = 0x00;
  1309  000680  0E00               	movlw	0
  1310  000682  6F16               	movwf	22,b	;volatile
  1311                           
  1312                           ;mcc_generated_files/tmr1.c: 80:     T1CLK = 0x04;
  1313  000684  0E04               	movlw	4
  1314  000686  6F17               	movwf	23,b	;volatile
  1315  000688                     
  1316                           ; BSR set to: 3
  1317                           ;mcc_generated_files/tmr1.c: 83:     TMR1H = 0xFF;
  1318  000688  6913               	setf	19,b	;volatile
  1319                           
  1320                           ;mcc_generated_files/tmr1.c: 86:     TMR1L = 0xE1;
  1321  00068A  0EE1               	movlw	225
  1322  00068C  6F12               	movwf	18,b	;volatile
  1323  00068E                     
  1324                           ; BSR set to: 3
  1325                           ;mcc_generated_files/tmr1.c: 89:     PIR3bits.TMR1IF = 0;
  1326  00068E  98B6               	bcf	182,4,c	;volatile
  1327  000690                     
  1328                           ; BSR set to: 3
  1329                           ;mcc_generated_files/tmr1.c: 92:     timer1ReloadVal=(uint16_t)((TMR1H << 8) | TMR1L);
  1330  000690  5112               	movf	18,w,b	;volatile
  1331  000692  0060 FC4C  F527    	movff	787,??_TMR1_Initialize	;volatile
  1332  000698  6A28               	clrf	(??_TMR1_Initialize+1)^(0+1280),c
  1333  00069A  C527  F528         	movff	??_TMR1_Initialize,??_TMR1_Initialize+1
  1334  00069E  6A27               	clrf	??_TMR1_Initialize^(0+1280),c
  1335  0006A0  1027               	iorwf	??_TMR1_Initialize^(0+1280),w,c
  1336  0006A2  6E2E               	movwf	_timer1ReloadVal^(0+1280),c	;volatile
  1337  0006A4  5028               	movf	(??_TMR1_Initialize+1)^(0+1280),w,c
  1338  0006A6  6E2F               	movwf	(_timer1ReloadVal+1)^(0+1280),c	;volatile
  1339  0006A8                     
  1340                           ; BSR set to: 3
  1341                           ;mcc_generated_files/tmr1.c: 95:     PIE3bits.TMR1IE = 1;
  1342  0006A8  88AB               	bsf	171,4,c	;volatile
  1343  0006AA                     
  1344                           ; BSR set to: 3
  1345                           ;mcc_generated_files/tmr1.c: 98:     TMR1_SetInterruptHandler(TMR1_DefaultInterruptHandl
      +                          er);
  1346  0006AA  0E34               	movlw	low _TMR1_DefaultInterruptHandler
  1347  0006AC  6E25               	movwf	TMR1_SetInterruptHandler@InterruptHandler^(0+1280),c
  1348  0006AE  0E06               	movlw	high _TMR1_DefaultInterruptHandler
  1349  0006B0  6E26               	movwf	(TMR1_SetInterruptHandler@InterruptHandler+1)^(0+1280),c
  1350  0006B2  EC37  F004         	call	_TMR1_SetInterruptHandler	;wreg free
  1351  0006B6                     
  1352                           ;mcc_generated_files/tmr1.c: 101:     T1CON = 0x01;
  1353  0006B6  0E01               	movlw	1
  1354  0006B8  0103               	movlb	3	; () banked
  1355  0006BA  6F14               	movwf	20,b	;volatile
  1356  0006BC                     
  1357                           ; BSR set to: 3
  1358  0006BC  0012               	return		;funcret
  1359  0006BE                     __end_of_TMR1_Initialize:
  1360                           	callstack 0
  1361                           
  1362 ;; *************** function _TMR1_SetInterruptHandler *****************
  1363 ;; Defined at:
  1364 ;;		line 182 in file "mcc_generated_files/tmr1.c"
  1365 ;; Parameters:    Size  Location     Type
  1366 ;;  InterruptHan    2   12[COMRAM] PTR FTN()void 
  1367 ;;		 -> TMR1_DefaultInterruptHandler(1), 
  1368 ;; Auto vars:     Size  Location     Type
  1369 ;;		None
  1370 ;; Return value:  Size  Location     Type
  1371 ;;                  1    wreg      void 
  1372 ;; Registers used:
  1373 ;;		wreg, status,2, status,0
  1374 ;; Tracked objects:
  1375 ;;		On entry : 0/0
  1376 ;;		On exit  : 0/0
  1377 ;;		Unchanged: 0/0
  1378 ;; Data sizes:     COMRAM   BANK5   BANK6   BANK7   BANK8   BANK9  BANK10  BANK11  BANK12  BANK13  BANK14  BANK15  BANK1
      +6  BANK17  BANK18  BANK19  BANK20  BANK21
  1379 ;;      Params:         2       0       0       0       0       0       0       0       0       0       0       0       
      +0       0       0       0       0       0
  1380 ;;      Locals:         0       0       0       0       0       0       0       0       0       0       0       0       
      +0       0       0       0       0       0
  1381 ;;      Temps:          0       0       0       0       0       0       0       0       0       0       0       0       
      +0       0       0       0       0       0
  1382 ;;      Totals:         2       0       0       0       0       0       0       0       0       0       0       0       
      +0       0       0       0       0       0
  1383 ;;Total ram usage:        2 bytes
  1384 ;; Hardware stack levels used: 1
  1385 ;; Hardware stack levels required when called: 4
  1386 ;; This function calls:
  1387 ;;		Nothing
  1388 ;; This function is called by:
  1389 ;;		_TMR1_Initialize
  1390 ;; This function uses a non-reentrant model
  1391 ;;
  1392                           
  1393                           	psect	text12
  1394  00086E                     __ptext12:
  1395                           	callstack 0
  1396  00086E                     _TMR1_SetInterruptHandler:
  1397                           	callstack 121
  1398  00086E                     
  1399                           ;mcc_generated_files/tmr1.c: 183:     TMR1_InterruptHandler = InterruptHandler;
  1400  00086E  C525  F52C         	movff	TMR1_SetInterruptHandler@InterruptHandler,_TMR1_InterruptHandler
  1401  000872  C526  F52D         	movff	TMR1_SetInterruptHandler@InterruptHandler+1,_TMR1_InterruptHandler+1
  1402  000876  0012               	return		;funcret
  1403  000878                     __end_of_TMR1_SetInterruptHandler:
  1404                           	callstack 0
  1405                           
  1406 ;; *************** function _TMR0_Initialize *****************
  1407 ;; Defined at:
  1408 ;;		line 69 in file "mcc_generated_files/tmr0.c"
  1409 ;; Parameters:    Size  Location     Type
  1410 ;;		None
  1411 ;; Auto vars:     Size  Location     Type
  1412 ;;		None
  1413 ;; Return value:  Size  Location     Type
  1414 ;;                  1    wreg      void 
  1415 ;; Registers used:
  1416 ;;		wreg, status,2, status,0, cstack
  1417 ;; Tracked objects:
  1418 ;;		On entry : 0/0
  1419 ;;		On exit  : 0/0
  1420 ;;		Unchanged: 0/0
  1421 ;; Data sizes:     COMRAM   BANK5   BANK6   BANK7   BANK8   BANK9  BANK10  BANK11  BANK12  BANK13  BANK14  BANK15  BANK1
      +6  BANK17  BANK18  BANK19  BANK20  BANK21
  1422 ;;      Params:         0       0       0       0       0       0       0       0       0       0       0       0       
      +0       0       0       0       0       0
  1423 ;;      Locals:         0       0       0       0       0       0       0       0       0       0       0       0       
      +0       0       0       0       0       0
  1424 ;;      Temps:          2       0       0       0       0       0       0       0       0       0       0       0       
      +0       0       0       0       0       0
  1425 ;;      Totals:         2       0       0       0       0       0       0       0       0       0       0       0       
      +0       0       0       0       0       0
  1426 ;;Total ram usage:        2 bytes
  1427 ;; Hardware stack levels used: 1
  1428 ;; Hardware stack levels required when called: 5
  1429 ;; This function calls:
  1430 ;;		_TMR0_SetInterruptHandler
  1431 ;; This function is called by:
  1432 ;;		_SYSTEM_Initialize
  1433 ;; This function uses a non-reentrant model
  1434 ;;
  1435                           
  1436                           	psect	text13
  1437  0006BE                     __ptext13:
  1438                           	callstack 0
  1439  0006BE                     _TMR0_Initialize:
  1440                           	callstack 121
  1441  0006BE                     
  1442                           ;mcc_generated_files/tmr0.c: 74:     T0CON1 = 0xA4;
  1443  0006BE  0EA4               	movlw	164
  1444  0006C0  0103               	movlb	3	; () banked
  1445  0006C2  6F1B               	movwf	27,b	;volatile
  1446                           
  1447                           ;mcc_generated_files/tmr0.c: 77:     TMR0H = 0x85;
  1448  0006C4  0E85               	movlw	133
  1449  0006C6  6F19               	movwf	25,b	;volatile
  1450                           
  1451                           ;mcc_generated_files/tmr0.c: 80:     TMR0L = 0xEE;
  1452  0006C8  0EEE               	movlw	238
  1453  0006CA  6F18               	movwf	24,b	;volatile
  1454  0006CC                     
  1455                           ; BSR set to: 3
  1456                           ;mcc_generated_files/tmr0.c: 83:     timer0ReloadVal16bit = (uint16_t)((TMR0H << 8) | TM
      +                          R0L);
  1457  0006CC  5118               	movf	24,w,b	;volatile
  1458  0006CE  0060 FC64  F527    	movff	793,??_TMR0_Initialize	;volatile
  1459  0006D4  6A28               	clrf	(??_TMR0_Initialize+1)^(0+1280),c
  1460  0006D6  C527  F528         	movff	??_TMR0_Initialize,??_TMR0_Initialize+1
  1461  0006DA  6A27               	clrf	??_TMR0_Initialize^(0+1280),c
  1462  0006DC  1027               	iorwf	??_TMR0_Initialize^(0+1280),w,c
  1463  0006DE  6E32               	movwf	_timer0ReloadVal16bit^(0+1280),c	;volatile
  1464  0006E0  5028               	movf	(??_TMR0_Initialize+1)^(0+1280),w,c
  1465  0006E2  6E33               	movwf	(_timer0ReloadVal16bit+1)^(0+1280),c	;volatile
  1466  0006E4                     
  1467                           ; BSR set to: 3
  1468                           ;mcc_generated_files/tmr0.c: 86:     PIR3bits.TMR0IF = 0;
  1469  0006E4  9EB6               	bcf	182,7,c	;volatile
  1470  0006E6                     
  1471                           ; BSR set to: 3
  1472                           ;mcc_generated_files/tmr0.c: 89:     PIE3bits.TMR0IE = 1;
  1473  0006E6  8EAB               	bsf	171,7,c	;volatile
  1474  0006E8                     
  1475                           ; BSR set to: 3
  1476                           ;mcc_generated_files/tmr0.c: 92:     TMR0_SetInterruptHandler(TMR0_DefaultInterruptHandl
      +                          er);
  1477  0006E8  0ED8               	movlw	low _TMR0_DefaultInterruptHandler
  1478  0006EA  6E25               	movwf	TMR0_SetInterruptHandler@InterruptHandler^(0+1280),c
  1479  0006EC  0E07               	movlw	high _TMR0_DefaultInterruptHandler
  1480  0006EE  6E26               	movwf	(TMR0_SetInterruptHandler@InterruptHandler+1)^(0+1280),c
  1481  0006F0  EC3C  F004         	call	_TMR0_SetInterruptHandler	;wreg free
  1482  0006F4                     
  1483                           ;mcc_generated_files/tmr0.c: 95:     T0CON0 = 0x90;
  1484  0006F4  0E90               	movlw	144
  1485  0006F6  0103               	movlb	3	; () banked
  1486  0006F8  6F1A               	movwf	26,b	;volatile
  1487  0006FA                     
  1488                           ; BSR set to: 3
  1489  0006FA  0012               	return		;funcret
  1490  0006FC                     __end_of_TMR0_Initialize:
  1491                           	callstack 0
  1492                           
  1493 ;; *************** function _TMR0_SetInterruptHandler *****************
  1494 ;; Defined at:
  1495 ;;		line 154 in file "mcc_generated_files/tmr0.c"
  1496 ;; Parameters:    Size  Location     Type
  1497 ;;  InterruptHan    2   12[COMRAM] PTR FTN()void 
  1498 ;;		 -> TMR0_DefaultInterruptHandler(1), 
  1499 ;; Auto vars:     Size  Location     Type
  1500 ;;		None
  1501 ;; Return value:  Size  Location     Type
  1502 ;;                  1    wreg      void 
  1503 ;; Registers used:
  1504 ;;		wreg, status,2, status,0
  1505 ;; Tracked objects:
  1506 ;;		On entry : 0/0
  1507 ;;		On exit  : 0/0
  1508 ;;		Unchanged: 0/0
  1509 ;; Data sizes:     COMRAM   BANK5   BANK6   BANK7   BANK8   BANK9  BANK10  BANK11  BANK12  BANK13  BANK14  BANK15  BANK1
      +6  BANK17  BANK18  BANK19  BANK20  BANK21
  1510 ;;      Params:         2       0       0       0       0       0       0       0       0       0       0       0       
      +0       0       0       0       0       0
  1511 ;;      Locals:         0       0       0       0       0       0       0       0       0       0       0       0       
      +0       0       0       0       0       0
  1512 ;;      Temps:          0       0       0       0       0       0       0       0       0       0       0       0       
      +0       0       0       0       0       0
  1513 ;;      Totals:         2       0       0       0       0       0       0       0       0       0       0       0       
      +0       0       0       0       0       0
  1514 ;;Total ram usage:        2 bytes
  1515 ;; Hardware stack levels used: 1
  1516 ;; Hardware stack levels required when called: 4
  1517 ;; This function calls:
  1518 ;;		Nothing
  1519 ;; This function is called by:
  1520 ;;		_TMR0_Initialize
  1521 ;; This function uses a non-reentrant model
  1522 ;;
  1523                           
  1524                           	psect	text14
  1525  000878                     __ptext14:
  1526                           	callstack 0
  1527  000878                     _TMR0_SetInterruptHandler:
  1528                           	callstack 121
  1529  000878                     
  1530                           ;mcc_generated_files/tmr0.c: 155:     TMR0_InterruptHandler = InterruptHandler;
  1531  000878  C525  F530         	movff	TMR0_SetInterruptHandler@InterruptHandler,_TMR0_InterruptHandler
  1532  00087C  C526  F531         	movff	TMR0_SetInterruptHandler@InterruptHandler+1,_TMR0_InterruptHandler+1
  1533  000880  0012               	return		;funcret
  1534  000882                     __end_of_TMR0_SetInterruptHandler:
  1535                           	callstack 0
  1536                           
  1537 ;; *************** function _PMD_Initialize *****************
  1538 ;; Defined at:
  1539 ;;		line 80 in file "mcc_generated_files/mcc.c"
  1540 ;; Parameters:    Size  Location     Type
  1541 ;;		None
  1542 ;; Auto vars:     Size  Location     Type
  1543 ;;		None
  1544 ;; Return value:  Size  Location     Type
  1545 ;;                  1    wreg      void 
  1546 ;; Registers used:
  1547 ;;		wreg, status,2
  1548 ;; Tracked objects:
  1549 ;;		On entry : 0/0
  1550 ;;		On exit  : 0/0
  1551 ;;		Unchanged: 0/0
  1552 ;; Data sizes:     COMRAM   BANK5   BANK6   BANK7   BANK8   BANK9  BANK10  BANK11  BANK12  BANK13  BANK14  BANK15  BANK1
      +6  BANK17  BANK18  BANK19  BANK20  BANK21
  1553 ;;      Params:         0       0       0       0       0       0       0       0       0       0       0       0       
      +0       0       0       0       0       0
  1554 ;;      Locals:         0       0       0       0       0       0       0       0       0       0       0       0       
      +0       0       0       0       0       0
  1555 ;;      Temps:          0       0       0       0       0       0       0       0       0       0       0       0       
      +0       0       0       0       0       0
  1556 ;;      Totals:         0       0       0       0       0       0       0       0       0       0       0       0       
      +0       0       0       0       0       0
  1557 ;;Total ram usage:        0 bytes
  1558 ;; Hardware stack levels used: 1
  1559 ;; Hardware stack levels required when called: 4
  1560 ;; This function calls:
  1561 ;;		Nothing
  1562 ;; This function is called by:
  1563 ;;		_SYSTEM_Initialize
  1564 ;; This function uses a non-reentrant model
  1565 ;;
  1566                           
  1567                           	psect	text15
  1568  000784                     __ptext15:
  1569                           	callstack 0
  1570  000784                     _PMD_Initialize:
  1571                           	callstack 122
  1572  000784                     
  1573                           ;mcc_generated_files/mcc.c: 83:     PMD0 = 0x00;
  1574  000784  0E00               	movlw	0
  1575  000786  0100               	movlb	0	; () banked
  1576  000788  6F63               	movwf	99,b	;volatile
  1577                           
  1578                           ;mcc_generated_files/mcc.c: 85:     PMD1 = 0x00;
  1579  00078A  0E00               	movlw	0
  1580  00078C  6F64               	movwf	100,b	;volatile
  1581                           
  1582                           ;mcc_generated_files/mcc.c: 87:     PMD2 = 0x00;
  1583  00078E  0E00               	movlw	0
  1584  000790  6F65               	movwf	101,b	;volatile
  1585                           
  1586                           ;mcc_generated_files/mcc.c: 89:     PMD3 = 0x00;
  1587  000792  0E00               	movlw	0
  1588  000794  6F66               	movwf	102,b	;volatile
  1589                           
  1590                           ;mcc_generated_files/mcc.c: 91:     PMD4 = 0x00;
  1591  000796  0E00               	movlw	0
  1592  000798  6F67               	movwf	103,b	;volatile
  1593                           
  1594                           ;mcc_generated_files/mcc.c: 93:     PMD5 = 0x00;
  1595  00079A  0E00               	movlw	0
  1596  00079C  6F68               	movwf	104,b	;volatile
  1597  00079E                     
  1598                           ; BSR set to: 0
  1599  00079E  0012               	return		;funcret
  1600  0007A0                     __end_of_PMD_Initialize:
  1601                           	callstack 0
  1602                           
  1603 ;; *************** function _PIN_MANAGER_Initialize *****************
  1604 ;; Defined at:
  1605 ;;		line 55 in file "mcc_generated_files/pin_manager.c"
  1606 ;; Parameters:    Size  Location     Type
  1607 ;;		None
  1608 ;; Auto vars:     Size  Location     Type
  1609 ;;		None
  1610 ;; Return value:  Size  Location     Type
  1611 ;;                  1    wreg      void 
  1612 ;; Registers used:
  1613 ;;		wreg, status,2
  1614 ;; Tracked objects:
  1615 ;;		On entry : 0/0
  1616 ;;		On exit  : 0/0
  1617 ;;		Unchanged: 0/0
  1618 ;; Data sizes:     COMRAM   BANK5   BANK6   BANK7   BANK8   BANK9  BANK10  BANK11  BANK12  BANK13  BANK14  BANK15  BANK1
      +6  BANK17  BANK18  BANK19  BANK20  BANK21
  1619 ;;      Params:         0       0       0       0       0       0       0       0       0       0       0       0       
      +0       0       0       0       0       0
  1620 ;;      Locals:         0       0       0       0       0       0       0       0       0       0       0       0       
      +0       0       0       0       0       0
  1621 ;;      Temps:          0       0       0       0       0       0       0       0       0       0       0       0       
      +0       0       0       0       0       0
  1622 ;;      Totals:         0       0       0       0       0       0       0       0       0       0       0       0       
      +0       0       0       0       0       0
  1623 ;;Total ram usage:        0 bytes
  1624 ;; Hardware stack levels used: 1
  1625 ;; Hardware stack levels required when called: 4
  1626 ;; This function calls:
  1627 ;;		Nothing
  1628 ;; This function is called by:
  1629 ;;		_SYSTEM_Initialize
  1630 ;; This function uses a non-reentrant model
  1631 ;;
  1632                           
  1633                           	psect	text16
  1634  0002B4                     __ptext16:
  1635                           	callstack 0
  1636  0002B4                     _PIN_MANAGER_Initialize:
  1637                           	callstack 122
  1638  0002B4                     
  1639                           ;mcc_generated_files/pin_manager.c: 60:     LATA = 0x00;
  1640  0002B4  0E00               	movlw	0
  1641  0002B6  6EBE               	movwf	190,c	;volatile
  1642                           
  1643                           ;mcc_generated_files/pin_manager.c: 61:     LATB = 0xE0;
  1644  0002B8  0EE0               	movlw	224
  1645  0002BA  6EBF               	movwf	191,c	;volatile
  1646                           
  1647                           ;mcc_generated_files/pin_manager.c: 62:     LATC = 0x84;
  1648  0002BC  0E84               	movlw	132
  1649  0002BE  6EC0               	movwf	192,c	;volatile
  1650                           
  1651                           ;mcc_generated_files/pin_manager.c: 67:     TRISA = 0x3B;
  1652  0002C0  0E3B               	movlw	59
  1653  0002C2  6EC6               	movwf	198,c	;volatile
  1654                           
  1655                           ;mcc_generated_files/pin_manager.c: 68:     TRISB = 0x80;
  1656  0002C4  0E80               	movlw	128
  1657  0002C6  6EC7               	movwf	199,c	;volatile
  1658                           
  1659                           ;mcc_generated_files/pin_manager.c: 69:     TRISC = 0x33;
  1660  0002C8  0E33               	movlw	51
  1661  0002CA  6EC8               	movwf	200,c	;volatile
  1662                           
  1663                           ;mcc_generated_files/pin_manager.c: 74:     ANSELC = 0x32;
  1664  0002CC  0E32               	movlw	50
  1665  0002CE  0104               	movlb	4	; () banked
  1666  0002D0  6F10               	movwf	16,b	;volatile
  1667                           
  1668                           ;mcc_generated_files/pin_manager.c: 75:     ANSELB = 0x00;
  1669  0002D2  0E00               	movlw	0
  1670  0002D4  6F08               	movwf	8,b	;volatile
  1671                           
  1672                           ;mcc_generated_files/pin_manager.c: 76:     ANSELA = 0x07;
  1673  0002D6  0E07               	movlw	7
  1674  0002D8  6F00               	movwf	0,b	;volatile
  1675                           
  1676                           ;mcc_generated_files/pin_manager.c: 81:     WPUB = 0x00;
  1677  0002DA  0E00               	movlw	0
  1678  0002DC  6F09               	movwf	9,b	;volatile
  1679                           
  1680                           ;mcc_generated_files/pin_manager.c: 82:     WPUA = 0x00;
  1681  0002DE  0E00               	movlw	0
  1682  0002E0  6F01               	movwf	1,b	;volatile
  1683                           
  1684                           ;mcc_generated_files/pin_manager.c: 83:     WPUC = 0x00;
  1685  0002E2  0E00               	movlw	0
  1686  0002E4  6F11               	movwf	17,b	;volatile
  1687                           
  1688                           ;mcc_generated_files/pin_manager.c: 88:     ODCONA = 0x00;
  1689  0002E6  0E00               	movlw	0
  1690  0002E8  6F02               	movwf	2,b	;volatile
  1691                           
  1692                           ;mcc_generated_files/pin_manager.c: 89:     ODCONB = 0x00;
  1693  0002EA  0E00               	movlw	0
  1694  0002EC  6F0A               	movwf	10,b	;volatile
  1695                           
  1696                           ;mcc_generated_files/pin_manager.c: 90:     ODCONC = 0x48;
  1697  0002EE  0E48               	movlw	72
  1698  0002F0  6F12               	movwf	18,b	;volatile
  1699                           
  1700                           ;mcc_generated_files/pin_manager.c: 95:     SLRCONA = 0x37;
  1701  0002F2  0E37               	movlw	55
  1702  0002F4  6F03               	movwf	3,b	;volatile
  1703                           
  1704                           ;mcc_generated_files/pin_manager.c: 96:     SLRCONB = 0xF0;
  1705  0002F6  0EF0               	movlw	240
  1706  0002F8  6F0B               	movwf	11,b	;volatile
  1707  0002FA                     
  1708                           ; BSR set to: 4
  1709                           ;mcc_generated_files/pin_manager.c: 97:     SLRCONC = 0xFF;
  1710  0002FA  6913               	setf	19,b	;volatile
  1711                           
  1712                           ;mcc_generated_files/pin_manager.c: 102:     INLVLA = 0x3F;
  1713  0002FC  0E3F               	movlw	63
  1714  0002FE  6F04               	movwf	4,b	;volatile
  1715                           
  1716                           ;mcc_generated_files/pin_manager.c: 103:     INLVLB = 0xF0;
  1717  000300  0EF0               	movlw	240
  1718  000302  6F0C               	movwf	12,b	;volatile
  1719  000304                     
  1720                           ; BSR set to: 4
  1721                           ;mcc_generated_files/pin_manager.c: 104:     INLVLC = 0xFF;
  1722  000304  6914               	setf	20,b	;volatile
  1723                           
  1724                           ;mcc_generated_files/pin_manager.c: 113:     I2C1SDAPPS = 0x13;
  1725  000306  0E13               	movlw	19
  1726  000308  0102               	movlb	2	; () banked
  1727  00030A  6F70               	movwf	112,b	;volatile
  1728                           
  1729                           ;mcc_generated_files/pin_manager.c: 114:     RC3PPS = 0x22;
  1730  00030C  0E22               	movlw	34
  1731  00030E  6F14               	movwf	20,b	;volatile
  1732                           
  1733                           ;mcc_generated_files/pin_manager.c: 115:     RA2PPS = 0x19;
  1734  000310  0E19               	movlw	25
  1735  000312  6F03               	movwf	3,b	;volatile
  1736                           
  1737                           ;mcc_generated_files/pin_manager.c: 116:     RC6PPS = 0x21;
  1738  000314  0E21               	movlw	33
  1739  000316  6F17               	movwf	23,b	;volatile
  1740                           
  1741                           ;mcc_generated_files/pin_manager.c: 117:     U1RXPPS = 0x10;
  1742  000318  0E10               	movlw	16
  1743  00031A  6F72               	movwf	114,b	;volatile
  1744                           
  1745                           ;mcc_generated_files/pin_manager.c: 118:     I2C1SCLPPS = 0x16;
  1746  00031C  0E16               	movlw	22
  1747  00031E  6F71               	movwf	113,b	;volatile
  1748  000320                     
  1749                           ; BSR set to: 2
  1750  000320  0012               	return		;funcret
  1751  000322                     __end_of_PIN_MANAGER_Initialize:
  1752                           	callstack 0
  1753                           
  1754 ;; *************** function _OSCILLATOR_Initialize *****************
  1755 ;; Defined at:
  1756 ;;		line 64 in file "mcc_generated_files/mcc.c"
  1757 ;; Parameters:    Size  Location     Type
  1758 ;;		None
  1759 ;; Auto vars:     Size  Location     Type
  1760 ;;		None
  1761 ;; Return value:  Size  Location     Type
  1762 ;;                  1    wreg      void 
  1763 ;; Registers used:
  1764 ;;		wreg, status,2
  1765 ;; Tracked objects:
  1766 ;;		On entry : 0/0
  1767 ;;		On exit  : 0/0
  1768 ;;		Unchanged: 0/0
  1769 ;; Data sizes:     COMRAM   BANK5   BANK6   BANK7   BANK8   BANK9  BANK10  BANK11  BANK12  BANK13  BANK14  BANK15  BANK1
      +6  BANK17  BANK18  BANK19  BANK20  BANK21
  1770 ;;      Params:         0       0       0       0       0       0       0       0       0       0       0       0       
      +0       0       0       0       0       0
  1771 ;;      Locals:         0       0       0       0       0       0       0       0       0       0       0       0       
      +0       0       0       0       0       0
  1772 ;;      Temps:          0       0       0       0       0       0       0       0       0       0       0       0       
      +0       0       0       0       0       0
  1773 ;;      Totals:         0       0       0       0       0       0       0       0       0       0       0       0       
      +0       0       0       0       0       0
  1774 ;;Total ram usage:        0 bytes
  1775 ;; Hardware stack levels used: 1
  1776 ;; Hardware stack levels required when called: 4
  1777 ;; This function calls:
  1778 ;;		Nothing
  1779 ;; This function is called by:
  1780 ;;		_SYSTEM_Initialize
  1781 ;; This function uses a non-reentrant model
  1782 ;;
  1783                           
  1784                           	psect	text17
  1785  0007A0                     __ptext17:
  1786                           	callstack 0
  1787  0007A0                     _OSCILLATOR_Initialize:
  1788                           	callstack 122
  1789  0007A0                     
  1790                           ;mcc_generated_files/mcc.c: 67:     OSCCON1 = 0x60;
  1791  0007A0  0E60               	movlw	96
  1792  0007A2  0100               	movlb	0	; () banked
  1793  0007A4  6FAD               	movwf	173,b	;volatile
  1794                           
  1795                           ;mcc_generated_files/mcc.c: 69:     OSCCON3 = 0x00;
  1796  0007A6  0E00               	movlw	0
  1797  0007A8  6FAF               	movwf	175,b	;volatile
  1798                           
  1799                           ;mcc_generated_files/mcc.c: 71:     OSCEN = 0x01;
  1800  0007AA  0E01               	movlw	1
  1801  0007AC  6FB3               	movwf	179,b	;volatile
  1802                           
  1803                           ;mcc_generated_files/mcc.c: 73:     OSCFRQ = 0x08;
  1804  0007AE  0E08               	movlw	8
  1805  0007B0  6FB1               	movwf	177,b	;volatile
  1806                           
  1807                           ;mcc_generated_files/mcc.c: 75:     OSCTUNE = 0x00;
  1808  0007B2  0E00               	movlw	0
  1809  0007B4  6FB0               	movwf	176,b	;volatile
  1810                           
  1811                           ;mcc_generated_files/mcc.c: 77:     ACTCON = 0x00;
  1812  0007B6  0E00               	movlw	0
  1813  0007B8  6FAC               	movwf	172,b	;volatile
  1814  0007BA                     
  1815                           ; BSR set to: 0
  1816  0007BA  0012               	return		;funcret
  1817  0007BC                     __end_of_OSCILLATOR_Initialize:
  1818                           	callstack 0
  1819                           
  1820 ;; *************** function _INTERRUPT_Initialize *****************
  1821 ;; Defined at:
  1822 ;;		line 52 in file "mcc_generated_files/interrupt_manager.c"
  1823 ;; Parameters:    Size  Location     Type
  1824 ;;		None
  1825 ;; Auto vars:     Size  Location     Type
  1826 ;;  state           1   12[COMRAM] _Bool 
  1827 ;; Return value:  Size  Location     Type
  1828 ;;                  1    wreg      void 
  1829 ;; Registers used:
  1830 ;;		wreg, status,2
  1831 ;; Tracked objects:
  1832 ;;		On entry : 0/0
  1833 ;;		On exit  : 0/0
  1834 ;;		Unchanged: 0/0
  1835 ;; Data sizes:     COMRAM   BANK5   BANK6   BANK7   BANK8   BANK9  BANK10  BANK11  BANK12  BANK13  BANK14  BANK15  BANK1
      +6  BANK17  BANK18  BANK19  BANK20  BANK21
  1836 ;;      Params:         0       0       0       0       0       0       0       0       0       0       0       0       
      +0       0       0       0       0       0
  1837 ;;      Locals:         1       0       0       0       0       0       0       0       0       0       0       0       
      +0       0       0       0       0       0
  1838 ;;      Temps:          0       0       0       0       0       0       0       0       0       0       0       0       
      +0       0       0       0       0       0
  1839 ;;      Totals:         1       0       0       0       0       0       0       0       0       0       0       0       
      +0       0       0       0       0       0
  1840 ;;Total ram usage:        1 bytes
  1841 ;; Hardware stack levels used: 1
  1842 ;; Hardware stack levels required when called: 4
  1843 ;; This function calls:
  1844 ;;		Nothing
  1845 ;; This function is called by:
  1846 ;;		_SYSTEM_Initialize
  1847 ;; This function uses a non-reentrant model
  1848 ;;
  1849                           
  1850                           	psect	text18
  1851  00055A                     __ptext18:
  1852                           	callstack 0
  1853  00055A                     _INTERRUPT_Initialize:
  1854                           	callstack 122
  1855  00055A                     
  1856                           ;mcc_generated_files/interrupt_manager.c: 54:     INTCON0bits.IPEN = 1;
  1857  00055A  8AD6               	bsf	214,5,c	;volatile
  1858  00055C                     
  1859                           ;mcc_generated_files/interrupt_manager.c: 56:     _Bool state = (unsigned char)GIE;
  1860  00055C  0E00               	movlw	0
  1861  00055E  BED6               	btfsc	1238,7,c	;volatile
  1862  000560  0E01               	movlw	1
  1863  000562  6E25               	movwf	INTERRUPT_Initialize@state^(0+1280),c
  1864  000564                     
  1865                           ;mcc_generated_files/interrupt_manager.c: 57:     GIE = 0;
  1866  000564  9ED6               	bcf	1238,7,c	;volatile
  1867                           
  1868                           ;mcc_generated_files/interrupt_manager.c: 58:     IVTLOCK = 0x55;
  1869  000566  0E55               	movlw	85
  1870  000568  0104               	movlb	4	; () banked
  1871  00056A  6F59               	movwf	89,b	;volatile
  1872                           
  1873                           ;mcc_generated_files/interrupt_manager.c: 59:     IVTLOCK = 0xAA;
  1874  00056C  0EAA               	movlw	170
  1875  00056E  6F59               	movwf	89,b	;volatile
  1876  000570                     
  1877                           ; BSR set to: 4
  1878                           ;mcc_generated_files/interrupt_manager.c: 60:     IVTLOCKbits.IVTLOCKED = 0x00;
  1879  000570  9159               	bcf	89,0,b	;volatile
  1880                           
  1881                           ;mcc_generated_files/interrupt_manager.c: 62:     IVTBASEU = 0;
  1882  000572  0E00               	movlw	0
  1883  000574  6F5F               	movwf	95,b	;volatile
  1884                           
  1885                           ;mcc_generated_files/interrupt_manager.c: 63:     IVTBASEH = 0;
  1886  000576  0E00               	movlw	0
  1887  000578  6F5E               	movwf	94,b	;volatile
  1888                           
  1889                           ;mcc_generated_files/interrupt_manager.c: 64:     IVTBASEL = 8;
  1890  00057A  0E08               	movlw	8
  1891  00057C  6F5D               	movwf	93,b	;volatile
  1892                           
  1893                           ;mcc_generated_files/interrupt_manager.c: 66:     IVTLOCK = 0x55;
  1894  00057E  0E55               	movlw	85
  1895  000580  6F59               	movwf	89,b	;volatile
  1896                           
  1897                           ;mcc_generated_files/interrupt_manager.c: 67:     IVTLOCK = 0xAA;
  1898  000582  0EAA               	movlw	170
  1899  000584  6F59               	movwf	89,b	;volatile
  1900  000586                     
  1901                           ; BSR set to: 4
  1902                           ;mcc_generated_files/interrupt_manager.c: 68:     IVTLOCKbits.IVTLOCKED = 0x01;
  1903  000586  8159               	bsf	89,0,b	;volatile
  1904  000588                     
  1905                           ; BSR set to: 4
  1906                           ;mcc_generated_files/interrupt_manager.c: 70:     GIE = state;
  1907  000588  B025               	btfsc	INTERRUPT_Initialize@state^(0+1280),0,c
  1908  00058A  D002               	bra	u85
  1909  00058C  9ED6               	bcf	1238,7,c	;volatile
  1910  00058E  D001               	bra	u86
  1911  000590                     u85:
  1912  000590  8ED6               	bsf	1238,7,c	;volatile
  1913  000592                     u86:
  1914  000592                     
  1915                           ;mcc_generated_files/interrupt_manager.c: 73:     IPR3bits.TMR0IP = 0;
  1916  000592  0103               	movlb	3	; () banked
  1917  000594  9F6A               	bcf	106,7,b	;volatile
  1918  000596                     
  1919                           ; BSR set to: 3
  1920                           ;mcc_generated_files/interrupt_manager.c: 74:     IPR7bits.I2C1EIP = 1;
  1921  000596  876E               	bsf	110,3,b	;volatile
  1922  000598                     
  1923                           ; BSR set to: 3
  1924                           ;mcc_generated_files/interrupt_manager.c: 75:     IPR7bits.I2C1RXIP = 1;
  1925  000598  816E               	bsf	110,0,b	;volatile
  1926  00059A                     
  1927                           ; BSR set to: 3
  1928                           ;mcc_generated_files/interrupt_manager.c: 76:     IPR7bits.I2C1IP = 1;
  1929  00059A  856E               	bsf	110,2,b	;volatile
  1930  00059C                     
  1931                           ; BSR set to: 3
  1932                           ;mcc_generated_files/interrupt_manager.c: 77:     IPR7bits.I2C1TXIP = 1;
  1933  00059C  836E               	bsf	110,1,b	;volatile
  1934  00059E                     
  1935                           ; BSR set to: 3
  1936                           ;mcc_generated_files/interrupt_manager.c: 78:     IPR1bits.ADIP = 1;
  1937  00059E  8568               	bsf	104,2,b	;volatile
  1938  0005A0                     
  1939                           ; BSR set to: 3
  1940                           ;mcc_generated_files/interrupt_manager.c: 79:     IPR3bits.TMR1IP = 0;
  1941  0005A0  996A               	bcf	106,4,b	;volatile
  1942  0005A2                     
  1943                           ; BSR set to: 3
  1944  0005A2  0012               	return		;funcret
  1945  0005A4                     __end_of_INTERRUPT_Initialize:
  1946                           	callstack 0
  1947                           
  1948 ;; *************** function _I2C1_Initialize *****************
  1949 ;; Defined at:
  1950 ;;		line 115 in file "mcc_generated_files/i2c1_slave.c"
  1951 ;; Parameters:    Size  Location     Type
  1952 ;;		None
  1953 ;; Auto vars:     Size  Location     Type
  1954 ;;		None
  1955 ;; Return value:  Size  Location     Type
  1956 ;;                  1    wreg      void 
  1957 ;; Registers used:
  1958 ;;		wreg, status,2
  1959 ;; Tracked objects:
  1960 ;;		On entry : 0/0
  1961 ;;		On exit  : 0/0
  1962 ;;		Unchanged: 0/0
  1963 ;; Data sizes:     COMRAM   BANK5   BANK6   BANK7   BANK8   BANK9  BANK10  BANK11  BANK12  BANK13  BANK14  BANK15  BANK1
      +6  BANK17  BANK18  BANK19  BANK20  BANK21
  1964 ;;      Params:         0       0       0       0       0       0       0       0       0       0       0       0       
      +0       0       0       0       0       0
  1965 ;;      Locals:         0       0       0       0       0       0       0       0       0       0       0       0       
      +0       0       0       0       0       0
  1966 ;;      Temps:          0       0       0       0       0       0       0       0       0       0       0       0       
      +0       0       0       0       0       0
  1967 ;;      Totals:         0       0       0       0       0       0       0       0       0       0       0       0       
      +0       0       0       0       0       0
  1968 ;;Total ram usage:        0 bytes
  1969 ;; Hardware stack levels used: 1
  1970 ;; Hardware stack levels required when called: 4
  1971 ;; This function calls:
  1972 ;;		Nothing
  1973 ;; This function is called by:
  1974 ;;		_SYSTEM_Initialize
  1975 ;;		_I2C1_Enable
  1976 ;; This function uses a non-reentrant model
  1977 ;;
  1978                           
  1979                           	psect	text19
  1980  0007BC                     __ptext19:
  1981                           	callstack 0
  1982  0007BC                     _I2C1_Initialize:
  1983                           	callstack 122
  1984  0007BC                     
  1985                           ;mcc_generated_files/i2c1_slave.c: 118:     I2C1CON0 = 0x81;
  1986  0007BC  0E81               	movlw	129
  1987  0007BE  0102               	movlb	2	; () banked
  1988  0007C0  6F94               	movwf	148,b	;volatile
  1989                           
  1990                           ;mcc_generated_files/i2c1_slave.c: 120:     I2C1CON1 = 0x00;
  1991  0007C2  0E00               	movlw	0
  1992  0007C4  6F95               	movwf	149,b	;volatile
  1993                           
  1994                           ;mcc_generated_files/i2c1_slave.c: 122:     I2C1CON2 = 0x00;
  1995  0007C6  0E00               	movlw	0
  1996  0007C8  6F96               	movwf	150,b	;volatile
  1997                           
  1998                           ;mcc_generated_files/i2c1_slave.c: 124:     I2C1CNTL = 0x00;
  1999  0007CA  0E00               	movlw	0
  2000  0007CC  6F8C               	movwf	140,b	;volatile
  2001                           
  2002                           ;mcc_generated_files/i2c1_slave.c: 125:     I2C1CNTH = 0x00;
  2003  0007CE  0E00               	movlw	0
  2004  0007D0  6F8D               	movwf	141,b	;volatile
  2005                           
  2006                           ;mcc_generated_files/i2c1_slave.c: 127:     I2C1BAUD = 0x7F;
  2007  0007D2  0E7F               	movlw	127
  2008  0007D4  6F9D               	movwf	157,b	;volatile
  2009  0007D6                     
  2010                           ; BSR set to: 2
  2011  0007D6  0012               	return		;funcret
  2012  0007D8                     __end_of_I2C1_Initialize:
  2013                           	callstack 0
  2014                           
  2015 ;; *************** function _CMP1_Initialize *****************
  2016 ;; Defined at:
  2017 ;;		line 58 in file "mcc_generated_files/cmp1.c"
  2018 ;; Parameters:    Size  Location     Type
  2019 ;;		None
  2020 ;; Auto vars:     Size  Location     Type
  2021 ;;		None
  2022 ;; Return value:  Size  Location     Type
  2023 ;;                  1    wreg      void 
  2024 ;; Registers used:
  2025 ;;		wreg, status,2
  2026 ;; Tracked objects:
  2027 ;;		On entry : 0/0
  2028 ;;		On exit  : 0/0
  2029 ;;		Unchanged: 0/0
  2030 ;; Data sizes:     COMRAM   BANK5   BANK6   BANK7   BANK8   BANK9  BANK10  BANK11  BANK12  BANK13  BANK14  BANK15  BANK1
      +6  BANK17  BANK18  BANK19  BANK20  BANK21
  2031 ;;      Params:         0       0       0       0       0       0       0       0       0       0       0       0       
      +0       0       0       0       0       0
  2032 ;;      Locals:         0       0       0       0       0       0       0       0       0       0       0       0       
      +0       0       0       0       0       0
  2033 ;;      Temps:          0       0       0       0       0       0       0       0       0       0       0       0       
      +0       0       0       0       0       0
  2034 ;;      Totals:         0       0       0       0       0       0       0       0       0       0       0       0       
      +0       0       0       0       0       0
  2035 ;;Total ram usage:        0 bytes
  2036 ;; Hardware stack levels used: 1
  2037 ;; Hardware stack levels required when called: 4
  2038 ;; This function calls:
  2039 ;;		Nothing
  2040 ;; This function is called by:
  2041 ;;		_SYSTEM_Initialize
  2042 ;; This function uses a non-reentrant model
  2043 ;;
  2044                           
  2045                           	psect	text20
  2046  0007F2                     __ptext20:
  2047                           	callstack 0
  2048  0007F2                     _CMP1_Initialize:
  2049                           	callstack 122
  2050  0007F2                     
  2051                           ;mcc_generated_files/cmp1.c: 62:     CM1CON0 = 0x80;
  2052  0007F2  0E80               	movlw	128
  2053  0007F4  0100               	movlb	0	; () banked
  2054  0007F6  6F70               	movwf	112,b	;volatile
  2055                           
  2056                           ;mcc_generated_files/cmp1.c: 65:     CM1CON1 = 0x00;
  2057  0007F8  0E00               	movlw	0
  2058  0007FA  6F71               	movwf	113,b	;volatile
  2059                           
  2060                           ;mcc_generated_files/cmp1.c: 68:     CM1NCH = 0x00;
  2061  0007FC  0E00               	movlw	0
  2062  0007FE  6F72               	movwf	114,b	;volatile
  2063                           
  2064                           ;mcc_generated_files/cmp1.c: 71:     CM1PCH = 0x00;
  2065  000800  0E00               	movlw	0
  2066  000802  6F73               	movwf	115,b	;volatile
  2067  000804                     
  2068                           ; BSR set to: 0
  2069  000804  0012               	return		;funcret
  2070  000806                     __end_of_CMP1_Initialize:
  2071                           	callstack 0
  2072                           
  2073 ;; *************** function _ADCC_Initialize *****************
  2074 ;; Defined at:
  2075 ;;		line 68 in file "mcc_generated_files/adcc.c"
  2076 ;; Parameters:    Size  Location     Type
  2077 ;;		None
  2078 ;; Auto vars:     Size  Location     Type
  2079 ;;		None
  2080 ;; Return value:  Size  Location     Type
  2081 ;;                  1    wreg      void 
  2082 ;; Registers used:
  2083 ;;		wreg, status,2, status,0, cstack
  2084 ;; Tracked objects:
  2085 ;;		On entry : 0/0
  2086 ;;		On exit  : 0/0
  2087 ;;		Unchanged: 0/0
  2088 ;; Data sizes:     COMRAM   BANK5   BANK6   BANK7   BANK8   BANK9  BANK10  BANK11  BANK12  BANK13  BANK14  BANK15  BANK1
      +6  BANK17  BANK18  BANK19  BANK20  BANK21
  2089 ;;      Params:         0       0       0       0       0       0       0       0       0       0       0       0       
      +0       0       0       0       0       0
  2090 ;;      Locals:         0       0       0       0       0       0       0       0       0       0       0       0       
      +0       0       0       0       0       0
  2091 ;;      Temps:          0       0       0       0       0       0       0       0       0       0       0       0       
      +0       0       0       0       0       0
  2092 ;;      Totals:         0       0       0       0       0       0       0       0       0       0       0       0       
      +0       0       0       0       0       0
  2093 ;;Total ram usage:        0 bytes
  2094 ;; Hardware stack levels used: 1
  2095 ;; Hardware stack levels required when called: 5
  2096 ;; This function calls:
  2097 ;;		_ADCC_SetADIInterruptHandler
  2098 ;; This function is called by:
  2099 ;;		_SYSTEM_Initialize
  2100 ;; This function uses a non-reentrant model
  2101 ;;
  2102                           
  2103                           	psect	text21
  2104  000322                     __ptext21:
  2105                           	callstack 0
  2106  000322                     _ADCC_Initialize:
  2107                           	callstack 121
  2108  000322                     
  2109                           ;mcc_generated_files/adcc.c: 72:     ADLTHL = 0x00;
  2110  000322  0E00               	movlw	0
  2111  000324  0103               	movlb	3	; () banked
  2112  000326  6FD9               	movwf	217,b	;volatile
  2113                           
  2114                           ;mcc_generated_files/adcc.c: 74:     ADLTHH = 0x00;
  2115  000328  0E00               	movlw	0
  2116  00032A  6FDA               	movwf	218,b	;volatile
  2117                           
  2118                           ;mcc_generated_files/adcc.c: 76:     ADUTHL = 0x00;
  2119  00032C  0E00               	movlw	0
  2120  00032E  6FDB               	movwf	219,b	;volatile
  2121                           
  2122                           ;mcc_generated_files/adcc.c: 78:     ADUTHH = 0x00;
  2123  000330  0E00               	movlw	0
  2124  000332  6FDC               	movwf	220,b	;volatile
  2125                           
  2126                           ;mcc_generated_files/adcc.c: 80:     ADSTPTL = 0x00;
  2127  000334  0E00               	movlw	0
  2128  000336  6FDF               	movwf	223,b	;volatile
  2129                           
  2130                           ;mcc_generated_files/adcc.c: 82:     ADSTPTH = 0x00;
  2131  000338  0E00               	movlw	0
  2132  00033A  6FE0               	movwf	224,b	;volatile
  2133                           
  2134                           ;mcc_generated_files/adcc.c: 84:     ADACCU = 0x00;
  2135  00033C  0E00               	movlw	0
  2136  00033E  6FE5               	movwf	229,b	;volatile
  2137                           
  2138                           ;mcc_generated_files/adcc.c: 86:     ADRPT = 0x00;
  2139  000340  0E00               	movlw	0
  2140  000342  6FE7               	movwf	231,b	;volatile
  2141                           
  2142                           ;mcc_generated_files/adcc.c: 88:     ADPCH = 0x00;
  2143  000344  0E00               	movlw	0
  2144  000346  6FEC               	movwf	236,b	;volatile
  2145  000348                     
  2146                           ; BSR set to: 3
  2147                           ;mcc_generated_files/adcc.c: 90:     ADACQL = 0xFF;
  2148  000348  69EE               	setf	238,b	;volatile
  2149                           
  2150                           ;mcc_generated_files/adcc.c: 92:     ADACQH = 0x1F;
  2151  00034A  0E1F               	movlw	31
  2152  00034C  6FEF               	movwf	239,b	;volatile
  2153                           
  2154                           ;mcc_generated_files/adcc.c: 94:     ADCAP = 0x00;
  2155  00034E  0E00               	movlw	0
  2156  000350  6FF0               	movwf	240,b	;volatile
  2157                           
  2158                           ;mcc_generated_files/adcc.c: 96:     ADPREL = 0x01;
  2159  000352  0E01               	movlw	1
  2160  000354  6FF1               	movwf	241,b	;volatile
  2161                           
  2162                           ;mcc_generated_files/adcc.c: 98:     ADPREH = 0x00;
  2163  000356  0E00               	movlw	0
  2164  000358  6FF2               	movwf	242,b	;volatile
  2165                           
  2166                           ;mcc_generated_files/adcc.c: 100:     ADCON1 = 0x00;
  2167  00035A  0E00               	movlw	0
  2168  00035C  6FF4               	movwf	244,b	;volatile
  2169                           
  2170                           ;mcc_generated_files/adcc.c: 102:     ADCON2 = 0x10;
  2171  00035E  0E10               	movlw	16
  2172  000360  6FF5               	movwf	245,b	;volatile
  2173                           
  2174                           ;mcc_generated_files/adcc.c: 104:     ADCON3 = 0x00;
  2175  000362  0E00               	movlw	0
  2176  000364  6FF6               	movwf	246,b	;volatile
  2177                           
  2178                           ;mcc_generated_files/adcc.c: 106:     ADSTAT = 0x00;
  2179  000366  0E00               	movlw	0
  2180  000368  6FF7               	movwf	247,b	;volatile
  2181                           
  2182                           ;mcc_generated_files/adcc.c: 108:     ADREF = 0x00;
  2183  00036A  0E00               	movlw	0
  2184  00036C  6FF8               	movwf	248,b	;volatile
  2185                           
  2186                           ;mcc_generated_files/adcc.c: 110:     ADACT = 0x02;
  2187  00036E  0E02               	movlw	2
  2188  000370  6FF9               	movwf	249,b	;volatile
  2189                           
  2190                           ;mcc_generated_files/adcc.c: 112:     ADCLK = 0x3F;
  2191  000372  0E3F               	movlw	63
  2192  000374  6FFA               	movwf	250,b	;volatile
  2193                           
  2194                           ;mcc_generated_files/adcc.c: 114:     ADCON0 = 0x84;
  2195  000376  0E84               	movlw	132
  2196  000378  6FF3               	movwf	243,b	;volatile
  2197  00037A                     
  2198                           ; BSR set to: 3
  2199                           ;mcc_generated_files/adcc.c: 117:     PIR1bits.ADIF = 0;
  2200  00037A  94B4               	bcf	180,2,c	;volatile
  2201  00037C                     
  2202                           ; BSR set to: 3
  2203                           ;mcc_generated_files/adcc.c: 119:     PIE1bits.ADIE = 1;
  2204  00037C  84A9               	bsf	169,2,c	;volatile
  2205  00037E                     
  2206                           ; BSR set to: 3
  2207                           ;mcc_generated_files/adcc.c: 121:     ADCC_SetADIInterruptHandler(ADCC_DefaultInterruptH
      +                          andler);
  2208  00037E  0EEC               	movlw	low _ADCC_DefaultInterruptHandler
  2209  000380  6E25               	movwf	ADCC_SetADIInterruptHandler@InterruptHandler^(0+1280),c
  2210  000382  0E05               	movlw	high _ADCC_DefaultInterruptHandler
  2211  000384  6E26               	movwf	(ADCC_SetADIInterruptHandler@InterruptHandler+1)^(0+1280),c
  2212  000386  EC41  F004         	call	_ADCC_SetADIInterruptHandler	;wreg free
  2213  00038A  0012               	return		;funcret
  2214  00038C                     __end_of_ADCC_Initialize:
  2215                           	callstack 0
  2216                           
  2217 ;; *************** function _ADCC_SetADIInterruptHandler *****************
  2218 ;; Defined at:
  2219 ;;		line 320 in file "mcc_generated_files/adcc.c"
  2220 ;; Parameters:    Size  Location     Type
  2221 ;;  InterruptHan    2   12[COMRAM] PTR FTN()void 
  2222 ;;		 -> ADCC_DefaultInterruptHandler(1), 
  2223 ;; Auto vars:     Size  Location     Type
  2224 ;;		None
  2225 ;; Return value:  Size  Location     Type
  2226 ;;                  1    wreg      void 
  2227 ;; Registers used:
  2228 ;;		wreg, status,2, status,0
  2229 ;; Tracked objects:
  2230 ;;		On entry : 0/0
  2231 ;;		On exit  : 0/0
  2232 ;;		Unchanged: 0/0
  2233 ;; Data sizes:     COMRAM   BANK5   BANK6   BANK7   BANK8   BANK9  BANK10  BANK11  BANK12  BANK13  BANK14  BANK15  BANK1
      +6  BANK17  BANK18  BANK19  BANK20  BANK21
  2234 ;;      Params:         2       0       0       0       0       0       0       0       0       0       0       0       
      +0       0       0       0       0       0
  2235 ;;      Locals:         0       0       0       0       0       0       0       0       0       0       0       0       
      +0       0       0       0       0       0
  2236 ;;      Temps:          0       0       0       0       0       0       0       0       0       0       0       0       
      +0       0       0       0       0       0
  2237 ;;      Totals:         2       0       0       0       0       0       0       0       0       0       0       0       
      +0       0       0       0       0       0
  2238 ;;Total ram usage:        2 bytes
  2239 ;; Hardware stack levels used: 1
  2240 ;; Hardware stack levels required when called: 4
  2241 ;; This function calls:
  2242 ;;		Nothing
  2243 ;; This function is called by:
  2244 ;;		_ADCC_Initialize
  2245 ;; This function uses a non-reentrant model
  2246 ;;
  2247                           
  2248                           	psect	text22
  2249  000882                     __ptext22:
  2250                           	callstack 0
  2251  000882                     _ADCC_SetADIInterruptHandler:
  2252                           	callstack 121
  2253  000882                     
  2254                           ;mcc_generated_files/adcc.c: 321:     ADCC_ADI_InterruptHandler = InterruptHandler;
  2255  000882  C525  F52A         	movff	ADCC_SetADIInterruptHandler@InterruptHandler,_ADCC_ADI_InterruptHandler
  2256  000886  C526  F52B         	movff	ADCC_SetADIInterruptHandler@InterruptHandler+1,_ADCC_ADI_InterruptHandler+1
  2257  00088A  0012               	return		;funcret
  2258  00088C                     __end_of_ADCC_SetADIInterruptHandler:
  2259                           	callstack 0
  2260                           
  2261 ;; *************** function _I2C1_Open *****************
  2262 ;; Defined at:
  2263 ;;		line 130 in file "mcc_generated_files/i2c1_slave.c"
  2264 ;; Parameters:    Size  Location     Type
  2265 ;;		None
  2266 ;; Auto vars:     Size  Location     Type
  2267 ;;		None
  2268 ;; Return value:  Size  Location     Type
  2269 ;;                  1    wreg      void 
  2270 ;; Registers used:
  2271 ;;		wreg, status,2, status,0, cstack
  2272 ;; Tracked objects:
  2273 ;;		On entry : 0/0
  2274 ;;		On exit  : 0/0
  2275 ;;		Unchanged: 0/0
  2276 ;; Data sizes:     COMRAM   BANK5   BANK6   BANK7   BANK8   BANK9  BANK10  BANK11  BANK12  BANK13  BANK14  BANK15  BANK1
      +6  BANK17  BANK18  BANK19  BANK20  BANK21
  2277 ;;      Params:         0       0       0       0       0       0       0       0       0       0       0       0       
      +0       0       0       0       0       0
  2278 ;;      Locals:         0       0       0       0       0       0       0       0       0       0       0       0       
      +0       0       0       0       0       0
  2279 ;;      Temps:          0       0       0       0       0       0       0       0       0       0       0       0       
      +0       0       0       0       0       0
  2280 ;;      Totals:         0       0       0       0       0       0       0       0       0       0       0       0       
      +0       0       0       0       0       0
  2281 ;;Total ram usage:        0 bytes
  2282 ;; Hardware stack levels used: 1
  2283 ;; Hardware stack levels required when called: 5
  2284 ;; This function calls:
  2285 ;;		_I2C1_SlaveEnableIrq
  2286 ;;		_I2C1_SlaveOpen
  2287 ;;		_I2C1_SlaveSetAddrIntHandler
  2288 ;;		_I2C1_SlaveSetBusColIntHandler
  2289 ;;		_I2C1_SlaveSetReadIntHandler
  2290 ;;		_I2C1_SlaveSetSlaveAddr
  2291 ;;		_I2C1_SlaveSetSlaveMask
  2292 ;;		_I2C1_SlaveSetWrColIntHandler
  2293 ;;		_I2C1_SlaveSetWriteIntHandler
  2294 ;; This function is called by:
  2295 ;;		_main
  2296 ;; This function uses a non-reentrant model
  2297 ;;
  2298                           
  2299                           	psect	text23
  2300  000508                     __ptext23:
  2301                           	callstack 0
  2302  000508                     _I2C1_Open:
  2303                           	callstack 122
  2304  000508                     
  2305                           ;mcc_generated_files/i2c1_slave.c: 132:     I2C1_SlaveOpen();
  2306  000508  EC03  F004         	call	_I2C1_SlaveOpen	;wreg free
  2307  00050C                     
  2308                           ;mcc_generated_files/i2c1_slave.c: 133:     I2C1_SlaveSetSlaveAddr(100);
  2309  00050C  0E64               	movlw	100
  2310  00050E  EC16  F004         	call	_I2C1_SlaveSetSlaveAddr
  2311  000512                     
  2312                           ;mcc_generated_files/i2c1_slave.c: 134:     I2C1_SlaveSetSlaveMask(127);
  2313  000512  0E7F               	movlw	127
  2314  000514  EC0D  F004         	call	_I2C1_SlaveSetSlaveMask
  2315  000518                     
  2316                           ;mcc_generated_files/i2c1_slave.c: 135:     I2C1_SlaveSetBusColIntHandler(I2C1_SlaveDefB
      +                          usColInterruptHandler);
  2317  000518  0E00               	movlw	0
  2318  00051A  6E25               	movwf	I2C1_SlaveSetBusColIntHandler@handler^(0+1280),c
  2319  00051C  0E00               	movlw	0
  2320  00051E  6E26               	movwf	(I2C1_SlaveSetBusColIntHandler@handler+1)^(0+1280),c
  2321  000520  EC55  F004         	call	_I2C1_SlaveSetBusColIntHandler	;wreg free
  2322  000524                     
  2323                           ;mcc_generated_files/i2c1_slave.c: 136:     I2C1_SlaveSetWriteIntHandler(I2C1_SlaveDefWr
      +                          InterruptHandler);
  2324  000524  0E00               	movlw	0
  2325  000526  6E25               	movwf	I2C1_SlaveSetWriteIntHandler@handler^(0+1280),c
  2326  000528  0E00               	movlw	0
  2327  00052A  6E26               	movwf	(I2C1_SlaveSetWriteIntHandler@handler+1)^(0+1280),c
  2328  00052C  EC46  F004         	call	_I2C1_SlaveSetWriteIntHandler	;wreg free
  2329  000530                     
  2330                           ;mcc_generated_files/i2c1_slave.c: 137:     I2C1_SlaveSetReadIntHandler(I2C1_SlaveDefRdI
      +                          nterruptHandler);
  2331  000530  0E00               	movlw	0
  2332  000532  6E25               	movwf	I2C1_SlaveSetReadIntHandler@handler^(0+1280),c
  2333  000534  0E00               	movlw	0
  2334  000536  6E26               	movwf	(I2C1_SlaveSetReadIntHandler@handler+1)^(0+1280),c
  2335  000538  EC50  F004         	call	_I2C1_SlaveSetReadIntHandler	;wreg free
  2336  00053C                     
  2337                           ;mcc_generated_files/i2c1_slave.c: 138:     I2C1_SlaveSetAddrIntHandler(I2C1_SlaveDefAdd
      +                          rInterruptHandler);
  2338  00053C  0E00               	movlw	0
  2339  00053E  6E25               	movwf	I2C1_SlaveSetAddrIntHandler@handler^(0+1280),c
  2340  000540  0E00               	movlw	0
  2341  000542  6E26               	movwf	(I2C1_SlaveSetAddrIntHandler@handler+1)^(0+1280),c
  2342  000544  EC5A  F004         	call	_I2C1_SlaveSetAddrIntHandler	;wreg free
  2343  000548                     
  2344                           ;mcc_generated_files/i2c1_slave.c: 139:     I2C1_SlaveSetWrColIntHandler(I2C1_SlaveDefWr
      +                          ColInterruptHandler);
  2345  000548  0E00               	movlw	0
  2346  00054A  6E25               	movwf	I2C1_SlaveSetWrColIntHandler@handler^(0+1280),c
  2347  00054C  0E00               	movlw	0
  2348  00054E  6E26               	movwf	(I2C1_SlaveSetWrColIntHandler@handler+1)^(0+1280),c
  2349  000550  EC4B  F004         	call	_I2C1_SlaveSetWrColIntHandler	;wreg free
  2350  000554                     
  2351                           ;mcc_generated_files/i2c1_slave.c: 140:     I2C1_SlaveEnableIrq();
  2352  000554  EC1F  F004         	call	_I2C1_SlaveEnableIrq	;wreg free
  2353  000558  0012               	return		;funcret
  2354  00055A                     __end_of_I2C1_Open:
  2355                           	callstack 0
  2356                           
  2357 ;; *************** function _I2C1_SlaveSetWriteIntHandler *****************
  2358 ;; Defined at:
  2359 ;;		line 217 in file "mcc_generated_files/i2c1_slave.c"
  2360 ;; Parameters:    Size  Location     Type
  2361 ;;  handler         2   12[COMRAM] PTR FTN()void 
  2362 ;;		 -> I2C1_SlaveDefWrInterruptHandler(1), 
  2363 ;; Auto vars:     Size  Location     Type
  2364 ;;		None
  2365 ;; Return value:  Size  Location     Type
  2366 ;;                  1    wreg      void 
  2367 ;; Registers used:
  2368 ;;		wreg, status,2, status,0
  2369 ;; Tracked objects:
  2370 ;;		On entry : 0/0
  2371 ;;		On exit  : 0/0
  2372 ;;		Unchanged: 0/0
  2373 ;; Data sizes:     COMRAM   BANK5   BANK6   BANK7   BANK8   BANK9  BANK10  BANK11  BANK12  BANK13  BANK14  BANK15  BANK1
      +6  BANK17  BANK18  BANK19  BANK20  BANK21
  2374 ;;      Params:         2       0       0       0       0       0       0       0       0       0       0       0       
      +0       0       0       0       0       0
  2375 ;;      Locals:         0       0       0       0       0       0       0       0       0       0       0       0       
      +0       0       0       0       0       0
  2376 ;;      Temps:          0       0       0       0       0       0       0       0       0       0       0       0       
      +0       0       0       0       0       0
  2377 ;;      Totals:         2       0       0       0       0       0       0       0       0       0       0       0       
      +0       0       0       0       0       0
  2378 ;;Total ram usage:        2 bytes
  2379 ;; Hardware stack levels used: 1
  2380 ;; Hardware stack levels required when called: 4
  2381 ;; This function calls:
  2382 ;;		Nothing
  2383 ;; This function is called by:
  2384 ;;		_I2C1_Open
  2385 ;; This function uses a non-reentrant model
  2386 ;;
  2387                           
  2388                           	psect	text24
  2389  00088C                     __ptext24:
  2390                           	callstack 0
  2391  00088C                     _I2C1_SlaveSetWriteIntHandler:
  2392                           	callstack 122
  2393  00088C                     
  2394                           ;mcc_generated_files/i2c1_slave.c: 218:     I2C1_SlaveWrInterruptHandler = handler;
  2395  00088C  C525  F50B         	movff	I2C1_SlaveSetWriteIntHandler@handler,_I2C1_SlaveWrInterruptHandler
  2396  000890  C526  F50C         	movff	I2C1_SlaveSetWriteIntHandler@handler+1,_I2C1_SlaveWrInterruptHandler+1
  2397  000894  0012               	return		;funcret
  2398  000896                     __end_of_I2C1_SlaveSetWriteIntHandler:
  2399                           	callstack 0
  2400                           
  2401 ;; *************** function _I2C1_SlaveSetWrColIntHandler *****************
  2402 ;; Defined at:
  2403 ;;		line 254 in file "mcc_generated_files/i2c1_slave.c"
  2404 ;; Parameters:    Size  Location     Type
  2405 ;;  handler         2   12[COMRAM] PTR FTN()void 
  2406 ;;		 -> I2C1_SlaveDefWrColInterruptHandler(1), 
  2407 ;; Auto vars:     Size  Location     Type
  2408 ;;		None
  2409 ;; Return value:  Size  Location     Type
  2410 ;;                  1    wreg      void 
  2411 ;; Registers used:
  2412 ;;		wreg, status,2, status,0
  2413 ;; Tracked objects:
  2414 ;;		On entry : 0/0
  2415 ;;		On exit  : 0/0
  2416 ;;		Unchanged: 0/0
  2417 ;; Data sizes:     COMRAM   BANK5   BANK6   BANK7   BANK8   BANK9  BANK10  BANK11  BANK12  BANK13  BANK14  BANK15  BANK1
      +6  BANK17  BANK18  BANK19  BANK20  BANK21
  2418 ;;      Params:         2       0       0       0       0       0       0       0       0       0       0       0       
      +0       0       0       0       0       0
  2419 ;;      Locals:         0       0       0       0       0       0       0       0       0       0       0       0       
      +0       0       0       0       0       0
  2420 ;;      Temps:          0       0       0       0       0       0       0       0       0       0       0       0       
      +0       0       0       0       0       0
  2421 ;;      Totals:         2       0       0       0       0       0       0       0       0       0       0       0       
      +0       0       0       0       0       0
  2422 ;;Total ram usage:        2 bytes
  2423 ;; Hardware stack levels used: 1
  2424 ;; Hardware stack levels required when called: 4
  2425 ;; This function calls:
  2426 ;;		Nothing
  2427 ;; This function is called by:
  2428 ;;		_I2C1_Open
  2429 ;; This function uses a non-reentrant model
  2430 ;;
  2431                           
  2432                           	psect	text25
  2433  000896                     __ptext25:
  2434                           	callstack 0
  2435  000896                     _I2C1_SlaveSetWrColIntHandler:
  2436                           	callstack 122
  2437  000896                     
  2438                           ;mcc_generated_files/i2c1_slave.c: 255:     I2C1_SlaveWrColInterruptHandler = handler;
  2439  000896  C525  F505         	movff	I2C1_SlaveSetWrColIntHandler@handler,_I2C1_SlaveWrColInterruptHandler
  2440  00089A  C526  F506         	movff	I2C1_SlaveSetWrColIntHandler@handler+1,_I2C1_SlaveWrColInterruptHandler+1
  2441  00089E  0012               	return		;funcret
  2442  0008A0                     __end_of_I2C1_SlaveSetWrColIntHandler:
  2443                           	callstack 0
  2444                           
  2445 ;; *************** function _I2C1_SlaveSetSlaveMask *****************
  2446 ;; Defined at:
  2447 ;;		line 308 in file "mcc_generated_files/i2c1_slave.c"
  2448 ;; Parameters:    Size  Location     Type
  2449 ;;  maskAddr        1    wreg     unsigned char 
  2450 ;; Auto vars:     Size  Location     Type
  2451 ;;  maskAddr        1   12[COMRAM] unsigned char 
  2452 ;; Return value:  Size  Location     Type
  2453 ;;                  1    wreg      void 
  2454 ;; Registers used:
  2455 ;;		wreg, status,2, status,0
  2456 ;; Tracked objects:
  2457 ;;		On entry : 0/0
  2458 ;;		On exit  : 0/0
  2459 ;;		Unchanged: 0/0
  2460 ;; Data sizes:     COMRAM   BANK5   BANK6   BANK7   BANK8   BANK9  BANK10  BANK11  BANK12  BANK13  BANK14  BANK15  BANK1
      +6  BANK17  BANK18  BANK19  BANK20  BANK21
  2461 ;;      Params:         0       0       0       0       0       0       0       0       0       0       0       0       
      +0       0       0       0       0       0
  2462 ;;      Locals:         1       0       0       0       0       0       0       0       0       0       0       0       
      +0       0       0       0       0       0
  2463 ;;      Temps:          0       0       0       0       0       0       0       0       0       0       0       0       
      +0       0       0       0       0       0
  2464 ;;      Totals:         1       0       0       0       0       0       0       0       0       0       0       0       
      +0       0       0       0       0       0
  2465 ;;Total ram usage:        1 bytes
  2466 ;; Hardware stack levels used: 1
  2467 ;; Hardware stack levels required when called: 4
  2468 ;; This function calls:
  2469 ;;		Nothing
  2470 ;; This function is called by:
  2471 ;;		_I2C1_Open
  2472 ;; This function uses a non-reentrant model
  2473 ;;
  2474                           
  2475                           	psect	text26
  2476  00081A                     __ptext26:
  2477                           	callstack 0
  2478  00081A                     _I2C1_SlaveSetSlaveMask:
  2479                           	callstack 122
  2480                           
  2481                           ;incstack = 0
  2482                           ;I2C1_SlaveSetSlaveMask@maskAddr stored from wreg
  2483  00081A  6E25               	movwf	I2C1_SlaveSetSlaveMask@maskAddr^(0+1280),c
  2484  00081C                     
  2485                           ;mcc_generated_files/i2c1_slave.c: 308: static __attribute__((inline)) void I2C1_SlaveSe
      +                          tSlaveMask(uint8_t maskAddr);mcc_generated_files/i2c1_slave.c: 309: {;mcc_generated_file
      +                          s/i2c1_slave.c: 310:     I2C1ADR1 = (uint8_t) (maskAddr << 1);
  2486  00081C  5025               	movf	I2C1_SlaveSetSlaveMask@maskAddr^(0+1280),w,c
  2487  00081E  2425               	addwf	I2C1_SlaveSetSlaveMask@maskAddr^(0+1280),w,c
  2488  000820  0102               	movlb	2	; () banked
  2489  000822  6F91               	movwf	145,b	;volatile
  2490                           
  2491                           ;mcc_generated_files/i2c1_slave.c: 311:     I2C1ADR3 = (uint8_t) (maskAddr << 1);
  2492  000824  5025               	movf	I2C1_SlaveSetSlaveMask@maskAddr^(0+1280),w,c
  2493  000826  2425               	addwf	I2C1_SlaveSetSlaveMask@maskAddr^(0+1280),w,c
  2494  000828  6F93               	movwf	147,b	;volatile
  2495  00082A                     
  2496                           ; BSR set to: 2
  2497  00082A  0012               	return		;funcret
  2498  00082C                     __end_of_I2C1_SlaveSetSlaveMask:
  2499                           	callstack 0
  2500                           
  2501 ;; *************** function _I2C1_SlaveSetSlaveAddr *****************
  2502 ;; Defined at:
  2503 ;;		line 302 in file "mcc_generated_files/i2c1_slave.c"
  2504 ;; Parameters:    Size  Location     Type
  2505 ;;  slaveAddr       1    wreg     unsigned char 
  2506 ;; Auto vars:     Size  Location     Type
  2507 ;;  slaveAddr       1   12[COMRAM] unsigned char 
  2508 ;; Return value:  Size  Location     Type
  2509 ;;                  1    wreg      void 
  2510 ;; Registers used:
  2511 ;;		wreg, status,2, status,0
  2512 ;; Tracked objects:
  2513 ;;		On entry : 0/0
  2514 ;;		On exit  : 0/0
  2515 ;;		Unchanged: 0/0
  2516 ;; Data sizes:     COMRAM   BANK5   BANK6   BANK7   BANK8   BANK9  BANK10  BANK11  BANK12  BANK13  BANK14  BANK15  BANK1
      +6  BANK17  BANK18  BANK19  BANK20  BANK21
  2517 ;;      Params:         0       0       0       0       0       0       0       0       0       0       0       0       
      +0       0       0       0       0       0
  2518 ;;      Locals:         1       0       0       0       0       0       0       0       0       0       0       0       
      +0       0       0       0       0       0
  2519 ;;      Temps:          0       0       0       0       0       0       0       0       0       0       0       0       
      +0       0       0       0       0       0
  2520 ;;      Totals:         1       0       0       0       0       0       0       0       0       0       0       0       
      +0       0       0       0       0       0
  2521 ;;Total ram usage:        1 bytes
  2522 ;; Hardware stack levels used: 1
  2523 ;; Hardware stack levels required when called: 4
  2524 ;; This function calls:
  2525 ;;		Nothing
  2526 ;; This function is called by:
  2527 ;;		_I2C1_Open
  2528 ;; This function uses a non-reentrant model
  2529 ;;
  2530                           
  2531                           	psect	text27
  2532  00082C                     __ptext27:
  2533                           	callstack 0
  2534  00082C                     _I2C1_SlaveSetSlaveAddr:
  2535                           	callstack 122
  2536                           
  2537                           ; BSR set to: 2
  2538                           ;incstack = 0
  2539                           ;I2C1_SlaveSetSlaveAddr@slaveAddr stored from wreg
  2540  00082C  6E25               	movwf	I2C1_SlaveSetSlaveAddr@slaveAddr^(0+1280),c
  2541  00082E                     
  2542                           ;mcc_generated_files/i2c1_slave.c: 302: static __attribute__((inline)) void I2C1_SlaveSe
      +                          tSlaveAddr(uint8_t slaveAddr);mcc_generated_files/i2c1_slave.c: 303: {;mcc_generated_fil
      +                          es/i2c1_slave.c: 304:     I2C1ADR0 = (uint8_t) (slaveAddr << 1);
  2543  00082E  5025               	movf	I2C1_SlaveSetSlaveAddr@slaveAddr^(0+1280),w,c
  2544  000830  2425               	addwf	I2C1_SlaveSetSlaveAddr@slaveAddr^(0+1280),w,c
  2545  000832  0102               	movlb	2	; () banked
  2546  000834  6F90               	movwf	144,b	;volatile
  2547                           
  2548                           ;mcc_generated_files/i2c1_slave.c: 305:     I2C1ADR2 = (uint8_t) (slaveAddr << 1);
  2549  000836  5025               	movf	I2C1_SlaveSetSlaveAddr@slaveAddr^(0+1280),w,c
  2550  000838  2425               	addwf	I2C1_SlaveSetSlaveAddr@slaveAddr^(0+1280),w,c
  2551  00083A  6F92               	movwf	146,b	;volatile
  2552  00083C                     
  2553                           ; BSR set to: 2
  2554  00083C  0012               	return		;funcret
  2555  00083E                     __end_of_I2C1_SlaveSetSlaveAddr:
  2556                           	callstack 0
  2557                           
  2558 ;; *************** function _I2C1_SlaveSetReadIntHandler *****************
  2559 ;; Defined at:
  2560 ;;		line 184 in file "mcc_generated_files/i2c1_slave.c"
  2561 ;; Parameters:    Size  Location     Type
  2562 ;;  handler         2   12[COMRAM] PTR FTN()void 
  2563 ;;		 -> I2C1_SlaveDefRdInterruptHandler(1), 
  2564 ;; Auto vars:     Size  Location     Type
  2565 ;;		None
  2566 ;; Return value:  Size  Location     Type
  2567 ;;                  1    wreg      void 
  2568 ;; Registers used:
  2569 ;;		wreg, status,2, status,0
  2570 ;; Tracked objects:
  2571 ;;		On entry : 0/0
  2572 ;;		On exit  : 0/0
  2573 ;;		Unchanged: 0/0
  2574 ;; Data sizes:     COMRAM   BANK5   BANK6   BANK7   BANK8   BANK9  BANK10  BANK11  BANK12  BANK13  BANK14  BANK15  BANK1
      +6  BANK17  BANK18  BANK19  BANK20  BANK21
  2575 ;;      Params:         2       0       0       0       0       0       0       0       0       0       0       0       
      +0       0       0       0       0       0
  2576 ;;      Locals:         0       0       0       0       0       0       0       0       0       0       0       0       
      +0       0       0       0       0       0
  2577 ;;      Temps:          0       0       0       0       0       0       0       0       0       0       0       0       
      +0       0       0       0       0       0
  2578 ;;      Totals:         2       0       0       0       0       0       0       0       0       0       0       0       
      +0       0       0       0       0       0
  2579 ;;Total ram usage:        2 bytes
  2580 ;; Hardware stack levels used: 1
  2581 ;; Hardware stack levels required when called: 4
  2582 ;; This function calls:
  2583 ;;		Nothing
  2584 ;; This function is called by:
  2585 ;;		_I2C1_Open
  2586 ;; This function uses a non-reentrant model
  2587 ;;
  2588                           
  2589                           	psect	text28
  2590  0008A0                     __ptext28:
  2591                           	callstack 0
  2592  0008A0                     _I2C1_SlaveSetReadIntHandler:
  2593                           	callstack 122
  2594  0008A0                     
  2595                           ;mcc_generated_files/i2c1_slave.c: 185:     I2C1_SlaveRdInterruptHandler = handler;
  2596  0008A0  C525  F50D         	movff	I2C1_SlaveSetReadIntHandler@handler,_I2C1_SlaveRdInterruptHandler
  2597  0008A4  C526  F50E         	movff	I2C1_SlaveSetReadIntHandler@handler+1,_I2C1_SlaveRdInterruptHandler+1
  2598  0008A8  0012               	return		;funcret
  2599  0008AA                     __end_of_I2C1_SlaveSetReadIntHandler:
  2600                           	callstack 0
  2601                           
  2602 ;; *************** function _I2C1_SlaveSetBusColIntHandler *****************
  2603 ;; Defined at:
  2604 ;;		line 270 in file "mcc_generated_files/i2c1_slave.c"
  2605 ;; Parameters:    Size  Location     Type
  2606 ;;  handler         2   12[COMRAM] PTR FTN()void 
  2607 ;;		 -> I2C1_SlaveDefBusColInterruptHandler(1), 
  2608 ;; Auto vars:     Size  Location     Type
  2609 ;;		None
  2610 ;; Return value:  Size  Location     Type
  2611 ;;                  1    wreg      void 
  2612 ;; Registers used:
  2613 ;;		wreg, status,2, status,0
  2614 ;; Tracked objects:
  2615 ;;		On entry : 0/0
  2616 ;;		On exit  : 0/0
  2617 ;;		Unchanged: 0/0
  2618 ;; Data sizes:     COMRAM   BANK5   BANK6   BANK7   BANK8   BANK9  BANK10  BANK11  BANK12  BANK13  BANK14  BANK15  BANK1
      +6  BANK17  BANK18  BANK19  BANK20  BANK21
  2619 ;;      Params:         2       0       0       0       0       0       0       0       0       0       0       0       
      +0       0       0       0       0       0
  2620 ;;      Locals:         0       0       0       0       0       0       0       0       0       0       0       0       
      +0       0       0       0       0       0
  2621 ;;      Temps:          0       0       0       0       0       0       0       0       0       0       0       0       
      +0       0       0       0       0       0
  2622 ;;      Totals:         2       0       0       0       0       0       0       0       0       0       0       0       
      +0       0       0       0       0       0
  2623 ;;Total ram usage:        2 bytes
  2624 ;; Hardware stack levels used: 1
  2625 ;; Hardware stack levels required when called: 4
  2626 ;; This function calls:
  2627 ;;		Nothing
  2628 ;; This function is called by:
  2629 ;;		_I2C1_Open
  2630 ;; This function uses a non-reentrant model
  2631 ;;
  2632                           
  2633                           	psect	text29
  2634  0008AA                     __ptext29:
  2635                           	callstack 0
  2636  0008AA                     _I2C1_SlaveSetBusColIntHandler:
  2637                           	callstack 122
  2638  0008AA                     
  2639                           ;mcc_generated_files/i2c1_slave.c: 271:     I2C1_SlaveBusColInterruptHandler = handler;
  2640  0008AA  C525  F507         	movff	I2C1_SlaveSetBusColIntHandler@handler,_I2C1_SlaveBusColInterruptHandler
  2641  0008AE  C526  F508         	movff	I2C1_SlaveSetBusColIntHandler@handler+1,_I2C1_SlaveBusColInterruptHandler+1
  2642  0008B2  0012               	return		;funcret
  2643  0008B4                     __end_of_I2C1_SlaveSetBusColIntHandler:
  2644                           	callstack 0
  2645                           
  2646 ;; *************** function _I2C1_SlaveSetAddrIntHandler *****************
  2647 ;; Defined at:
  2648 ;;		line 238 in file "mcc_generated_files/i2c1_slave.c"
  2649 ;; Parameters:    Size  Location     Type
  2650 ;;  handler         2   12[COMRAM] PTR FTN()void 
  2651 ;;		 -> I2C1_SlaveDefAddrInterruptHandler(1), 
  2652 ;; Auto vars:     Size  Location     Type
  2653 ;;		None
  2654 ;; Return value:  Size  Location     Type
  2655 ;;                  1    wreg      void 
  2656 ;; Registers used:
  2657 ;;		wreg, status,2, status,0
  2658 ;; Tracked objects:
  2659 ;;		On entry : 0/0
  2660 ;;		On exit  : 0/0
  2661 ;;		Unchanged: 0/0
  2662 ;; Data sizes:     COMRAM   BANK5   BANK6   BANK7   BANK8   BANK9  BANK10  BANK11  BANK12  BANK13  BANK14  BANK15  BANK1
      +6  BANK17  BANK18  BANK19  BANK20  BANK21
  2663 ;;      Params:         2       0       0       0       0       0       0       0       0       0       0       0       
      +0       0       0       0       0       0
  2664 ;;      Locals:         0       0       0       0       0       0       0       0       0       0       0       0       
      +0       0       0       0       0       0
  2665 ;;      Temps:          0       0       0       0       0       0       0       0       0       0       0       0       
      +0       0       0       0       0       0
  2666 ;;      Totals:         2       0       0       0       0       0       0       0       0       0       0       0       
      +0       0       0       0       0       0
  2667 ;;Total ram usage:        2 bytes
  2668 ;; Hardware stack levels used: 1
  2669 ;; Hardware stack levels required when called: 4
  2670 ;; This function calls:
  2671 ;;		Nothing
  2672 ;; This function is called by:
  2673 ;;		_I2C1_Open
  2674 ;; This function uses a non-reentrant model
  2675 ;;
  2676                           
  2677                           	psect	text30
  2678  0008B4                     __ptext30:
  2679                           	callstack 0
  2680  0008B4                     _I2C1_SlaveSetAddrIntHandler:
  2681                           	callstack 122
  2682  0008B4                     
  2683                           ;mcc_generated_files/i2c1_slave.c: 239:     I2C1_SlaveAddrInterruptHandler = handler;
  2684  0008B4  C525  F509         	movff	I2C1_SlaveSetAddrIntHandler@handler,_I2C1_SlaveAddrInterruptHandler
  2685  0008B8  C526  F50A         	movff	I2C1_SlaveSetAddrIntHandler@handler+1,_I2C1_SlaveAddrInterruptHandler+1
  2686  0008BC  0012               	return		;funcret
  2687  0008BE                     __end_of_I2C1_SlaveSetAddrIntHandler:
  2688                           	callstack 0
  2689                           
  2690 ;; *************** function _I2C1_SlaveOpen *****************
  2691 ;; Defined at:
  2692 ;;		line 285 in file "mcc_generated_files/i2c1_slave.c"
  2693 ;; Parameters:    Size  Location     Type
  2694 ;;		None
  2695 ;; Auto vars:     Size  Location     Type
  2696 ;;		None
  2697 ;; Return value:  Size  Location     Type
  2698 ;;                  1    wreg      _Bool 
  2699 ;; Registers used:
  2700 ;;		None
  2701 ;; Tracked objects:
  2702 ;;		On entry : 0/0
  2703 ;;		On exit  : 0/0
  2704 ;;		Unchanged: 0/0
  2705 ;; Data sizes:     COMRAM   BANK5   BANK6   BANK7   BANK8   BANK9  BANK10  BANK11  BANK12  BANK13  BANK14  BANK15  BANK1
      +6  BANK17  BANK18  BANK19  BANK20  BANK21
  2706 ;;      Params:         0       0       0       0       0       0       0       0       0       0       0       0       
      +0       0       0       0       0       0
  2707 ;;      Locals:         0       0       0       0       0       0       0       0       0       0       0       0       
      +0       0       0       0       0       0
  2708 ;;      Temps:          0       0       0       0       0       0       0       0       0       0       0       0       
      +0       0       0       0       0       0
  2709 ;;      Totals:         0       0       0       0       0       0       0       0       0       0       0       0       
      +0       0       0       0       0       0
  2710 ;;Total ram usage:        0 bytes
  2711 ;; Hardware stack levels used: 1
  2712 ;; Hardware stack levels required when called: 4
  2713 ;; This function calls:
  2714 ;;		Nothing
  2715 ;; This function is called by:
  2716 ;;		_I2C1_Open
  2717 ;; This function uses a non-reentrant model
  2718 ;;
  2719                           
  2720                           	psect	text31
  2721  000806                     __ptext31:
  2722                           	callstack 0
  2723  000806                     _I2C1_SlaveOpen:
  2724                           	callstack 122
  2725  000806                     
  2726                           ;mcc_generated_files/i2c1_slave.c: 287:     if(!I2C1CON0bits.EN)
  2727  000806  0102               	movlb	2	; () banked
  2728  000808  BF94               	btfsc	148,7,b	;volatile
  2729  00080A  EF09  F004         	goto	u91
  2730  00080E  EF0B  F004         	goto	u90
  2731  000812                     u91:
  2732  000812  EF0C  F004         	goto	l449
  2733  000816                     u90:
  2734  000816                     
  2735                           ; BSR set to: 2
  2736                           ;mcc_generated_files/i2c1_slave.c: 288:     {;mcc_generated_files/i2c1_slave.c: 289:    
      +                               I2C1CON0bits.EN = 1;
  2737  000816  8F94               	bsf	148,7,b	;volatile
  2738  000818                     l449:
  2739                           
  2740                           ; BSR set to: 2
  2741  000818  0012               	return		;funcret
  2742  00081A                     __end_of_I2C1_SlaveOpen:
  2743                           	callstack 0
  2744                           
  2745 ;; *************** function _I2C1_SlaveEnableIrq *****************
  2746 ;; Defined at:
  2747 ;;		line 314 in file "mcc_generated_files/i2c1_slave.c"
  2748 ;; Parameters:    Size  Location     Type
  2749 ;;		None
  2750 ;; Auto vars:     Size  Location     Type
  2751 ;;		None
  2752 ;; Return value:  Size  Location     Type
  2753 ;;                  1    wreg      void 
  2754 ;; Registers used:
  2755 ;;		None
  2756 ;; Tracked objects:
  2757 ;;		On entry : 0/0
  2758 ;;		On exit  : 0/0
  2759 ;;		Unchanged: 0/0
  2760 ;; Data sizes:     COMRAM   BANK5   BANK6   BANK7   BANK8   BANK9  BANK10  BANK11  BANK12  BANK13  BANK14  BANK15  BANK1
      +6  BANK17  BANK18  BANK19  BANK20  BANK21
  2761 ;;      Params:         0       0       0       0       0       0       0       0       0       0       0       0       
      +0       0       0       0       0       0
  2762 ;;      Locals:         0       0       0       0       0       0       0       0       0       0       0       0       
      +0       0       0       0       0       0
  2763 ;;      Temps:          0       0       0       0       0       0       0       0       0       0       0       0       
      +0       0       0       0       0       0
  2764 ;;      Totals:         0       0       0       0       0       0       0       0       0       0       0       0       
      +0       0       0       0       0       0
  2765 ;;Total ram usage:        0 bytes
  2766 ;; Hardware stack levels used: 1
  2767 ;; Hardware stack levels required when called: 4
  2768 ;; This function calls:
  2769 ;;		Nothing
  2770 ;; This function is called by:
  2771 ;;		_I2C1_Open
  2772 ;; This function uses a non-reentrant model
  2773 ;;
  2774                           
  2775                           	psect	text32
  2776  00083E                     __ptext32:
  2777                           	callstack 0
  2778  00083E                     _I2C1_SlaveEnableIrq:
  2779                           	callstack 122
  2780  00083E                     
  2781                           ;mcc_generated_files/i2c1_slave.c: 316:     PIE7bits.I2C1IE = 1;
  2782  00083E  84AF               	bsf	175,2,c	;volatile
  2783                           
  2784                           ;mcc_generated_files/i2c1_slave.c: 317:     PIE7bits.I2C1EIE = 1;
  2785  000840  86AF               	bsf	175,3,c	;volatile
  2786                           
  2787                           ;mcc_generated_files/i2c1_slave.c: 318:     PIE7bits.I2C1RXIE = 1;
  2788  000842  80AF               	bsf	175,0,c	;volatile
  2789                           
  2790                           ;mcc_generated_files/i2c1_slave.c: 319:     PIE7bits.I2C1TXIE = 1;
  2791  000844  82AF               	bsf	175,1,c	;volatile
  2792                           
  2793                           ;mcc_generated_files/i2c1_slave.c: 320:     I2C1PIEbits.PCIE = 1;
  2794  000846  0102               	movlb	2	; () banked
  2795  000848  859B               	bsf	155,2,b	;volatile
  2796                           
  2797                           ;mcc_generated_files/i2c1_slave.c: 321:     I2C1PIEbits.ADRIE = 1;
  2798  00084A  879B               	bsf	155,3,b	;volatile
  2799                           
  2800                           ;mcc_generated_files/i2c1_slave.c: 322:     I2C1ERRbits.NACKIE = 1;
  2801  00084C  8197               	bsf	151,0,b	;volatile
  2802  00084E                     
  2803                           ; BSR set to: 2
  2804  00084E  0012               	return		;funcret
  2805  000850                     __end_of_I2C1_SlaveEnableIrq:
  2806                           	callstack 0
  2807                           
  2808 ;; *************** function _TMR0_ISR *****************
  2809 ;; Defined at:
  2810 ;;		line 137 in file "mcc_generated_files/tmr0.c"
  2811 ;; Parameters:    Size  Location     Type
  2812 ;;		None
  2813 ;; Auto vars:     Size  Location     Type
  2814 ;;		None
  2815 ;; Return value:  Size  Location     Type
  2816 ;;                  1    wreg      void 
  2817 ;; Registers used:
  2818 ;;		wreg, status,2, status,0, pcl, pclath, pclatu, tosl, cstack
  2819 ;; Tracked objects:
  2820 ;;		On entry : 0/0
  2821 ;;		On exit  : 0/0
  2822 ;;		Unchanged: 0/0
  2823 ;; Data sizes:     COMRAM   BANK5   BANK6   BANK7   BANK8   BANK9  BANK10  BANK11  BANK12  BANK13  BANK14  BANK15  BANK1
      +6  BANK17  BANK18  BANK19  BANK20  BANK21
  2824 ;;      Params:         0       0       0       0       0       0       0       0       0       0       0       0       
      +0       0       0       0       0       0
  2825 ;;      Locals:         0       0       0       0       0       0       0       0       0       0       0       0       
      +0       0       0       0       0       0
  2826 ;;      Temps:          3       0       0       0       0       0       0       0       0       0       0       0       
      +0       0       0       0       0       0
  2827 ;;      Totals:         3       0       0       0       0       0       0       0       0       0       0       0       
      +0       0       0       0       0       0
  2828 ;;Total ram usage:        3 bytes
  2829 ;; Hardware stack levels used: 1
  2830 ;; Hardware stack levels required when called: 3
  2831 ;; This function calls:
  2832 ;;		Absolute function
  2833 ;;		_TMR0_DefaultInterruptHandler
  2834 ;; This function is called by:
  2835 ;;		Interrupt level 1
  2836 ;; This function uses a non-reentrant model
  2837 ;;
  2838                           
  2839                           	psect	text33
  2840  0003F4                     __ptext33:
  2841                           	callstack 0
  2842  0003F4                     _TMR0_ISR:
  2843                           	callstack 121
  2844                           
  2845                           ; BSR set to: 2
  2846                           ;incstack = 0
  2847  0003F4  0061 F360  F51D    	movff	status,??_TMR0_ISR
  2848  0003FA  0061 F3E8  F51E    	movff	pclath,??_TMR0_ISR+1
  2849  000400  0061 F3EC  F51F    	movff	pclatu,??_TMR0_ISR+2
  2850  000406                     
  2851                           ;mcc_generated_files/tmr0.c: 140:     PIR3bits.TMR0IF = 0;
  2852  000406  9EB6               	bcf	182,7,c	;volatile
  2853  000408                     
  2854                           ;mcc_generated_files/tmr0.c: 142:     TMR0H = timer0ReloadVal16bit >> 8;
  2855  000408  5033               	movf	(_timer0ReloadVal16bit+1)^(0+1280),w,c	;volatile
  2856  00040A  0103               	movlb	3	; () banked
  2857  00040C  6F19               	movwf	25,b	;volatile
  2858  00040E                     
  2859                           ; BSR set to: 3
  2860                           ;mcc_generated_files/tmr0.c: 143:     TMR0L = (uint8_t) timer0ReloadVal16bit;
  2861  00040E  0061  F4C8  F318   	movff	_timer0ReloadVal16bit,792	;volatile
  2862  000414                     
  2863                           ; BSR set to: 3
  2864                           ;mcc_generated_files/tmr0.c: 145:     if(TMR0_InterruptHandler)
  2865  000414  5030               	movf	_TMR0_InterruptHandler^(0+1280),w,c
  2866  000416  1031               	iorwf	(_TMR0_InterruptHandler+1)^(0+1280),w,c
  2867  000418  B4D8               	btfsc	status,2,c
  2868  00041A  EF11  F002         	goto	i1u41_21
  2869  00041E  EF13  F002         	goto	i1u41_20
  2870  000422                     i1u41_21:
  2871  000422  EF20  F002         	goto	i1l624
  2872  000426                     i1u41_20:
  2873  000426                     
  2874                           ; BSR set to: 3
  2875                           ;mcc_generated_files/tmr0.c: 146:     {;mcc_generated_files/tmr0.c: 147:         TMR0_In
      +                          terruptHandler();
  2876  000426  D802               	call	i1u42_28
  2877  000428  EF20  F002         	goto	i1u42_29
  2878  00042C                     i1u42_28:
  2879  00042C  0005               	push	
  2880  00042E  6EFA               	movwf	pclath,c
  2881  000430  5030               	movf	_TMR0_InterruptHandler^(0+1280),w,c
  2882  000432  6EFD               	movwf	tosl,c
  2883  000434  5031               	movf	(_TMR0_InterruptHandler+1)^(0+1280),w,c
  2884  000436  6EFE               	movwf	tosh,c
  2885  000438  50F8               	movf	tblptru,w,c
  2886  00043A  6EFF               	movwf	tosu,c
  2887  00043C  50FA               	movf	pclath,w,c
  2888  00043E  0012               	return		;indir
  2889  000440                     i1u42_29:
  2890  000440                     i1l624:
  2891  000440  0061  F47C  F4FB   	movff	??_TMR0_ISR+2,pclatu
  2892  000446  0061  F478  F4FA   	movff	??_TMR0_ISR+1,pclath
  2893  00044C  0061  F474  F4D8   	movff	??_TMR0_ISR,status
  2894  000452  0011               	retfie		f
  2895  000454                     __end_of_TMR0_ISR:
  2896                           	callstack 0
  2897                           
  2898 ;; *************** function _TMR0_DefaultInterruptHandler *****************
  2899 ;; Defined at:
  2900 ;;		line 158 in file "mcc_generated_files/tmr0.c"
  2901 ;; Parameters:    Size  Location     Type
  2902 ;;		None
  2903 ;; Auto vars:     Size  Location     Type
  2904 ;;		None
  2905 ;; Return value:  Size  Location     Type
  2906 ;;                  1    wreg      void 
  2907 ;; Registers used:
  2908 ;;		wreg, status,2, status,0
  2909 ;; Tracked objects:
  2910 ;;		On entry : 0/0
  2911 ;;		On exit  : 0/0
  2912 ;;		Unchanged: 0/0
  2913 ;; Data sizes:     COMRAM   BANK5   BANK6   BANK7   BANK8   BANK9  BANK10  BANK11  BANK12  BANK13  BANK14  BANK15  BANK1
      +6  BANK17  BANK18  BANK19  BANK20  BANK21
  2914 ;;      Params:         0       0       0       0       0       0       0       0       0       0       0       0       
      +0       0       0       0       0       0
  2915 ;;      Locals:         0       0       0       0       0       0       0       0       0       0       0       0       
      +0       0       0       0       0       0
  2916 ;;      Temps:          0       0       0       0       0       0       0       0       0       0       0       0       
      +0       0       0       0       0       0
  2917 ;;      Totals:         0       0       0       0       0       0       0       0       0       0       0       0       
      +0       0       0       0       0       0
  2918 ;;Total ram usage:        0 bytes
  2919 ;; Hardware stack levels used: 1
  2920 ;; Hardware stack levels required when called: 2
  2921 ;; This function calls:
  2922 ;;		Nothing
  2923 ;; This function is called by:
  2924 ;;		_TMR0_Initialize
  2925 ;;		_TMR0_ISR
  2926 ;; This function uses a non-reentrant model
  2927 ;;
  2928                           
  2929                           	psect	text34
  2930  0007D8                     __ptext34:
  2931                           	callstack 0
  2932  0007D8                     _TMR0_DefaultInterruptHandler:
  2933                           	callstack 121
  2934  0007D8                     
  2935                           ;mcc_generated_files/tmr0.c: 163:     Ji2c_registers[0x15]++;
  2936  0007D8  0105               	movlb	5	; () banked
  2937  0007DA  2B75               	incf	(_Ji2c_registers+21)& (0+255),f,b	;volatile
  2938  0007DC                     
  2939                           ; BSR set to: 5
  2940                           ;mcc_generated_files/tmr0.c: 164:     if (Ji2c_registers[0x15] > 180)
  2941  0007DC  0EB4               	movlw	180
  2942  0007DE  6575               	cpfsgt	(_Ji2c_registers+21)& (0+255),b	;volatile
  2943  0007E0  EFF4  F003         	goto	i1u10_21
  2944  0007E4  EFF6  F003         	goto	i1u10_20
  2945  0007E8                     i1u10_21:
  2946  0007E8  EFF8  F003         	goto	i1l631
  2947  0007EC                     i1u10_20:
  2948  0007EC                     
  2949                           ; BSR set to: 5
  2950                           ;mcc_generated_files/tmr0.c: 165:     {;mcc_generated_files/tmr0.c: 167:         Ji2c_re
      +                          gisters[0x15] = 0;
  2951  0007EC  0E00               	movlw	0
  2952  0007EE  6F75               	movwf	(_Ji2c_registers+21)& (0+255),b	;volatile
  2953  0007F0                     i1l631:
  2954                           
  2955                           ; BSR set to: 5
  2956  0007F0  0012               	return		;funcret
  2957  0007F2                     __end_of_TMR0_DefaultInterruptHandler:
  2958                           	callstack 0
  2959                           
  2960 ;; *************** function _TMR1_ISR *****************
  2961 ;; Defined at:
  2962 ;;		line 169 in file "mcc_generated_files/tmr1.c"
  2963 ;; Parameters:    Size  Location     Type
  2964 ;;		None
  2965 ;; Auto vars:     Size  Location     Type
  2966 ;;		None
  2967 ;; Return value:  Size  Location     Type
  2968 ;;                  1    wreg      void 
  2969 ;; Registers used:
  2970 ;;		wreg, status,2, status,0, pcl, pclath, pclatu, tosl, cstack
  2971 ;; Tracked objects:
  2972 ;;		On entry : 0/0
  2973 ;;		On exit  : 0/0
  2974 ;;		Unchanged: 0/0
  2975 ;; Data sizes:     COMRAM   BANK5   BANK6   BANK7   BANK8   BANK9  BANK10  BANK11  BANK12  BANK13  BANK14  BANK15  BANK1
      +6  BANK17  BANK18  BANK19  BANK20  BANK21
  2976 ;;      Params:         0       0       0       0       0       0       0       0       0       0       0       0       
      +0       0       0       0       0       0
  2977 ;;      Locals:         0       0       0       0       0       0       0       0       0       0       0       0       
      +0       0       0       0       0       0
  2978 ;;      Temps:          3       0       0       0       0       0       0       0       0       0       0       0       
      +0       0       0       0       0       0
  2979 ;;      Totals:         3       0       0       0       0       0       0       0       0       0       0       0       
      +0       0       0       0       0       0
  2980 ;;Total ram usage:        3 bytes
  2981 ;; Hardware stack levels used: 1
  2982 ;; Hardware stack levels required when called: 3
  2983 ;; This function calls:
  2984 ;;		Absolute function
  2985 ;;		_TMR1_DefaultInterruptHandler
  2986 ;;		_TMR1_WriteTimer
  2987 ;; This function is called by:
  2988 ;;		Interrupt level 1
  2989 ;; This function uses a non-reentrant model
  2990 ;;
  2991                           
  2992                           	psect	text35
  2993  000454                     __ptext35:
  2994                           	callstack 0
  2995  000454                     _TMR1_ISR:
  2996                           	callstack 121
  2997                           
  2998                           ; BSR set to: 5
  2999                           ;incstack = 0
  3000  000454  0061 F360  F522    	movff	status,??_TMR1_ISR
  3001  00045A  0061 F3E8  F523    	movff	pclath,??_TMR1_ISR+1
  3002  000460  0061 F3EC  F524    	movff	pclatu,??_TMR1_ISR+2
  3003  000466                     
  3004                           ;mcc_generated_files/tmr1.c: 172:     PIR3bits.TMR1IF = 0;
  3005  000466  98B6               	bcf	182,4,c	;volatile
  3006  000468                     
  3007                           ;mcc_generated_files/tmr1.c: 173:     TMR1_WriteTimer(timer1ReloadVal);
  3008  000468  C52E  F520         	movff	_timer1ReloadVal,TMR1_WriteTimer@timerVal	;volatile
  3009  00046C  C52F  F521         	movff	_timer1ReloadVal+1,TMR1_WriteTimer@timerVal+1	;volatile
  3010  000470  EC96  F003         	call	_TMR1_WriteTimer	;wreg free
  3011  000474                     
  3012                           ;mcc_generated_files/tmr1.c: 175:     if(TMR1_InterruptHandler)
  3013  000474  502C               	movf	_TMR1_InterruptHandler^(0+1280),w,c
  3014  000476  102D               	iorwf	(_TMR1_InterruptHandler+1)^(0+1280),w,c
  3015  000478  B4D8               	btfsc	status,2,c
  3016  00047A  EF41  F002         	goto	i1u51_21
  3017  00047E  EF43  F002         	goto	i1u51_20
  3018  000482                     i1u51_21:
  3019  000482  EF50  F002         	goto	i1l697
  3020  000486                     i1u51_20:
  3021  000486                     
  3022                           ;mcc_generated_files/tmr1.c: 176:     {;mcc_generated_files/tmr1.c: 177:         TMR1_In
      +                          terruptHandler();
  3023  000486  D802               	call	i1u52_28
  3024  000488  EF50  F002         	goto	i1u52_29
  3025  00048C                     i1u52_28:
  3026  00048C  0005               	push	
  3027  00048E  6EFA               	movwf	pclath,c
  3028  000490  502C               	movf	_TMR1_InterruptHandler^(0+1280),w,c
  3029  000492  6EFD               	movwf	tosl,c
  3030  000494  502D               	movf	(_TMR1_InterruptHandler+1)^(0+1280),w,c
  3031  000496  6EFE               	movwf	tosh,c
  3032  000498  50F8               	movf	tblptru,w,c
  3033  00049A  6EFF               	movwf	tosu,c
  3034  00049C  50FA               	movf	pclath,w,c
  3035  00049E  0012               	return		;indir
  3036  0004A0                     i1u52_29:
  3037  0004A0                     i1l697:
  3038  0004A0  0061  F490  F4FB   	movff	??_TMR1_ISR+2,pclatu
  3039  0004A6  0061  F48C  F4FA   	movff	??_TMR1_ISR+1,pclath
  3040  0004AC  0061  F488  F4D8   	movff	??_TMR1_ISR,status
  3041  0004B2  0011               	retfie		f
  3042  0004B4                     __end_of_TMR1_ISR:
  3043                           	callstack 0
  3044                           
  3045 ;; *************** function _TMR1_WriteTimer *****************
  3046 ;; Defined at:
  3047 ;;		line 132 in file "mcc_generated_files/tmr1.c"
  3048 ;; Parameters:    Size  Location     Type
  3049 ;;  timerVal        2    7[COMRAM] unsigned short 
  3050 ;; Auto vars:     Size  Location     Type
  3051 ;;		None
  3052 ;; Return value:  Size  Location     Type
  3053 ;;                  1    wreg      void 
  3054 ;; Registers used:
  3055 ;;		wreg, status,2
  3056 ;; Tracked objects:
  3057 ;;		On entry : 0/0
  3058 ;;		On exit  : 0/0
  3059 ;;		Unchanged: 0/0
  3060 ;; Data sizes:     COMRAM   BANK5   BANK6   BANK7   BANK8   BANK9  BANK10  BANK11  BANK12  BANK13  BANK14  BANK15  BANK1
      +6  BANK17  BANK18  BANK19  BANK20  BANK21
  3061 ;;      Params:         2       0       0       0       0       0       0       0       0       0       0       0       
      +0       0       0       0       0       0
  3062 ;;      Locals:         0       0       0       0       0       0       0       0       0       0       0       0       
      +0       0       0       0       0       0
  3063 ;;      Temps:          0       0       0       0       0       0       0       0       0       0       0       0       
      +0       0       0       0       0       0
  3064 ;;      Totals:         2       0       0       0       0       0       0       0       0       0       0       0       
      +0       0       0       0       0       0
  3065 ;;Total ram usage:        2 bytes
  3066 ;; Hardware stack levels used: 1
  3067 ;; Hardware stack levels required when called: 2
  3068 ;; This function calls:
  3069 ;;		Nothing
  3070 ;; This function is called by:
  3071 ;;		_TMR1_ISR
  3072 ;;		_TMR1_Reload
  3073 ;; This function uses a non-reentrant model
  3074 ;;
  3075                           
  3076                           	psect	text36
  3077  00072C                     __ptext36:
  3078                           	callstack 0
  3079  00072C                     _TMR1_WriteTimer:
  3080                           	callstack 121
  3081  00072C                     
  3082                           ;mcc_generated_files/tmr1.c: 132: void TMR1_WriteTimer(uint16_t timerVal);mcc_generated_
      +                          files/tmr1.c: 133: {;mcc_generated_files/tmr1.c: 134:     if (T1CONbits.NOT_SYNC == 1)
  3083  00072C  0103               	movlb	3	; () banked
  3084  00072E  A514               	btfss	20,2,b	;volatile
  3085  000730  EF9C  F003         	goto	i1u50_21
  3086  000734  EF9E  F003         	goto	i1u50_20
  3087  000738                     i1u50_21:
  3088  000738  EFA7  F003         	goto	i1l2312
  3089  00073C                     i1u50_20:
  3090  00073C                     
  3091                           ; BSR set to: 3
  3092                           ;mcc_generated_files/tmr1.c: 135:     {;mcc_generated_files/tmr1.c: 137:         T1CONbi
      +                          ts.TMR1ON = 0;
  3093  00073C  9114               	bcf	20,0,b	;volatile
  3094  00073E                     
  3095                           ; BSR set to: 3
  3096                           ;mcc_generated_files/tmr1.c: 140:         TMR1H = (uint8_t)(timerVal >> 8);
  3097  00073E  5021               	movf	(TMR1_WriteTimer@timerVal+1)^(0+1280),w,c
  3098  000740  6F13               	movwf	19,b	;volatile
  3099  000742                     
  3100                           ; BSR set to: 3
  3101                           ;mcc_generated_files/tmr1.c: 141:         TMR1L = (uint8_t)timerVal;
  3102  000742  0061  F480  F312   	movff	TMR1_WriteTimer@timerVal,786	;volatile
  3103  000748                     
  3104                           ; BSR set to: 3
  3105                           ;mcc_generated_files/tmr1.c: 144:         T1CONbits.TMR1ON =1;
  3106  000748  8114               	bsf	20,0,b	;volatile
  3107                           
  3108                           ;mcc_generated_files/tmr1.c: 145:     }
  3109  00074A  EFAC  F003         	goto	i1l682
  3110  00074E                     i1l2312:
  3111                           
  3112                           ; BSR set to: 3
  3113                           ;mcc_generated_files/tmr1.c: 147:     {;mcc_generated_files/tmr1.c: 149:         TMR1H =
      +                           (uint8_t)(timerVal >> 8);
  3114  00074E  5021               	movf	(TMR1_WriteTimer@timerVal+1)^(0+1280),w,c
  3115  000750  6F13               	movwf	19,b	;volatile
  3116  000752                     
  3117                           ; BSR set to: 3
  3118                           ;mcc_generated_files/tmr1.c: 150:         TMR1L = (uint8_t)timerVal;
  3119  000752  0061  F480  F312   	movff	TMR1_WriteTimer@timerVal,786	;volatile
  3120  000758                     i1l682:
  3121                           
  3122                           ; BSR set to: 3
  3123  000758  0012               	return		;funcret
  3124  00075A                     __end_of_TMR1_WriteTimer:
  3125                           	callstack 0
  3126                           
  3127 ;; *************** function _TMR1_DefaultInterruptHandler *****************
  3128 ;; Defined at:
  3129 ;;		line 186 in file "mcc_generated_files/tmr1.c"
  3130 ;; Parameters:    Size  Location     Type
  3131 ;;		None
  3132 ;; Auto vars:     Size  Location     Type
  3133 ;;		None
  3134 ;; Return value:  Size  Location     Type
  3135 ;;                  1    wreg      void 
  3136 ;; Registers used:
  3137 ;;		wreg, status,2, status,0
  3138 ;; Tracked objects:
  3139 ;;		On entry : 0/0
  3140 ;;		On exit  : 0/0
  3141 ;;		Unchanged: 0/0
  3142 ;; Data sizes:     COMRAM   BANK5   BANK6   BANK7   BANK8   BANK9  BANK10  BANK11  BANK12  BANK13  BANK14  BANK15  BANK1
      +6  BANK17  BANK18  BANK19  BANK20  BANK21
  3143 ;;      Params:         0       0       0       0       0       0       0       0       0       0       0       0       
      +0       0       0       0       0       0
  3144 ;;      Locals:         0       0       0       0       0       0       0       0       0       0       0       0       
      +0       0       0       0       0       0
  3145 ;;      Temps:          1       0       0       0       0       0       0       0       0       0       0       0       
      +0       0       0       0       0       0
  3146 ;;      Totals:         1       0       0       0       0       0       0       0       0       0       0       0       
      +0       0       0       0       0       0
  3147 ;;Total ram usage:        1 bytes
  3148 ;; Hardware stack levels used: 1
  3149 ;; Hardware stack levels required when called: 2
  3150 ;; This function calls:
  3151 ;;		Nothing
  3152 ;; This function is called by:
  3153 ;;		_TMR1_Initialize
  3154 ;;		_TMR1_ISR
  3155 ;; This function uses a non-reentrant model
  3156 ;;
  3157                           
  3158                           	psect	text37
  3159  000634                     __ptext37:
  3160                           	callstack 0
  3161  000634                     _TMR1_DefaultInterruptHandler:
  3162                           	callstack 121
  3163  000634                     
  3164                           ;mcc_generated_files/tmr1.c: 189:     millis++;
  3165  000634  0E01               	movlw	1
  3166  000636  2601               	addwf	_millis^(0+1280),f,c	;volatile
  3167  000638  0E00               	movlw	0
  3168  00063A  2202               	addwfc	(_millis+1)^(0+1280),f,c	;volatile
  3169  00063C  2203               	addwfc	(_millis+2)^(0+1280),f,c	;volatile
  3170  00063E  2204               	addwfc	(_millis+3)^(0+1280),f,c	;volatile
  3171                           
  3172                           ;mcc_generated_files/tmr1.c: 191:     Ji2c_registers[0x0D] = 1 - PORTAbits.RA4;
  3173  000640  B8CE               	btfsc	206,4,c	;volatile
  3174  000642  EF25  F003         	goto	i1u12_21
  3175  000646  EF29  F003         	goto	i1u12_20
  3176  00064A                     i1u12_21:
  3177  00064A  6A20               	clrf	??_TMR1_DefaultInterruptHandler^(0+1280),c
  3178  00064C  2A20               	incf	??_TMR1_DefaultInterruptHandler^(0+1280),f,c
  3179  00064E  EF2A  F003         	goto	i1u12_28
  3180  000652                     i1u12_20:
  3181  000652  6A20               	clrf	??_TMR1_DefaultInterruptHandler^(0+1280),c
  3182  000654                     i1u12_28:
  3183  000654  5020               	movf	??_TMR1_DefaultInterruptHandler^(0+1280),w,c
  3184  000656  0801               	sublw	1
  3185  000658  0105               	movlb	5	; () banked
  3186  00065A  6F6D               	movwf	(_Ji2c_registers+13)& (0+255),b	;volatile
  3187                           
  3188                           ;mcc_generated_files/tmr1.c: 192:     Ji2c_registers[0x0E] = 1 - PORTAbits.RA5;
  3189  00065C  BACE               	btfsc	206,5,c	;volatile
  3190  00065E  EF33  F003         	goto	i1u13_21
  3191  000662  EF37  F003         	goto	i1u13_20
  3192  000666                     i1u13_21:
  3193  000666  6A20               	clrf	??_TMR1_DefaultInterruptHandler^(0+1280),c
  3194  000668  2A20               	incf	??_TMR1_DefaultInterruptHandler^(0+1280),f,c
  3195  00066A  EF38  F003         	goto	i1u13_28
  3196  00066E                     i1u13_20:
  3197  00066E  6A20               	clrf	??_TMR1_DefaultInterruptHandler^(0+1280),c
  3198  000670                     i1u13_28:
  3199  000670  5020               	movf	??_TMR1_DefaultInterruptHandler^(0+1280),w,c
  3200  000672  0801               	sublw	1
  3201  000674  0105               	movlb	5	; () banked
  3202  000676  6F6E               	movwf	(_Ji2c_registers+14)& (0+255),b	;volatile
  3203  000678                     
  3204                           ; BSR set to: 5
  3205  000678  0012               	return		;funcret
  3206  00067A                     __end_of_TMR1_DefaultInterruptHandler:
  3207                           	callstack 0
  3208                           
  3209 ;; *************** function _I2C1_ISR *****************
  3210 ;; Defined at:
  3211 ;;		line 431 in file "mcc_generated_files/i2c1_slave.c"
  3212 ;; Parameters:    Size  Location     Type
  3213 ;;		None
  3214 ;; Auto vars:     Size  Location     Type
  3215 ;;		None
  3216 ;; Return value:  Size  Location     Type
  3217 ;;                  1    wreg      void 
  3218 ;; Registers used:
  3219 ;;		wreg, fsr2l, fsr2h, status,2, status,0
  3220 ;; Tracked objects:
  3221 ;;		On entry : 0/0
  3222 ;;		On exit  : 0/0
  3223 ;;		Unchanged: 0/0
  3224 ;; Data sizes:     COMRAM   BANK5   BANK6   BANK7   BANK8   BANK9  BANK10  BANK11  BANK12  BANK13  BANK14  BANK15  BANK1
      +6  BANK17  BANK18  BANK19  BANK20  BANK21
  3225 ;;      Params:         0       0       0       0       0       0       0       0       0       0       0       0       
      +0       0       0       0       0       0
  3226 ;;      Locals:         0       0       0       0       0       0       0       0       0       0       0       0       
      +0       0       0       0       0       0
  3227 ;;      Temps:          0       0       0       0       0       0       0       0       0       0       0       0       
      +0       0       0       0       0       0
  3228 ;;      Totals:         0       0       0       0       0       0       0       0       0       0       0       0       
      +0       0       0       0       0       0
  3229 ;;Total ram usage:        0 bytes
  3230 ;; Hardware stack levels used: 1
  3231 ;; This function calls:
  3232 ;;		Nothing
  3233 ;; This function is called by:
  3234 ;;		Interrupt level 2
  3235 ;; This function uses a non-reentrant model
  3236 ;;
  3237                           
  3238                           	psect	text38
  3239  0000C0                     __ptext38:
  3240                           	callstack 0
  3241  0000C0                     _I2C1_ISR:
  3242                           	callstack 122
  3243  0000C0                     
  3244                           ;mcc_generated_files/i2c1_slave.c: 433:     I2C1CON0bits.CSTR = 0;
  3245  0000C0  0102               	movlb	2	; () banked
  3246  0000C2  9994               	bcf	148,4,b	;volatile
  3247                           
  3248                           ;mcc_generated_files/i2c1_slave.c: 435:     if (I2C1PIRbits.PCIF)
  3249  0000C4  A59A               	btfss	154,2,b	;volatile
  3250  0000C6  EF67  F000         	goto	i2u33_41
  3251  0000CA  EF69  F000         	goto	i2u33_40
  3252  0000CE                     i2u33_41:
  3253  0000CE  EF71  F000         	goto	i2l526
  3254  0000D2                     i2u33_40:
  3255  0000D2                     
  3256                           ; BSR set to: 2
  3257                           ;mcc_generated_files/i2c1_slave.c: 436:     {;mcc_generated_files/i2c1_slave.c: 437:    
      +                               I2C1STAT1bits.CLRBF = 1;
  3258  0000D2  8599               	bsf	153,2,b	;volatile
  3259                           
  3260                           ;mcc_generated_files/i2c1_slave.c: 438:         I2C1CNTL = 0xFF;
  3261  0000D4  698C               	setf	140,b	;volatile
  3262  0000D6                     
  3263                           ; BSR set to: 2
  3264                           ;mcc_generated_files/i2c1_slave.c: 439:         I2C1CNTH = 0x00;
  3265  0000D6  0E00               	movlw	0
  3266  0000D8  6F8D               	movwf	141,b	;volatile
  3267                           
  3268                           ;mcc_generated_files/i2c1_slave.c: 441:         Ji2c_state = 0;
  3269  0000DA  0E00               	movlw	0
  3270  0000DC  6E12               	movwf	_Ji2c_state^(0+1280),c	;volatile
  3271                           
  3272                           ;mcc_generated_files/i2c1_slave.c: 442:     }
  3273  0000DE  EFC3  F000         	goto	i2l2018
  3274  0000E2                     i2l526:
  3275                           
  3276                           ; BSR set to: 2
  3277                           ;mcc_generated_files/i2c1_slave.c: 444:     {;mcc_generated_files/i2c1_slave.c: 445:    
      +                               if (!(I2C1STAT0bits.D))
  3278  0000E2  B798               	btfsc	152,3,b	;volatile
  3279  0000E4  EF76  F000         	goto	i2u34_41
  3280  0000E8  EF78  F000         	goto	i2u34_40
  3281  0000EC                     i2u34_41:
  3282  0000EC  EF91  F000         	goto	i2l528
  3283  0000F0                     i2u34_40:
  3284  0000F0                     
  3285                           ; BSR set to: 2
  3286                           ;mcc_generated_files/i2c1_slave.c: 446:         {;mcc_generated_files/i2c1_slave.c: 447:
      +                                       I2C1STAT1bits.CLRBF = 1;
  3287  0000F0  8599               	bsf	153,2,b	;volatile
  3288                           
  3289                           ;mcc_generated_files/i2c1_slave.c: 448:             if (I2C1STAT0bits.R && I2C1STAT1bits
      +                          .TXBE)
  3290  0000F2  A998               	btfss	152,4,b	;volatile
  3291  0000F4  EF7E  F000         	goto	i2u35_41
  3292  0000F8  EF80  F000         	goto	i2u35_40
  3293  0000FC                     i2u35_41:
  3294  0000FC  EFC3  F000         	goto	i2l2018
  3295  000100                     i2u35_40:
  3296  000100                     
  3297                           ; BSR set to: 2
  3298  000100  AB99               	btfss	153,5,b	;volatile
  3299  000102  EF85  F000         	goto	i2u36_41
  3300  000106  EF87  F000         	goto	i2u36_40
  3301  00010A                     i2u36_41:
  3302  00010A  EFC3  F000         	goto	i2l2018
  3303  00010E                     i2u36_40:
  3304  00010E                     i2l2002:
  3305                           
  3306                           ; BSR set to: 2
  3307                           ;mcc_generated_files/i2c1_slave.c: 449:                 I2C1TXB = Ji2c_registers[Jaccess
      +                          _reg];
  3308  00010E  0E60               	movlw	low _Ji2c_registers
  3309  000110  2411               	addwf	_Jaccess_reg^(0+1280),w,c	;volatile
  3310  000112  6ED9               	movwf	fsr2l,c
  3311  000114  6ADA               	clrf	fsr2h,c
  3312  000116  0E05               	movlw	high _Ji2c_registers
  3313  000118  22DA               	addwfc	fsr2h,f,c
  3314  00011A  50DF               	movf	indf2,w,c
  3315  00011C  6F8B               	movwf	139,b	;volatile
  3316  00011E  EFC3  F000         	goto	i2l2018
  3317  000122                     i2l528:
  3318                           
  3319                           ; BSR set to: 2
  3320                           ;mcc_generated_files/i2c1_slave.c: 452:         {;mcc_generated_files/i2c1_slave.c: 453:
      +                                       if (I2C1STAT0bits.R && I2C1STAT1bits.TXBE)
  3321  000122  A998               	btfss	152,4,b	;volatile
  3322  000124  EF96  F000         	goto	i2u37_41
  3323  000128  EF98  F000         	goto	i2u37_40
  3324  00012C                     i2u37_41:
  3325  00012C  EFA1  F000         	goto	i2l531
  3326  000130                     i2u37_40:
  3327  000130                     
  3328                           ; BSR set to: 2
  3329  000130  AB99               	btfss	153,5,b	;volatile
  3330  000132  EF9D  F000         	goto	i2u38_41
  3331  000136  EF9F  F000         	goto	i2u38_40
  3332  00013A                     i2u38_41:
  3333  00013A  EFA1  F000         	goto	i2l531
  3334  00013E                     i2u38_40:
  3335  00013E  EF87  F000         	goto	i2l2002
  3336  000142                     i2l531:
  3337                           
  3338                           ; BSR set to: 2
  3339                           ;mcc_generated_files/i2c1_slave.c: 456:             {;mcc_generated_files/i2c1_slave.c: 
      +                          457:                 if (I2C1STAT1bits.RXBF)
  3340  000142  A199               	btfss	153,0,b	;volatile
  3341  000144  EFA6  F000         	goto	i2u39_41
  3342  000148  EFA8  F000         	goto	i2u39_40
  3343  00014C                     i2u39_41:
  3344  00014C  EFC3  F000         	goto	i2l530
  3345  000150                     i2u39_40:
  3346  000150                     
  3347                           ; BSR set to: 2
  3348                           ;mcc_generated_files/i2c1_slave.c: 458:                 {;mcc_generated_files/i2c1_slave
      +                          .c: 459:                     i2c1RdData = I2C1RXB;
  3349  000150  0060 FA28  F515    	movff	650,_i2c1RdData	;volatile
  3350  000156                     
  3351                           ; BSR set to: 2
  3352                           ;mcc_generated_files/i2c1_slave.c: 462:                     if (Ji2c_state == 0)
  3353  000156  5012               	movf	_Ji2c_state^(0+1280),w,c	;volatile
  3354  000158  A4D8               	btfss	status,2,c
  3355  00015A  EFB1  F000         	goto	i2u40_41
  3356  00015E  EFB3  F000         	goto	i2u40_40
  3357  000162                     i2u40_41:
  3358  000162  EFB7  F000         	goto	i2l2014
  3359  000166                     i2u40_40:
  3360  000166                     
  3361                           ; BSR set to: 2
  3362                           ;mcc_generated_files/i2c1_slave.c: 463:                         Jaccess_reg = i2c1RdData
      +                          ;
  3363  000166  C515  F511         	movff	_i2c1RdData,_Jaccess_reg	;volatile
  3364  00016A  EFC0  F000         	goto	i2l2016
  3365  00016E                     i2l2014:
  3366                           
  3367                           ; BSR set to: 2
  3368                           ;mcc_generated_files/i2c1_slave.c: 467:                         Ji2c_registers[Jaccess_r
      +                          eg] = i2c1RdData;
  3369  00016E  0E60               	movlw	low _Ji2c_registers
  3370  000170  2411               	addwf	_Jaccess_reg^(0+1280),w,c	;volatile
  3371  000172  6ED9               	movwf	fsr2l,c
  3372  000174  6ADA               	clrf	fsr2h,c
  3373  000176  0E05               	movlw	high _Ji2c_registers
  3374  000178  22DA               	addwfc	fsr2h,f,c
  3375  00017A  0061  F454  F4DF   	movff	_i2c1RdData,indf2	;volatile
  3376  000180                     i2l2016:
  3377                           
  3378                           ; BSR set to: 2
  3379                           ;mcc_generated_files/i2c1_slave.c: 470:                     Ji2c_state++;
  3380  000180  2A12               	incf	_Ji2c_state^(0+1280),f,c	;volatile
  3381  000182  EFC3  F000         	goto	i2l2018
  3382  000186                     i2l530:
  3383  000186                     i2l2018:
  3384                           
  3385                           ; BSR set to: 2
  3386                           ;mcc_generated_files/i2c1_slave.c: 476:     I2C1PIR = 0x00;
  3387  000186  0E00               	movlw	0
  3388  000188  6F9A               	movwf	154,b	;volatile
  3389  00018A                     
  3390                           ; BSR set to: 2
  3391                           ;mcc_generated_files/i2c1_slave.c: 477:     I2C1ERRbits.BTOIF = 0;
  3392  00018A  9D97               	bcf	151,6,b	;volatile
  3393  00018C                     
  3394                           ; BSR set to: 2
  3395                           ;mcc_generated_files/i2c1_slave.c: 478:     I2C1ERRbits.BCL1IF = 0;
  3396  00018C  9B97               	bcf	151,5,b	;volatile
  3397  00018E                     
  3398                           ; BSR set to: 2
  3399                           ;mcc_generated_files/i2c1_slave.c: 479:     I2C1ERRbits.NACKIF = 0;
  3400  00018E  9997               	bcf	151,4,b	;volatile
  3401  000190                     
  3402                           ; BSR set to: 2
  3403                           ;mcc_generated_files/i2c1_slave.c: 482:     Ji2c_registers[0x15] = 0;
  3404  000190  0E00               	movlw	0
  3405  000192  0105               	movlb	5	; () banked
  3406  000194  6F75               	movwf	(_Ji2c_registers+21)& (0+255),b	;volatile
  3407  000196                     
  3408                           ; BSR set to: 5
  3409  000196  0011               	retfie		f
  3410  000198                     __end_of_I2C1_ISR:
  3411                           	callstack 0
  3412                           
  3413 ;; *************** function _Default_ISR *****************
  3414 ;; Defined at:
  3415 ;;		line 82 in file "mcc_generated_files/interrupt_manager.c"
  3416 ;; Parameters:    Size  Location     Type
  3417 ;;		None
  3418 ;; Auto vars:     Size  Location     Type
  3419 ;;		None
  3420 ;; Return value:  Size  Location     Type
  3421 ;;                  1    wreg      void 
  3422 ;; Registers used:
  3423 ;;		None
  3424 ;; Tracked objects:
  3425 ;;		On entry : 0/0
  3426 ;;		On exit  : 0/0
  3427 ;;		Unchanged: 0/0
  3428 ;; Data sizes:     COMRAM   BANK5   BANK6   BANK7   BANK8   BANK9  BANK10  BANK11  BANK12  BANK13  BANK14  BANK15  BANK1
      +6  BANK17  BANK18  BANK19  BANK20  BANK21
  3429 ;;      Params:         0       0       0       0       0       0       0       0       0       0       0       0       
      +0       0       0       0       0       0
  3430 ;;      Locals:         0       0       0       0       0       0       0       0       0       0       0       0       
      +0       0       0       0       0       0
  3431 ;;      Temps:          0       0       0       0       0       0       0       0       0       0       0       0       
      +0       0       0       0       0       0
  3432 ;;      Totals:         0       0       0       0       0       0       0       0       0       0       0       0       
      +0       0       0       0       0       0
  3433 ;;Total ram usage:        0 bytes
  3434 ;; Hardware stack levels used: 1
  3435 ;; This function calls:
  3436 ;;		Nothing
  3437 ;; This function is called by:
  3438 ;;		Interrupt level 2
  3439 ;; This function uses a non-reentrant model
  3440 ;;
  3441                           
  3442                           	psect	text39
  3443  0008C4                     __ptext39:
  3444                           	callstack 0
  3445  0008C4                     _Default_ISR:
  3446                           	callstack 122
  3447  0008C4  0011               	retfie		f
  3448  0008C6                     __end_of_Default_ISR:
  3449                           	callstack 0
  3450                           
  3451 ;; *************** function _ADCC_ISR *****************
  3452 ;; Defined at:
  3453 ;;		line 311 in file "mcc_generated_files/adcc.c"
  3454 ;; Parameters:    Size  Location     Type
  3455 ;;		None
  3456 ;; Auto vars:     Size  Location     Type
  3457 ;;		None
  3458 ;; Return value:  Size  Location     Type
  3459 ;;                  1    wreg      void 
  3460 ;; Registers used:
  3461 ;;		wreg, fsr2l, fsr2h, status,2, status,0, pcl, pclath, pclatu, tosl, cstack
  3462 ;; Tracked objects:
  3463 ;;		On entry : 0/0
  3464 ;;		On exit  : 0/0
  3465 ;;		Unchanged: 0/0
  3466 ;; Data sizes:     COMRAM   BANK5   BANK6   BANK7   BANK8   BANK9  BANK10  BANK11  BANK12  BANK13  BANK14  BANK15  BANK1
      +6  BANK17  BANK18  BANK19  BANK20  BANK21
  3467 ;;      Params:         0       0       0       0       0       0       0       0       0       0       0       0       
      +0       0       0       0       0       0
  3468 ;;      Locals:         0       0       0       0       0       0       0       0       0       0       0       0       
      +0       0       0       0       0       0
  3469 ;;      Temps:          2       0       0       0       0       0       0       0       0       0       0       0       
      +0       0       0       0       0       0
  3470 ;;      Totals:         2       0       0       0       0       0       0       0       0       0       0       0       
      +0       0       0       0       0       0
  3471 ;;Total ram usage:        2 bytes
  3472 ;; Hardware stack levels used: 1
  3473 ;; Hardware stack levels required when called: 1
  3474 ;; This function calls:
  3475 ;;		Absolute function
  3476 ;;		_ADCC_DefaultInterruptHandler
  3477 ;; This function is called by:
  3478 ;;		Interrupt level 2
  3479 ;; This function uses a non-reentrant model
  3480 ;;
  3481                           
  3482                           	psect	text40
  3483  0005A4                     __ptext40:
  3484                           	callstack 0
  3485  0005A4                     _ADCC_ISR:
  3486                           	callstack 121
  3487                           
  3488                           ;incstack = 0
  3489  0005A4  0061 F3E8  F51B    	movff	pclath,??_ADCC_ISR
  3490  0005AA  0061 F3EC  F51C    	movff	pclatu,??_ADCC_ISR+1
  3491  0005B0                     
  3492                           ;mcc_generated_files/adcc.c: 314:     PIR1bits.ADIF = 0;
  3493  0005B0  94B4               	bcf	180,2,c	;volatile
  3494  0005B2                     
  3495                           ;mcc_generated_files/adcc.c: 316:     if (ADCC_ADI_InterruptHandler)
  3496  0005B2  502A               	movf	_ADCC_ADI_InterruptHandler^(0+1280),w,c
  3497  0005B4  102B               	iorwf	(_ADCC_ADI_InterruptHandler+1)^(0+1280),w,c
  3498  0005B6  B4D8               	btfsc	status,2,c
  3499  0005B8  EFE0  F002         	goto	i2u48_41
  3500  0005BC  EFE2  F002         	goto	i2u48_40
  3501  0005C0                     i2u48_41:
  3502  0005C0  EFEF  F002         	goto	i2l930
  3503  0005C4                     i2u48_40:
  3504  0005C4                     
  3505                           ;mcc_generated_files/adcc.c: 317:             ADCC_ADI_InterruptHandler();
  3506  0005C4  D802               	call	i2u49_48
  3507  0005C6  EFEF  F002         	goto	i2u49_49
  3508  0005CA                     i2u49_48:
  3509  0005CA  0005               	push	
  3510  0005CC  6EFA               	movwf	pclath,c
  3511  0005CE  502A               	movf	_ADCC_ADI_InterruptHandler^(0+1280),w,c
  3512  0005D0  6EFD               	movwf	tosl,c
  3513  0005D2  502B               	movf	(_ADCC_ADI_InterruptHandler+1)^(0+1280),w,c
  3514  0005D4  6EFE               	movwf	tosh,c
  3515  0005D6  50F8               	movf	tblptru,w,c
  3516  0005D8  6EFF               	movwf	tosu,c
  3517  0005DA  50FA               	movf	pclath,w,c
  3518  0005DC  0012               	return		;indir
  3519  0005DE                     i2u49_49:
  3520  0005DE                     i2l930:
  3521  0005DE  0061  F470  F4FB   	movff	??_ADCC_ISR+1,pclatu
  3522  0005E4  0061  F46C  F4FA   	movff	??_ADCC_ISR,pclath
  3523  0005EA  0011               	retfie		f
  3524  0005EC                     __end_of_ADCC_ISR:
  3525                           	callstack 0
  3526                           
  3527 ;; *************** function _ADCC_DefaultInterruptHandler *****************
  3528 ;; Defined at:
  3529 ;;		line 324 in file "mcc_generated_files/adcc.c"
  3530 ;; Parameters:    Size  Location     Type
  3531 ;;		None
  3532 ;; Auto vars:     Size  Location     Type
  3533 ;;		None
  3534 ;; Return value:  Size  Location     Type
  3535 ;;                  1    wreg      void 
  3536 ;; Registers used:
  3537 ;;		wreg, fsr2l, fsr2h, status,2, status,0
  3538 ;; Tracked objects:
  3539 ;;		On entry : 0/0
  3540 ;;		On exit  : 0/0
  3541 ;;		Unchanged: 0/0
  3542 ;; Data sizes:     COMRAM   BANK5   BANK6   BANK7   BANK8   BANK9  BANK10  BANK11  BANK12  BANK13  BANK14  BANK15  BANK1
      +6  BANK17  BANK18  BANK19  BANK20  BANK21
  3543 ;;      Params:         0       0       0       0       0       0       0       0       0       0       0       0       
      +0       0       0       0       0       0
  3544 ;;      Locals:         0       0       0       0       0       0       0       0       0       0       0       0       
      +0       0       0       0       0       0
  3545 ;;      Temps:          2       0       0       0       0       0       0       0       0       0       0       0       
      +0       0       0       0       0       0
  3546 ;;      Totals:         2       0       0       0       0       0       0       0       0       0       0       0       
      +0       0       0       0       0       0
  3547 ;;Total ram usage:        2 bytes
  3548 ;; Hardware stack levels used: 1
  3549 ;; This function calls:
  3550 ;;		Nothing
  3551 ;; This function is called by:
  3552 ;;		_ADCC_Initialize
  3553 ;;		_ADCC_ISR
  3554 ;; This function uses a non-reentrant model
  3555 ;;
  3556                           
  3557                           	psect	text41
  3558  0005EC                     __ptext41:
  3559                           	callstack 0
  3560  0005EC                     _ADCC_DefaultInterruptHandler:
  3561                           	callstack 121
  3562  0005EC                     
  3563                           ;mcc_generated_files/adcc.c: 333:     Ji2c_registers[0x10 + (ADPCHSelector << 1)] = ADRE
      +                          SL;
  3564  0005EC  5018               	movf	_ADPCHSelector^(0+1280),w,c	;volatile
  3565  0005EE  6E19               	movwf	??_ADCC_DefaultInterruptHandler^(0+1280),c
  3566  0005F0  6A1A               	clrf	(??_ADCC_DefaultInterruptHandler+1)^(0+1280),c
  3567  0005F2  90D8               	bcf	status,0,c
  3568  0005F4  3619               	rlcf	??_ADCC_DefaultInterruptHandler^(0+1280),f,c
  3569  0005F6  361A               	rlcf	(??_ADCC_DefaultInterruptHandler+1)^(0+1280),f,c
  3570  0005F8  0E70               	movlw	low (_Ji2c_registers+16)
  3571  0005FA  2419               	addwf	??_ADCC_DefaultInterruptHandler^(0+1280),w,c
  3572  0005FC  6ED9               	movwf	fsr2l,c
  3573  0005FE  0E05               	movlw	high (_Ji2c_registers+16)
  3574  000600  201A               	addwfc	(??_ADCC_DefaultInterruptHandler+1)^(0+1280),w,c
  3575  000602  6EDA               	movwf	fsr2h,c
  3576  000604  C3EA F4DF          	movff	1002,indf2	;volatile
  3577                           
  3578                           ;mcc_generated_files/adcc.c: 334:     Ji2c_registers[0x11 + (ADPCHSelector << 1)] = ADRE
      +                          SH;
  3579  000608  5018               	movf	_ADPCHSelector^(0+1280),w,c	;volatile
  3580  00060A  6E19               	movwf	??_ADCC_DefaultInterruptHandler^(0+1280),c
  3581  00060C  6A1A               	clrf	(??_ADCC_DefaultInterruptHandler+1)^(0+1280),c
  3582  00060E  90D8               	bcf	status,0,c
  3583  000610  3619               	rlcf	??_ADCC_DefaultInterruptHandler^(0+1280),f,c
  3584  000612  361A               	rlcf	(??_ADCC_DefaultInterruptHandler+1)^(0+1280),f,c
  3585  000614  0E71               	movlw	low (_Ji2c_registers+17)
  3586  000616  2419               	addwf	??_ADCC_DefaultInterruptHandler^(0+1280),w,c
  3587  000618  6ED9               	movwf	fsr2l,c
  3588  00061A  0E05               	movlw	high (_Ji2c_registers+17)
  3589  00061C  201A               	addwfc	(??_ADCC_DefaultInterruptHandler+1)^(0+1280),w,c
  3590  00061E  6EDA               	movwf	fsr2h,c
  3591  000620  C3EB F4DF          	movff	1003,indf2	;volatile
  3592  000624                     
  3593                           ;mcc_generated_files/adcc.c: 337:     ADPCH = 0b010100 | (ADPCHSelector = 1 - ADPCHSelec
      +                          tor);
  3594  000624  5018               	movf	_ADPCHSelector^(0+1280),w,c	;volatile
  3595  000626  0801               	sublw	1
  3596  000628  6E18               	movwf	_ADPCHSelector^(0+1280),c	;volatile
  3597  00062A  5018               	movf	_ADPCHSelector^(0+1280),w,c	;volatile
  3598  00062C  0914               	iorlw	20
  3599  00062E  0103               	movlb	3	; () banked
  3600  000630  6FEC               	movwf	236,b	;volatile
  3601  000632                     
  3602                           ; BSR set to: 3
  3603  000632  0012               	return		;funcret
  3604  000634                     __end_of_ADCC_DefaultInterruptHandler:
  3605                           	callstack 0
  3606                           
  3607                           ;
  3608                           ; Interrupt Vector Table @ 0x8
  3609                           ;
  3610                           
  3611                           	psect	ivt0x8
  3612  000008                     __pivt0x8:
  3613                           	callstack 0
  3614  000008                     ivt0x8_base:
  3615                           	callstack 0
  3616                           
  3617                           ; Vector 0 : SWINT
  3618  000008  0231               	dw	_Default_ISR shr (0+2)
  3619                           
  3620                           ; Vector 1 : HLVD
  3621  00000A  0231               	dw	_Default_ISR shr (0+2)
  3622                           
  3623                           ; Vector 2 : OSF
  3624  00000C  0231               	dw	_Default_ISR shr (0+2)
  3625                           
  3626                           ; Vector 3 : CSW
  3627  00000E  0231               	dw	_Default_ISR shr (0+2)
  3628                           
  3629                           ; Vector 4 : NVMIP
  3630  000010  0231               	dw	_Default_ISR shr (0+2)
  3631                           
  3632                           ; Vector 5 : CLC1
  3633  000012  0231               	dw	_Default_ISR shr (0+2)
  3634                           
  3635                           ; Vector 6 : CRC
  3636  000014  0231               	dw	_Default_ISR shr (0+2)
  3637                           
  3638                           ; Vector 7 : IOC
  3639  000016  0231               	dw	_Default_ISR shr (0+2)
  3640                           
  3641                           ; Vector 8 : INT0
  3642  000018  0231               	dw	_Default_ISR shr (0+2)
  3643                           
  3644                           ; Vector 9 : ZCD
  3645  00001A  0231               	dw	_Default_ISR shr (0+2)
  3646                           
  3647                           ; Vector 10 : AD
  3648  00001C  0169               	dw	_ADCC_ISR shr (0+2)
  3649                           
  3650                           ; Vector 11 : ACT
  3651  00001E  0231               	dw	_Default_ISR shr (0+2)
  3652                           
  3653                           ; Vector 12 : CMP1
  3654  000020  0231               	dw	_Default_ISR shr (0+2)
  3655                           
  3656                           ; Vector 13 : SMT1
  3657  000022  0231               	dw	_Default_ISR shr (0+2)
  3658                           
  3659                           ; Vector 14 : SMT1PRA
  3660  000024  0231               	dw	_Default_ISR shr (0+2)
  3661                           
  3662                           ; Vector 15 : SMT1PWA
  3663  000026  0231               	dw	_Default_ISR shr (0+2)
  3664                           
  3665                           ; Vector 16 : ADT
  3666  000028  0231               	dw	_Default_ISR shr (0+2)
  3667                           
  3668                           ; Vector 17 : Undefined
  3669  00002A  002E               	dw	ivt0x8_undefint shr (0+2)
  3670                           
  3671                           ; Vector 18 : Undefined
  3672  00002C  002E               	dw	ivt0x8_undefint shr (0+2)
  3673                           
  3674                           ; Vector 19 : Undefined
  3675  00002E  002E               	dw	ivt0x8_undefint shr (0+2)
  3676                           
  3677                           ; Vector 20 : DMA1SCNT
  3678  000030  0231               	dw	_Default_ISR shr (0+2)
  3679                           
  3680                           ; Vector 21 : DMA1DCNT
  3681  000032  0231               	dw	_Default_ISR shr (0+2)
  3682                           
  3683                           ; Vector 22 : DMA1OR
  3684  000034  0231               	dw	_Default_ISR shr (0+2)
  3685                           
  3686                           ; Vector 23 : DMA1A
  3687  000036  0231               	dw	_Default_ISR shr (0+2)
  3688                           
  3689                           ; Vector 24 : SPI1RX
  3690  000038  0231               	dw	_Default_ISR shr (0+2)
  3691                           
  3692                           ; Vector 25 : SPI1TX
  3693  00003A  0231               	dw	_Default_ISR shr (0+2)
  3694                           
  3695                           ; Vector 26 : SPI1
  3696  00003C  0231               	dw	_Default_ISR shr (0+2)
  3697                           
  3698                           ; Vector 27 : TMR2
  3699  00003E  0231               	dw	_Default_ISR shr (0+2)
  3700                           
  3701                           ; Vector 28 : TMR1
  3702  000040  0115               	dw	_TMR1_ISR shr (0+2)
  3703                           
  3704                           ; Vector 29 : TMR1G
  3705  000042  0231               	dw	_Default_ISR shr (0+2)
  3706                           
  3707                           ; Vector 30 : CCP1
  3708  000044  0231               	dw	_Default_ISR shr (0+2)
  3709                           
  3710                           ; Vector 31 : TMR0
  3711  000046  00FD               	dw	_TMR0_ISR shr (0+2)
  3712                           
  3713                           ; Vector 32 : U1RX
  3714  000048  0231               	dw	_Default_ISR shr (0+2)
  3715                           
  3716                           ; Vector 33 : U1TX
  3717  00004A  0231               	dw	_Default_ISR shr (0+2)
  3718                           
  3719                           ; Vector 34 : U1E
  3720  00004C  0231               	dw	_Default_ISR shr (0+2)
  3721                           
  3722                           ; Vector 35 : U1
  3723  00004E  0231               	dw	_Default_ISR shr (0+2)
  3724                           
  3725                           ; Vector 36 : TMR3
  3726  000050  0231               	dw	_Default_ISR shr (0+2)
  3727                           
  3728                           ; Vector 37 : TMR3G
  3729  000052  0231               	dw	_Default_ISR shr (0+2)
  3730                           
  3731                           ; Vector 38 : PWM1PR
  3732  000054  0231               	dw	_Default_ISR shr (0+2)
  3733                           
  3734                           ; Vector 39 : PWM1
  3735  000056  0231               	dw	_Default_ISR shr (0+2)
  3736                           
  3737                           ; Vector 40 : SPI2RX
  3738  000058  0231               	dw	_Default_ISR shr (0+2)
  3739                           
  3740                           ; Vector 41 : SPI2TX
  3741  00005A  0231               	dw	_Default_ISR shr (0+2)
  3742                           
  3743                           ; Vector 42 : SPI2
  3744  00005C  0231               	dw	_Default_ISR shr (0+2)
  3745                           
  3746                           ; Vector 43 : Undefined
  3747  00005E  002E               	dw	ivt0x8_undefint shr (0+2)
  3748                           
  3749                           ; Vector 44 : CMP2
  3750  000060  0231               	dw	_Default_ISR shr (0+2)
  3751                           
  3752                           ; Vector 45 : CLC2
  3753  000062  0231               	dw	_Default_ISR shr (0+2)
  3754                           
  3755                           ; Vector 46 : PWM2PR
  3756  000064  0231               	dw	_Default_ISR shr (0+2)
  3757                           
  3758                           ; Vector 47 : PWM2
  3759  000066  0231               	dw	_Default_ISR shr (0+2)
  3760                           
  3761                           ; Vector 48 : INT1
  3762  000068  0231               	dw	_Default_ISR shr (0+2)
  3763                           
  3764                           ; Vector 49 : CWG1
  3765  00006A  0231               	dw	_Default_ISR shr (0+2)
  3766                           
  3767                           ; Vector 50 : NCO1
  3768  00006C  0231               	dw	_Default_ISR shr (0+2)
  3769                           
  3770                           ; Vector 51 : DMA2SCNT
  3771  00006E  0231               	dw	_Default_ISR shr (0+2)
  3772                           
  3773                           ; Vector 52 : DMA2DCNT
  3774  000070  0231               	dw	_Default_ISR shr (0+2)
  3775                           
  3776                           ; Vector 53 : DMA2OR
  3777  000072  0231               	dw	_Default_ISR shr (0+2)
  3778                           
  3779                           ; Vector 54 : DMA2A
  3780  000074  0231               	dw	_Default_ISR shr (0+2)
  3781                           
  3782                           ; Vector 55 : Undefined
  3783  000076  002E               	dw	ivt0x8_undefint shr (0+2)
  3784                           
  3785                           ; Vector 56 : I2C1RX
  3786  000078  0030               	dw	_I2C1_ISR shr (0+2)
  3787                           
  3788                           ; Vector 57 : I2C1TX
  3789  00007A  0030               	dw	_I2C1_ISR shr (0+2)
  3790                           
  3791                           ; Vector 58 : I2C1
  3792  00007C  0030               	dw	_I2C1_ISR shr (0+2)
  3793                           
  3794                           ; Vector 59 : I2C1E
  3795  00007E  0030               	dw	_I2C1_ISR shr (0+2)
  3796                           
  3797                           ; Vector 60 : Undefined
  3798  000080  002E               	dw	ivt0x8_undefint shr (0+2)
  3799                           
  3800                           ; Vector 61 : CLC3
  3801  000082  0231               	dw	_Default_ISR shr (0+2)
  3802                           
  3803                           ; Vector 62 : PWM3PR
  3804  000084  0231               	dw	_Default_ISR shr (0+2)
  3805                           
  3806                           ; Vector 63 : PWM3
  3807  000086  0231               	dw	_Default_ISR shr (0+2)
  3808                           
  3809                           ; Vector 64 : U2RX
  3810  000088  0231               	dw	_Default_ISR shr (0+2)
  3811                           
  3812                           ; Vector 65 : U2TX
  3813  00008A  0231               	dw	_Default_ISR shr (0+2)
  3814                           
  3815                           ; Vector 66 : U2E
  3816  00008C  0231               	dw	_Default_ISR shr (0+2)
  3817                           
  3818                           ; Vector 67 : U2
  3819  00008E  0231               	dw	_Default_ISR shr (0+2)
  3820                           
  3821                           ; Vector 68 : Undefined
  3822  000090  002E               	dw	ivt0x8_undefint shr (0+2)
  3823                           
  3824                           ; Vector 69 : CLC4
  3825  000092  0231               	dw	_Default_ISR shr (0+2)
  3826                           
  3827                           ; Vector 70 : Undefined
  3828  000094  002E               	dw	ivt0x8_undefint shr (0+2)
  3829                           
  3830                           ; Vector 71 : SCAN
  3831  000096  0231               	dw	_Default_ISR shr (0+2)
  3832                           
  3833                           ; Vector 72 : U3RX
  3834  000098  0231               	dw	_Default_ISR shr (0+2)
  3835                           
  3836                           ; Vector 73 : U3TX
  3837  00009A  0231               	dw	_Default_ISR shr (0+2)
  3838                           
  3839                           ; Vector 74 : U3E
  3840  00009C  0231               	dw	_Default_ISR shr (0+2)
  3841                           
  3842                           ; Vector 75 : U3
  3843  00009E  0231               	dw	_Default_ISR shr (0+2)
  3844                           
  3845                           ; Vector 76 : DMA3SCNT
  3846  0000A0  0231               	dw	_Default_ISR shr (0+2)
  3847                           
  3848                           ; Vector 77 : DMA3DCNT
  3849  0000A2  0231               	dw	_Default_ISR shr (0+2)
  3850                           
  3851                           ; Vector 78 : DMA3OR
  3852  0000A4  0231               	dw	_Default_ISR shr (0+2)
  3853                           
  3854                           ; Vector 79 : DMA3A
  3855  0000A6  0231               	dw	_Default_ISR shr (0+2)
  3856                           
  3857                           ; Vector 80 : INT2
  3858  0000A8  0231               	dw	_Default_ISR shr (0+2)
  3859                           
  3860                           ; Vector 81 : Undefined
  3861  0000AA  002E               	dw	ivt0x8_undefint shr (0+2)
  3862                           
  3863                           ; Vector 82 : Undefined
  3864  0000AC  002E               	dw	ivt0x8_undefint shr (0+2)
  3865                           
  3866                           ; Vector 83 : TMR4
  3867  0000AE  0231               	dw	_Default_ISR shr (0+2)
  3868                           
  3869                           ; Vector 84 : DMA4SCNT
  3870  0000B0  0231               	dw	_Default_ISR shr (0+2)
  3871                           
  3872                           ; Vector 85 : DMA4DCNT
  3873  0000B2  0231               	dw	_Default_ISR shr (0+2)
  3874                           
  3875                           ; Vector 86 : DMA4OR
  3876  0000B4  0231               	dw	_Default_ISR shr (0+2)
  3877                           
  3878                           ; Vector 87 : DMA4A
  3879  0000B6  0231               	dw	_Default_ISR shr (0+2)
  3880  0000B8                     ivt0x8_undefint:
  3881                           	callstack 0
  3882  0000B8  00FF               	reset	
  3883  0000                     
  3884                           	psect	text42
  3885  000000                     __ptext42:
  3886                           	callstack 0
  3887  000000                     
  3888                           	psect	rparam
  3889  0000                     
  3890                           	psect	idloc
  3891                           
  3892                           ;Config register IDLOC0 @ 0x200000
  3893                           ;	unspecified, using default values
  3894  200000                     	org	2097152
  3895  200000  0FFF               	dw	4095
  3896                           
  3897                           ;Config register IDLOC1 @ 0x200002
  3898                           ;	unspecified, using default values
  3899  200002                     	org	2097154
  3900  200002  0FFF               	dw	4095
  3901                           
  3902                           ;Config register IDLOC2 @ 0x200004
  3903                           ;	unspecified, using default values
  3904  200004                     	org	2097156
  3905  200004  0FFF               	dw	4095
  3906                           
  3907                           ;Config register IDLOC3 @ 0x200006
  3908                           ;	unspecified, using default values
  3909  200006                     	org	2097158
  3910  200006  0FFF               	dw	4095
  3911                           
  3912                           ;Config register IDLOC4 @ 0x200008
  3913                           ;	unspecified, using default values
  3914  200008                     	org	2097160
  3915  200008  0FFF               	dw	4095
  3916                           
  3917                           ;Config register IDLOC5 @ 0x20000A
  3918                           ;	unspecified, using default values
  3919  20000A                     	org	2097162
  3920  20000A  0FFF               	dw	4095
  3921                           
  3922                           ;Config register IDLOC6 @ 0x20000C
  3923                           ;	unspecified, using default values
  3924  20000C                     	org	2097164
  3925  20000C  0FFF               	dw	4095
  3926                           
  3927                           ;Config register IDLOC7 @ 0x20000E
  3928                           ;	unspecified, using default values
  3929  20000E                     	org	2097166
  3930  20000E  0FFF               	dw	4095
  3931                           
  3932                           ;Config register IDLOC8 @ 0x200010
  3933                           ;	unspecified, using default values
  3934  200010                     	org	2097168
  3935  200010  0FFF               	dw	4095
  3936                           
  3937                           ;Config register IDLOC9 @ 0x200012
  3938                           ;	unspecified, using default values
  3939  200012                     	org	2097170
  3940  200012  0FFF               	dw	4095
  3941                           
  3942                           ;Config register IDLOC10 @ 0x200014
  3943                           ;	unspecified, using default values
  3944  200014                     	org	2097172
  3945  200014  0FFF               	dw	4095
  3946                           
  3947                           ;Config register IDLOC11 @ 0x200016
  3948                           ;	unspecified, using default values
  3949  200016                     	org	2097174
  3950  200016  0FFF               	dw	4095
  3951                           
  3952                           ;Config register IDLOC12 @ 0x200018
  3953                           ;	unspecified, using default values
  3954  200018                     	org	2097176
  3955  200018  0FFF               	dw	4095
  3956                           
  3957                           ;Config register IDLOC13 @ 0x20001A
  3958                           ;	unspecified, using default values
  3959  20001A                     	org	2097178
  3960  20001A  0FFF               	dw	4095
  3961                           
  3962                           ;Config register IDLOC14 @ 0x20001C
  3963                           ;	unspecified, using default values
  3964  20001C                     	org	2097180
  3965  20001C  0FFF               	dw	4095
  3966                           
  3967                           ;Config register IDLOC15 @ 0x20001E
  3968                           ;	unspecified, using default values
  3969  20001E                     	org	2097182
  3970  20001E  0FFF               	dw	4095
  3971                           
  3972                           	psect	config
  3973                           
  3974                           ;Config register CONFIG1 @ 0x300000
  3975                           ;	External Oscillator Selection
  3976                           ;	FEXTOSC = OFF, Oscillator not enabled
  3977                           ;	Reset Oscillator Selection
  3978                           ;	RSTOSC = HFINTOSC_64MHZ, HFINTOSC with HFFRQ = 64 MHz and CDIV = 1:1
  3979  300000                     	org	3145728
  3980  300000  8C                 	db	140
  3981                           
  3982                           ;Config register CONFIG2 @ 0x300001
  3983                           ;	Clock out Enable bit
  3984                           ;	CLKOUTEN = OFF, CLKOUT function is disabled
  3985                           ;	PRLOCKED One-Way Set Enable bit
  3986                           ;	PR1WAY = ON, PRLOCKED bit can be cleared and set only once
  3987                           ;	Clock Switch Enable bit
  3988                           ;	CSWEN = ON, Writing to NOSC and NDIV is allowed
  3989                           ;	Fail-Safe Clock Monitor Enable bit
  3990                           ;	FCMEN = ON, Fail-Safe Clock Monitor enabled
  3991                           ;	Fail-Safe Clock Monitor - Primary XTAL Enable bit
  3992                           ;	FCMENP = ON, Fail-Safe Clock Monitor enabled; timer will flag FSCMP bit and OSFIF inte
      +                          rrupt on EXTOSC failure.
  3993                           ;	Fail-Safe Clock Monitor - Secondary XTAL Enable bit
  3994                           ;	FCMENS = ON, Fail-Safe Clock Monitor enabled; timer will flag FSCMP bit and OSFIF inte
      +                          rrupt on SOSC failure.
  3995  300001                     	org	3145729
  3996  300001  FF                 	db	255
  3997                           
  3998                           ;Config register CONFIG3 @ 0x300002
  3999                           ;	MCLR Enable bit
  4000                           ;	MCLRE = EXTMCLR, If LVP = 0, MCLR pin is MCLR; If LVP = 1, RE3 pin function is MCLR
  4001                           ;	Power-up timer selection bits
  4002                           ;	PWRTS = PWRT_OFF, PWRT is disabled
  4003                           ;	Multi-vector enable bit
  4004                           ;	MVECEN = ON, Multi-vector enabled, Vector table used for interrupts
  4005                           ;	IVTLOCK bit One-way set enable bit
  4006                           ;	IVT1WAY = ON, IVTLOCKED bit can be cleared and set only once
  4007                           ;	Low Power BOR Enable bit
  4008                           ;	LPBOREN = OFF, Low-Power BOR disabled
  4009                           ;	Brown-out Reset Enable bits
  4010                           ;	BOREN = SBORDIS, Brown-out Reset enabled , SBOREN bit is ignored
  4011  300002                     	org	3145730
  4012  300002  FF                 	db	255
  4013                           
  4014                           ;Config register CONFIG4 @ 0x300003
  4015                           ;	Brown-out Reset Voltage Selection bits
  4016                           ;	BORV = VBOR_1P9, Brown-out Reset Voltage (VBOR) set to 1.9V
  4017                           ;	ZCD Disable bit
  4018                           ;	ZCD = OFF, ZCD module is disabled. ZCD can be enabled by setting the ZCDSEN bit of ZCD
      +                          CON
  4019                           ;	PPSLOCK bit One-Way Set Enable bit
  4020                           ;	PPS1WAY = ON, PPSLOCKED bit can be cleared and set only once; PPS registers remain loc
      +                          ked after one clear/set cycle
  4021                           ;	Stack Full/Underflow Reset Enable bit
  4022                           ;	STVREN = ON, Stack full/underflow will cause Reset
  4023                           ;	Low Voltage Programming Enable bit
  4024                           ;	LVP = ON, Low voltage programming enabled. MCLR/VPP pin function is MCLR. MCLRE config
      +                          uration bit is ignored
  4025                           ;	Extended Instruction Set Enable bit
  4026                           ;	XINST = OFF, Extended Instruction Set and Indexed Addressing Mode disabled
  4027  300003                     	org	3145731
  4028  300003  FF                 	db	255
  4029                           
  4030                           ;Config register CONFIG5 @ 0x300004
  4031                           ;	WDT Period selection bits
  4032                           ;	WDTCPS = WDTCPS_31, Divider ratio 1:65536; software control of WDTPS
  4033                           ;	WDT operating mode
  4034                           ;	WDTE = OFF, WDT Disabled; SWDTEN is ignored
  4035  300004                     	org	3145732
  4036  300004  9F                 	db	159
  4037                           
  4038                           ;Config register CONFIG6 @ 0x300005
  4039                           ;	WDT Window Select bits
  4040                           ;	WDTCWS = WDTCWS_7, window always open (100%); software control; keyed access not requi
      +                          red
  4041                           ;	WDT input clock selector
  4042                           ;	WDTCCS = SC, Software Control
  4043  300005                     	org	3145733
  4044  300005  FF                 	db	255
  4045                           
  4046                           ;Config register CONFIG7 @ 0x300006
  4047                           ;	Boot Block Size selection bits
  4048                           ;	BBSIZE = BBSIZE_512, Boot Block size is 512 words
  4049                           ;	Boot Block enable bit
  4050                           ;	BBEN = OFF, Boot block disabled
  4051                           ;	Storage Area Flash enable bit
  4052                           ;	SAFEN = OFF, SAF disabled
  4053                           ;	Background Debugger
  4054                           ;	DEBUG = OFF, Background Debugger disabled
  4055  300006                     	org	3145734
  4056  300006  FF                 	db	255
  4057                           
  4058                           ;Config register CONFIG8 @ 0x300007
  4059                           ;	Boot Block Write Protection bit
  4060                           ;	WRTB = OFF, Boot Block not Write protected
  4061                           ;	Configuration Register Write Protection bit
  4062                           ;	WRTC = OFF, Configuration registers not Write protected
  4063                           ;	Data EEPROM Write Protection bit
  4064                           ;	WRTD = OFF, Data EEPROM not Write protected
  4065                           ;	SAF Write protection bit
  4066                           ;	WRTSAF = OFF, SAF not Write Protected
  4067                           ;	Application Block write protection bit
  4068                           ;	WRTAPP = OFF, Application Block not write protected
  4069  300007                     	org	3145735
  4070  300007  FF                 	db	255
  4071                           
  4072                           ;Config register CONFIG9 @ 0x300008
  4073                           ;	PFM and Data EEPROM Code Protection bit
  4074                           ;	CP = OFF, PFM and Data EEPROM code protection disabled
  4075  300008                     	org	3145736
  4076  300008  FF                 	db	255
  4077                           
  4078                           ; Padding undefined space
  4079  300009                     	org	3145737
  4080  300009  FF                 	db	255
  4081                           tosu	equ	0x4FF
  4082                           tosh	equ	0x4FE
  4083                           tosl	equ	0x4FD
  4084                           stkptr	equ	0x4FC
  4085                           pclatu	equ	0x4FB
  4086                           pclath	equ	0x4FA
  4087                           pcl	equ	0x4F9
  4088                           tblptru	equ	0x4F8
  4089                           tblptrh	equ	0x4F7
  4090                           tblptrl	equ	0x4F6
  4091                           tablat	equ	0x4F5
  4092                           prodh	equ	0x4F4
  4093                           prodl	equ	0x4F3
  4094                           indf0	equ	0x4EF
  4095                           postinc0	equ	0x4EE
  4096                           postdec0	equ	0x4ED
  4097                           preinc0	equ	0x4EC
  4098                           plusw0	equ	0x4EB
  4099                           fsr0h	equ	0x4EA
  4100                           fsr0l	equ	0x4E9
  4101                           wreg	equ	0x4E8
  4102                           indf1	equ	0x4E7
  4103                           postinc1	equ	0x4E6
  4104                           postdec1	equ	0x4E5
  4105                           preinc1	equ	0x4E4
  4106                           plusw1	equ	0x4E3
  4107                           fsr1h	equ	0x4E2
  4108                           fsr1l	equ	0x4E1
  4109                           bsr	equ	0x4E0
  4110                           indf2	equ	0x4DF
  4111                           postinc2	equ	0x4DE
  4112                           postdec2	equ	0x4DD
  4113                           preinc2	equ	0x4DC
  4114                           plusw2	equ	0x4DB
  4115                           fsr2h	equ	0x4DA
  4116                           fsr2l	equ	0x4D9
  4117                           status	equ	0x4D8

Data Sizes:
    Strings     0
    Constant    0
    Data        0
    BSS         152
    Persistent  16
    Stack       0

Auto Spaces:
    Space          Size  Autos    Used
    COMRAM           95     17      57
    BANK5           160      0     128
    BANK6           256      0       0
    BANK7           256      0       0
    BANK8           256      0       0
    BANK9           256      0       0
    BANK10          256      0       0
    BANK11          256      0       0
    BANK12          256      0       0
    BANK13          256      0       0
    BANK14          256      0       0
    BANK15          256      0       0
    BANK16          256      0       0
    BANK17          256      0       0
    BANK18          256      0       0
    BANK19          256      0       0
    BANK20          256      0       0
    BANK21          256      0       0

Pointer List with Targets:

    I2C1_InterruptHandler	PTR FTN()void  size(2) Largest target is 1
		 -> Absolute function(), 

    ADCC_SetADIInterruptHandler@InterruptHandler	PTR FTN()void  size(2) Largest target is 1
		 -> ADCC_DefaultInterruptHandler(), 

    ADCC_ADI_InterruptHandler	PTR FTN()void  size(2) Largest target is 1
		 -> ADCC_DefaultInterruptHandler(), Absolute function(), 

    TMR1_SetInterruptHandler@InterruptHandler	PTR FTN()void  size(2) Largest target is 1
		 -> TMR1_DefaultInterruptHandler(), 

    TMR1_InterruptHandler	PTR FTN()void  size(2) Largest target is 1
		 -> TMR1_DefaultInterruptHandler(), Absolute function(), 

    TMR0_SetInterruptHandler@InterruptHandler	PTR FTN()void  size(2) Largest target is 1
		 -> TMR0_DefaultInterruptHandler(), 

    TMR0_InterruptHandler	PTR FTN()void  size(2) Largest target is 1
		 -> TMR0_DefaultInterruptHandler(), Absolute function(), 

    I2C1_SlaveSetBusColIntHandler@handler	PTR FTN()void  size(2) Largest target is 1
		 -> I2C1_SlaveDefBusColInterruptHandler(), 

    I2C1_SlaveBusColInterruptHandler	PTR FTN()void  size(2) Largest target is 1
		 -> Absolute function(), I2C1_SlaveDefBusColInterruptHandler(), 

    I2C1_SlaveSetWrColIntHandler@handler	PTR FTN()void  size(2) Largest target is 1
		 -> I2C1_SlaveDefWrColInterruptHandler(), 

    I2C1_SlaveWrColInterruptHandler	PTR FTN()void  size(2) Largest target is 1
		 -> Absolute function(), I2C1_SlaveDefWrColInterruptHandler(), 

    I2C1_SlaveSetAddrIntHandler@handler	PTR FTN()void  size(2) Largest target is 1
		 -> I2C1_SlaveDefAddrInterruptHandler(), 

    I2C1_SlaveAddrInterruptHandler	PTR FTN()void  size(2) Largest target is 1
		 -> Absolute function(), I2C1_SlaveDefAddrInterruptHandler(), 

    I2C1_SlaveSetWriteIntHandler@handler	PTR FTN()void  size(2) Largest target is 1
		 -> I2C1_SlaveDefWrInterruptHandler(), 

    I2C1_SlaveWrInterruptHandler	PTR FTN()void  size(2) Largest target is 1
		 -> Absolute function(), I2C1_SlaveDefWrInterruptHandler(), 

    I2C1_SlaveSetReadIntHandler@handler	PTR FTN()void  size(2) Largest target is 1
		 -> I2C1_SlaveDefRdInterruptHandler(), 

    I2C1_SlaveRdInterruptHandler	PTR FTN()void  size(2) Largest target is 1
		 -> Absolute function(), I2C1_SlaveDefRdInterruptHandler(), 

    UART1_SetErrorHandler@interruptHandler	PTR FTN()void  size(2) Largest target is 1
		 -> UART1_DefaultErrorHandler(), 

    UART1_SetOverrunErrorHandler@interruptHandler	PTR FTN()void  size(2) Largest target is 1
		 -> UART1_DefaultOverrunErrorHandler(), 

    UART1_SetFramingErrorHandler@interruptHandler	PTR FTN()void  size(2) Largest target is 1
		 -> UART1_DefaultFramingErrorHandler(), 

    UART1_ErrorHandler	PTR FTN()void  size(2) Largest target is 1
		 -> Absolute function(), UART1_DefaultErrorHandler(), 

    UART1_OverrunErrorHandler	PTR FTN()void  size(2) Largest target is 1
		 -> Absolute function(), UART1_DefaultOverrunErrorHandler(), 

    UART1_FramingErrorHandler	PTR FTN()void  size(2) Largest target is 1
		 -> Absolute function(), UART1_DefaultFramingErrorHandler(), 


Critical Paths under _main in COMRAM

    _main->_acquire_sync
    _SYSTEM_Initialize->_TMR0_Initialize
    _SYSTEM_Initialize->_TMR1_Initialize
    _UART1_Initialize->_UART1_SetErrorHandler
    _UART1_Initialize->_UART1_SetFramingErrorHandler
    _UART1_Initialize->_UART1_SetOverrunErrorHandler
    _TMR1_Initialize->_TMR1_SetInterruptHandler
    _TMR0_Initialize->_TMR0_SetInterruptHandler
    _ADCC_Initialize->_ADCC_SetADIInterruptHandler
    _I2C1_Open->_I2C1_SlaveSetAddrIntHandler
    _I2C1_Open->_I2C1_SlaveSetBusColIntHandler
    _I2C1_Open->_I2C1_SlaveSetReadIntHandler
    _I2C1_Open->_I2C1_SlaveSetWrColIntHandler
    _I2C1_Open->_I2C1_SlaveSetWriteIntHandler

Critical Paths under _TMR0_ISR in COMRAM

    None.

Critical Paths under _TMR1_ISR in COMRAM

    _TMR1_ISR->_TMR1_WriteTimer

Critical Paths under _I2C1_ISR in COMRAM

    None.

Critical Paths under _Default_ISR in COMRAM

    None.

Critical Paths under _ADCC_ISR in COMRAM

    _ADCC_ISR->_ADCC_DefaultInterruptHandler

Critical Paths under _main in BANK5

    None.

Critical Paths under _TMR0_ISR in BANK5

    None.

Critical Paths under _TMR1_ISR in BANK5

    None.

Critical Paths under _I2C1_ISR in BANK5

    None.

Critical Paths under _Default_ISR in BANK5

    None.

Critical Paths under _ADCC_ISR in BANK5

    None.

Critical Paths under _main in BANK6

    None.

Critical Paths under _TMR0_ISR in BANK6

    None.

Critical Paths under _TMR1_ISR in BANK6

    None.

Critical Paths under _I2C1_ISR in BANK6

    None.

Critical Paths under _Default_ISR in BANK6

    None.

Critical Paths under _ADCC_ISR in BANK6

    None.

Critical Paths under _main in BANK7

    None.

Critical Paths under _TMR0_ISR in BANK7

    None.

Critical Paths under _TMR1_ISR in BANK7

    None.

Critical Paths under _I2C1_ISR in BANK7

    None.

Critical Paths under _Default_ISR in BANK7

    None.

Critical Paths under _ADCC_ISR in BANK7

    None.

Critical Paths under _main in BANK8

    None.

Critical Paths under _TMR0_ISR in BANK8

    None.

Critical Paths under _TMR1_ISR in BANK8

    None.

Critical Paths under _I2C1_ISR in BANK8

    None.

Critical Paths under _Default_ISR in BANK8

    None.

Critical Paths under _ADCC_ISR in BANK8

    None.

Critical Paths under _main in BANK9

    None.

Critical Paths under _TMR0_ISR in BANK9

    None.

Critical Paths under _TMR1_ISR in BANK9

    None.

Critical Paths under _I2C1_ISR in BANK9

    None.

Critical Paths under _Default_ISR in BANK9

    None.

Critical Paths under _ADCC_ISR in BANK9

    None.

Critical Paths under _main in BANK10

    None.

Critical Paths under _TMR0_ISR in BANK10

    None.

Critical Paths under _TMR1_ISR in BANK10

    None.

Critical Paths under _I2C1_ISR in BANK10

    None.

Critical Paths under _Default_ISR in BANK10

    None.

Critical Paths under _ADCC_ISR in BANK10

    None.

Critical Paths under _main in BANK11

    None.

Critical Paths under _TMR0_ISR in BANK11

    None.

Critical Paths under _TMR1_ISR in BANK11

    None.

Critical Paths under _I2C1_ISR in BANK11

    None.

Critical Paths under _Default_ISR in BANK11

    None.

Critical Paths under _ADCC_ISR in BANK11

    None.

Critical Paths under _main in BANK12

    None.

Critical Paths under _TMR0_ISR in BANK12

    None.

Critical Paths under _TMR1_ISR in BANK12

    None.

Critical Paths under _I2C1_ISR in BANK12

    None.

Critical Paths under _Default_ISR in BANK12

    None.

Critical Paths under _ADCC_ISR in BANK12

    None.

Critical Paths under _main in BANK13

    None.

Critical Paths under _TMR0_ISR in BANK13

    None.

Critical Paths under _TMR1_ISR in BANK13

    None.

Critical Paths under _I2C1_ISR in BANK13

    None.

Critical Paths under _Default_ISR in BANK13

    None.

Critical Paths under _ADCC_ISR in BANK13

    None.

Critical Paths under _main in BANK14

    None.

Critical Paths under _TMR0_ISR in BANK14

    None.

Critical Paths under _TMR1_ISR in BANK14

    None.

Critical Paths under _I2C1_ISR in BANK14

    None.

Critical Paths under _Default_ISR in BANK14

    None.

Critical Paths under _ADCC_ISR in BANK14

    None.

Critical Paths under _main in BANK15

    None.

Critical Paths under _TMR0_ISR in BANK15

    None.

Critical Paths under _TMR1_ISR in BANK15

    None.

Critical Paths under _I2C1_ISR in BANK15

    None.

Critical Paths under _Default_ISR in BANK15

    None.

Critical Paths under _ADCC_ISR in BANK15

    None.

Critical Paths under _main in BANK16

    None.

Critical Paths under _TMR0_ISR in BANK16

    None.

Critical Paths under _TMR1_ISR in BANK16

    None.

Critical Paths under _I2C1_ISR in BANK16

    None.

Critical Paths under _Default_ISR in BANK16

    None.

Critical Paths under _ADCC_ISR in BANK16

    None.

Critical Paths under _main in BANK17

    None.

Critical Paths under _TMR0_ISR in BANK17

    None.

Critical Paths under _TMR1_ISR in BANK17

    None.

Critical Paths under _I2C1_ISR in BANK17

    None.

Critical Paths under _Default_ISR in BANK17

    None.

Critical Paths under _ADCC_ISR in BANK17

    None.

Critical Paths under _main in BANK18

    None.

Critical Paths under _TMR0_ISR in BANK18

    None.

Critical Paths under _TMR1_ISR in BANK18

    None.

Critical Paths under _I2C1_ISR in BANK18

    None.

Critical Paths under _Default_ISR in BANK18

    None.

Critical Paths under _ADCC_ISR in BANK18

    None.

Critical Paths under _main in BANK19

    None.

Critical Paths under _TMR0_ISR in BANK19

    None.

Critical Paths under _TMR1_ISR in BANK19

    None.

Critical Paths under _I2C1_ISR in BANK19

    None.

Critical Paths under _Default_ISR in BANK19

    None.

Critical Paths under _ADCC_ISR in BANK19

    None.

Critical Paths under _main in BANK20

    None.

Critical Paths under _TMR0_ISR in BANK20

    None.

Critical Paths under _TMR1_ISR in BANK20

    None.

Critical Paths under _I2C1_ISR in BANK20

    None.

Critical Paths under _Default_ISR in BANK20

    None.

Critical Paths under _ADCC_ISR in BANK20

    None.

Critical Paths under _main in BANK21

    None.

Critical Paths under _TMR0_ISR in BANK21

    None.

Critical Paths under _TMR1_ISR in BANK21

    None.

Critical Paths under _I2C1_ISR in BANK21

    None.

Critical Paths under _Default_ISR in BANK21

    None.

Critical Paths under _ADCC_ISR in BANK21

    None.

Call Graph Tables:

 ---------------------------------------------------------------------------------
 (Depth) Function   	        Calls       Base Space   Used Autos Params    Refs
 ---------------------------------------------------------------------------------
 (0) _main                                                 1     1      0    1281
                                             16 COMRAM     1     1      0
                          _I2C1_Open
                  _SYSTEM_Initialize
                         _UART1_Read
                       _acquire_sync
 ---------------------------------------------------------------------------------
 (1) _acquire_sync                                         4     4      0      60
                                             12 COMRAM     4     4      0
                         _UART1_Read
 ---------------------------------------------------------------------------------
 (2) _UART1_Read                                           0     0      0       0
                   Absolute function *
          _UART1_DefaultErrorHandler *
   _UART1_DefaultFramingErrorHandler *
   _UART1_DefaultOverrunErrorHandler *
 ---------------------------------------------------------------------------------
 (3) _UART1_DefaultOverrunErrorHandler                     0     0      0       0
 ---------------------------------------------------------------------------------
 (3) _UART1_DefaultFramingErrorHandler                     0     0      0       0
 ---------------------------------------------------------------------------------
 (3) _UART1_DefaultErrorHandler                            0     0      0       0
 ---------------------------------------------------------------------------------
 (7) Absolute function(Fake)                               0     0      0       0
 ---------------------------------------------------------------------------------
 (1) _SYSTEM_Initialize                                    0     0      0     603
                    _ADCC_Initialize
                    _CMP1_Initialize
                    _I2C1_Initialize
               _INTERRUPT_Initialize
              _OSCILLATOR_Initialize
             _PIN_MANAGER_Initialize
                     _PMD_Initialize
                    _TMR0_Initialize
                    _TMR1_Initialize
                   _UART1_Initialize
 ---------------------------------------------------------------------------------
 (2) _UART1_Initialize                                     0     0      0     294
              _UART1_SetErrorHandler
       _UART1_SetFramingErrorHandler
       _UART1_SetOverrunErrorHandler
 ---------------------------------------------------------------------------------
 (3) _UART1_SetOverrunErrorHandler                         2     0      2      98
                                             12 COMRAM     2     0      2
 ---------------------------------------------------------------------------------
 (3) _UART1_SetFramingErrorHandler                         2     0      2      98
                                             12 COMRAM     2     0      2
 ---------------------------------------------------------------------------------
 (3) _UART1_SetErrorHandler                                2     0      2      98
                                             12 COMRAM     2     0      2
 ---------------------------------------------------------------------------------
 (2) _TMR1_Initialize                                      2     2      0      98
                                             14 COMRAM     2     2      0
           _TMR1_SetInterruptHandler
 ---------------------------------------------------------------------------------
 (3) _TMR1_SetInterruptHandler                             2     0      2      98
                                             12 COMRAM     2     0      2
 ---------------------------------------------------------------------------------
 (2) _TMR0_Initialize                                      2     2      0      98
                                             14 COMRAM     2     2      0
           _TMR0_SetInterruptHandler
 ---------------------------------------------------------------------------------
 (3) _TMR0_SetInterruptHandler                             2     0      2      98
                                             12 COMRAM     2     0      2
 ---------------------------------------------------------------------------------
 (2) _PMD_Initialize                                       0     0      0       0
 ---------------------------------------------------------------------------------
 (2) _PIN_MANAGER_Initialize                               0     0      0       0
 ---------------------------------------------------------------------------------
 (2) _OSCILLATOR_Initialize                                0     0      0       0
 ---------------------------------------------------------------------------------
 (2) _INTERRUPT_Initialize                                 1     1      0      15
                                             12 COMRAM     1     1      0
 ---------------------------------------------------------------------------------
 (2) _I2C1_Initialize                                      0     0      0       0
 ---------------------------------------------------------------------------------
 (2) _CMP1_Initialize                                      0     0      0       0
 ---------------------------------------------------------------------------------
 (2) _ADCC_Initialize                                      0     0      0      98
        _ADCC_SetADIInterruptHandler
 ---------------------------------------------------------------------------------
 (3) _ADCC_SetADIInterruptHandler                          2     0      2      98
                                             12 COMRAM     2     0      2
 ---------------------------------------------------------------------------------
 (1) _I2C1_Open                                            0     0      0     550
                _I2C1_SlaveEnableIrq
                     _I2C1_SlaveOpen
        _I2C1_SlaveSetAddrIntHandler
      _I2C1_SlaveSetBusColIntHandler
        _I2C1_SlaveSetReadIntHandler
             _I2C1_SlaveSetSlaveAddr
             _I2C1_SlaveSetSlaveMask
       _I2C1_SlaveSetWrColIntHandler
       _I2C1_SlaveSetWriteIntHandler
 ---------------------------------------------------------------------------------
 (2) _I2C1_SlaveSetWriteIntHandler                         2     0      2      98
                                             12 COMRAM     2     0      2
 ---------------------------------------------------------------------------------
 (2) _I2C1_SlaveSetWrColIntHandler                         2     0      2      98
                                             12 COMRAM     2     0      2
 ---------------------------------------------------------------------------------
 (2) _I2C1_SlaveSetSlaveMask                               1     1      0      30
                                             12 COMRAM     1     1      0
 ---------------------------------------------------------------------------------
 (2) _I2C1_SlaveSetSlaveAddr                               1     1      0      30
                                             12 COMRAM     1     1      0
 ---------------------------------------------------------------------------------
 (2) _I2C1_SlaveSetReadIntHandler                          2     0      2      98
                                             12 COMRAM     2     0      2
 ---------------------------------------------------------------------------------
 (2) _I2C1_SlaveSetBusColIntHandler                        2     0      2      98
                                             12 COMRAM     2     0      2
 ---------------------------------------------------------------------------------
 (2) _I2C1_SlaveSetAddrIntHandler                          2     0      2      98
                                             12 COMRAM     2     0      2
 ---------------------------------------------------------------------------------
 (2) _I2C1_SlaveOpen                                       0     0      0       0
 ---------------------------------------------------------------------------------
 (2) _I2C1_SlaveEnableIrq                                  0     0      0       0
 ---------------------------------------------------------------------------------
 Estimated maximum stack depth 7
 ---------------------------------------------------------------------------------
 (Depth) Function   	        Calls       Base Space   Used Autos Params    Refs
 ---------------------------------------------------------------------------------
 (4) _TMR0_ISR                                             3     3      0       0
                                              4 COMRAM     3     3      0
                   Absolute function *
       _TMR0_DefaultInterruptHandler *
 ---------------------------------------------------------------------------------
 (5) _TMR0_DefaultInterruptHandler                         0     0      0       0
 ---------------------------------------------------------------------------------
 (7) Absolute function(Fake)                               0     0      0       0
 ---------------------------------------------------------------------------------
 Estimated maximum stack depth 7
 ---------------------------------------------------------------------------------
 (Depth) Function   	        Calls       Base Space   Used Autos Params    Refs
 ---------------------------------------------------------------------------------
 (4) _TMR1_ISR                                             3     3      0     240
                                              9 COMRAM     3     3      0
                   Absolute function *
       _TMR1_DefaultInterruptHandler *
                    _TMR1_WriteTimer
 ---------------------------------------------------------------------------------
 (5) _TMR1_WriteTimer                                      2     0      2     240
                                              7 COMRAM     2     0      2
 ---------------------------------------------------------------------------------
 (5) _TMR1_DefaultInterruptHandler                         1     1      0       0
                                              7 COMRAM     1     1      0
 ---------------------------------------------------------------------------------
 (7) Absolute function(Fake)                               0     0      0       0
 ---------------------------------------------------------------------------------
 Estimated maximum stack depth 7
 ---------------------------------------------------------------------------------
 (Depth) Function   	        Calls       Base Space   Used Autos Params    Refs
 ---------------------------------------------------------------------------------
 (6) _I2C1_ISR                                             0     0      0       0
 ---------------------------------------------------------------------------------
 Estimated maximum stack depth 6
 ---------------------------------------------------------------------------------
 (Depth) Function   	        Calls       Base Space   Used Autos Params    Refs
 ---------------------------------------------------------------------------------
 (6) _Default_ISR                                          0     0      0       0
 ---------------------------------------------------------------------------------
 Estimated maximum stack depth 6
 ---------------------------------------------------------------------------------
 (Depth) Function   	        Calls       Base Space   Used Autos Params    Refs
 ---------------------------------------------------------------------------------
 (6) _ADCC_ISR                                             2     2      0       0
                                              2 COMRAM     2     2      0
                   Absolute function *
       _ADCC_DefaultInterruptHandler *
 ---------------------------------------------------------------------------------
 (7) _ADCC_DefaultInterruptHandler                         2     2      0       0
                                              0 COMRAM     2     2      0
 ---------------------------------------------------------------------------------
 (7) Absolute function(Fake)                               0     0      0       0
 ---------------------------------------------------------------------------------
 Estimated maximum stack depth 7
 ---------------------------------------------------------------------------------

 Call Graph Graphs:

 _main (ROOT)
   _I2C1_Open
     _I2C1_SlaveEnableIrq
     _I2C1_SlaveOpen
     _I2C1_SlaveSetAddrIntHandler
     _I2C1_SlaveSetBusColIntHandler
     _I2C1_SlaveSetReadIntHandler
     _I2C1_SlaveSetSlaveAddr
     _I2C1_SlaveSetSlaveMask
     _I2C1_SlaveSetWrColIntHandler
     _I2C1_SlaveSetWriteIntHandler
   _SYSTEM_Initialize
     _ADCC_Initialize
       _ADCC_SetADIInterruptHandler
     _CMP1_Initialize
     _I2C1_Initialize
     _INTERRUPT_Initialize
     _OSCILLATOR_Initialize
     _PIN_MANAGER_Initialize
     _PMD_Initialize
     _TMR0_Initialize
       _TMR0_SetInterruptHandler
     _TMR1_Initialize
       _TMR1_SetInterruptHandler
     _UART1_Initialize
       _UART1_SetErrorHandler
       _UART1_SetFramingErrorHandler
       _UART1_SetOverrunErrorHandler
   _UART1_Read
     Absolute function(Fake) *
     _UART1_DefaultErrorHandler *
     _UART1_DefaultFramingErrorHandler *
     _UART1_DefaultOverrunErrorHandler *
   _acquire_sync
     _UART1_Read

 _TMR0_ISR (ROOT)
   Absolute function(Fake) *
   _TMR0_DefaultInterruptHandler *

 _TMR1_ISR (ROOT)
   Absolute function(Fake) *
   _TMR1_DefaultInterruptHandler *
   _TMR1_WriteTimer *

 _I2C1_ISR (ROOT)

 _Default_ISR (ROOT)

 _ADCC_ISR (ROOT)
   Absolute function(Fake) *
   _ADCC_DefaultInterruptHandler *

 Address spaces:
Name               Size   Autos  Total    Cost      Usage
BIGRAM            10FF      0       0      38        0.0%
EEDATA             200      0       0       0        0.0%
BITBIGSFRllllll    14F      0       0      69        0.0%
BITBANK21          100      0       0      36        0.0%
BANK21             100      0       0      37        0.0%
BITBANK20          100      0       0      34        0.0%
BANK20             100      0       0      35        0.0%
BITBANK19          100      0       0      32        0.0%
BANK19             100      0       0      33        0.0%
BITBANK18          100      0       0      30        0.0%
BANK18             100      0       0      31        0.0%
BITBANK17          100      0       0      28        0.0%
BANK17             100      0       0      29        0.0%
BITBANK16          100      0       0      26        0.0%
BANK16             100      0       0      27        0.0%
BITBANK15          100      0       0      24        0.0%
BANK15             100      0       0      25        0.0%
BITBANK14          100      0       0      22        0.0%
BANK14             100      0       0      23        0.0%
BITBANK13          100      0       0      20        0.0%
BANK13             100      0       0      21        0.0%
BITBANK12          100      0       0      18        0.0%
BANK12             100      0       0      19        0.0%
BITBANK11          100      0       0      16        0.0%
BANK11             100      0       0      17        0.0%
BITBANK10          100      0       0      14        0.0%
BANK10             100      0       0      15        0.0%
BITBANK9           100      0       0      12        0.0%
BANK9              100      0       0      13        0.0%
BITBANK8           100      0       0      10        0.0%
BANK8              100      0       0      11        0.0%
BITBANK7           100      0       0       8        0.0%
BANK7              100      0       0       9        0.0%
BITBANK6           100      0       0       6        0.0%
BANK6              100      0       0       7        0.0%
BITBANK5            A0      0       0       4        0.0%
BANK5               A0      0      80       5       80.0%
BITBIGSFRllllhh     6A      0       0      55        0.0%
BITBIGSFRllllll     63      0       0      74        0.0%
BITCOMRAM           5F      0       0       0        0.0%
COMRAM              5F     11      39       1       60.0%
BITBIGSFRllllhh     5E      0       0      59        0.0%
BITBIGSFRlllllh     58      0       0      66        0.0%
BITBIGSFRllllhh     4C      0       0      58        0.0%
BITBIGSFRlhllhh     49      0       0      48        0.0%
BITBIGSFRlhlll      44      0       0      50        0.0%
BITBIGSFRllllll     38      0       0      72        0.0%
BITBIGSFRhhh        29      0       0      39        0.0%
BITBIGSFRllllhh     17      0       0      65        0.0%
BITBIGSFRllllll     10      0       0      68        0.0%
BITBIGSFRhhlh        7      0       0      40        0.0%
BITBIGSFRllllll      7      0       0      73        0.0%
BITBIGSFRlhh         6      0       0      43        0.0%
BITBIGSFRllllhh      5      0       0      53        0.0%
BITBIGSFRhhll        5      0       0      41        0.0%
BITBIGSFRhl          5      0       0      42        0.0%
BITBIGSFRlhlhl       4      0       0      45        0.0%
BITBIGSFRlhllhh      3      0       0      46        0.0%
BITBIGSFRllllhh      3      0       0      56        0.0%
BITBIGSFRlhllhl      3      0       0      49        0.0%
BITBIGSFRllllhh      3      0       0      62        0.0%
BITBIGSFRlllh        3      0       0      52        0.0%
BITBIGSFRllh         3      0       0      51        0.0%
BITBIGSFRlllllh      2      0       0      67        0.0%
BITBIGSFRlhllhh      1      0       0      47        0.0%
BITBIGSFRlhlhh       1      0       0      44        0.0%
BITBIGSFRllllhh      1      0       0      54        0.0%
BITBIGSFRllllhh      1      0       0      57        0.0%
BITBIGSFRllllhh      1      0       0      63        0.0%
BITBIGSFRllllhh      1      0       0      64        0.0%
BITBIGSFRllllll      1      0       0      70        0.0%
BITBIGSFRllllll      1      0       0      71        0.0%
BITBIGSFRllllhh      1      0       0      60        0.0%
BITBIGSFRllllhh      1      0       0      61        0.0%
BIGSFR               0      0       0     200        0.0%
BITSFR_5             0      0       0     200        0.0%
SFR_5                0      0       0     200        0.0%
BITSFR_4             0      0       0     200        0.0%
SFR_4                0      0       0     200        0.0%
BITSFR_3             0      0       0     200        0.0%
SFR_3                0      0       0     200        0.0%
BITSFR_2             0      0       0     200        0.0%
SFR_2                0      0       0     200        0.0%
BITSFR_1             0      0       0     200        0.0%
SFR_1                0      0       0     200        0.0%
BITSFR               0      0       0     200        0.0%
SFR                  0      0       0     200        0.0%
STACK                0      0       0       2        0.0%
NULL                 0      0       0       0        0.0%
ABS                  0      0      B9      75        0.0%
DATA                 0      0      B9       3        0.0%
CODE                 0      0       0       0        0.0%


Microchip Technology PIC18 Macro Assembler V2.35 build 20211206165544 
Symbol Table                                                                                   Thu Aug 04 11:52:49 2022

                                          l73 0804                                            l57 0320  
                           ??_CMP1_Initialize 0525                                            u10 01A6  
                                          u11 01A2                                            u20 01BA  
                                          u21 01B6                                            u40 01E6  
                                          u41 01E2                                            u60 0212  
                                          u61 020E                                            u38 01C2  
                                          u39 01D6                                            u90 0816  
                                          u58 01EE                                            u91 0812  
                                          u59 0202                                            u85 0590  
                                          u86 0592                                            u78 0218  
                                          u79 022C                                           l162 0230  
                                         l251 079E                                           l139 03F2  
                                         l171 08C0                                           l180 0862  
                                         l156 0198                                           l245 0782  
                                         l174 08BE                                           l183 0858  
                                         l408 0894                                           l248 07BA  
                                         l177 08C2                                           l418 08BC  
                                         l186 086C                                           l603 06FA  
                                         l428 089E                                           l700 0876  
                                         l461 084E                                           l438 08B2  
                                         l366 07D6                                           l455 083C  
                                         l449 0818                                           l369 0558  
                                         l458 082A                                           l571 05A2  
                                         l627 0880                                           l396 08A8  
                                         l736 02B2                                           l843 038A  
                                         l668 06BC                                           l933 088A  
                                         _GIE 0026B7                                           u140 0246  
                                         u141 0242                                           u150 027A  
                                         u151 0276                                           u160 028E  
                                         u161 028A                                           u170 02B2  
                                         u171 02AE                                           u530 04EC  
                                         u531 04E8                                           u540 0500  
                                         u541 04FC                               _timer1ReloadVal 052E  
                                         tosl 0004FD                                           wreg 0004E8  
                ?_ADCC_SetADIInterruptHandler 0525                              __end_of_I2C1_ISR 0198  
                                        l2210 0864                                          l2300 0554  
                                        l2212 0878                                          l2220 03CA  
                                        l2230 0348                                          l2214 086E  
                                        l2206 085A                                          l2222 03D6  
                                        l2216 0882                                          l2232 037A  
                                        l2240 0688                                          l2208 0850  
                                        l2224 03E2                                          l2234 037C  
                                        l2250 06B6                                          l2242 068E  
                                        l2226 03EE                                          l2218 038C  
                                        l2330 04BE                                          l2236 037E  
                                        l2228 0322                                          l2260 06E8  
                                        l2252 06BE                                          l2244 0690  
                                        l2340 04C8                                          l2332 04C0  
                                        l2270 08B4                                          l1630 07F2  
                                        l2262 06F4                                          l2254 06CC  
                                        l2246 06A8                                          l2238 067A  
                                        l2342 04DA                                          l2334 04C4  
                                        l2326 04B4                                          l2264 08AA  
                                        l2272 0896                                          l1624 02B4  
                                        l2256 06E4                                          l2248 06AA  
                                        l2280 077A                                          l2344 04DC  
                                        l2328 04BC                                          l2266 088C  
                                        l2290 0518                                          l1626 02FA  
                                        l2258 06E6                                          l2282 077E  
                                        l2274 075A                                          l1650 01BC  
                                        l1642 0198                                          l2346 04EC  
                                        l2268 08A0                                          l1740 081C  
                                        l2292 0524                                          l2284 0508  
                                        l1628 0304                                          l2276 0772  
                                        l1660 0212                                          l1652 01D6  
                                        l1644 01A6                                          l1820 0256  
                                        l1804 0232                                          l1734 0806  
                                        l2294 0530                                          l2286 050C  
                                        l1670 0564                                          l2278 0776  
                                        l1662 022C                                          l1654 01E6  
                                        l1646 01AA                                          l1830 0292  
                                        l1822 025A                                          l1814 024E  
                                        l1806 0232                                          l1752 083E  
                                        l1736 0816                                          l2296 053C  
                                        l2288 0512                                          l1680 0596  
                                        l1672 0570                                          l1656 01E8  
                                        l1648 01BA                                          l1832 0296  
                                        l1824 025E                                          l1808 0246  
                                        l1738 082E                                          l2298 0548  
                                        l1690 05A0                                          l1682 0598  
                                        l1674 0586                                          l1666 055A  
                                        l1658 0202                                          l1826 027A  
                                        l1684 059A                                          l1676 0588  
                                        l1668 055C                                          l1692 0784  
                                        l1694 07BC                                          l1686 059C  
                                        l1678 0592                                          l1688 059E  
                                        l1696 07A0                                          _LATA 0004BE  
                                        _LATB 0004BF                                          _LATC 0004C0  
                                        _PMD0 000063                                          _PMD1 000064  
                                        _PMD2 000065                                          _PMD3 000066  
                                        _PMD4 000067                                          _PMD5 000068  
                                        _WPUA 000401                                          _WPUB 000409  
                                        _WPUC 000411                              __end_of_ADCC_ISR 05EC  
                                        _main 04B4            I2C1_SlaveSetAddrIntHandler@handler 0525  
                                        indf2 0004DF                                          fsr2l 0004D9  
                                        start 00BA                          __end_of_acquire_sync 02B4  
                                  _i2c1RdData 0515                    ??_TMR1_SetInterruptHandler 0527  
                                ___param_bank 000000                                    _i2c1WrData 0516  
          I2C1_SlaveSetReadIntHandler@handler 0525                  _I2C1_SlaveRdInterruptHandler 050D  
                _I2C1_SlaveWrInterruptHandler 050B                                   ?_UART1_Read 0519  
                            ??_I2C1_SlaveOpen 0525                       __end_of_TMR0_Initialize 06FC  
              ??_TMR0_DefaultInterruptHandler 051D                 __end_of_OSCILLATOR_Initialize 07BC  
                           __end_of_I2C1_Open 055A                                         _ADACT 0003F9  
                                       _ADCAP 0003F0                                         ?_main 0519  
                                       _ADCLK 0003FA                                         _ADCNT 0003E6  
                                       _ADPCH 0003EC                                         _ADREF 0003F8  
                                       _ADRPT 0003E7                                         _T1CLK 000317  
                                       _T1CON 000314                                         _U1P1H 0002A6  
                                       _U1P2H 0002A8                                         _U1P3H 0002AA  
                                       _U1P1L 0002A5                                         _U1P2L 0002A7  
                                       _U1P3L 0002A9                                         _U1UIR 0002B1  
                                       _U1RXB 0002A1                                         _U1TXB 0002A3  
                                       i1l703 0678                                         i1l631 07F0  
                                       i1l624 0440                                         i2l530 0186  
                                       i1l682 0758                                         i2l531 0142  
                                       i2l526 00E2                                         i2l536 0196  
                                       i2l528 0122                                         i1l697 04A0  
                                       i2l576 08C4                                         i2l930 05DE  
                                       i2l936 0632                                         _OSCEN 0000B3  
                                       _TMR0H 000319                                         _TMR1H 000313  
                                       _TMR0L 000318                                         _TMR1L 000312  
                                       _TRISA 0004C6                                         _TRISB 0004C7  
                                       _TRISC 0004C8                                   _Default_ISR 08C4  
                   ?_TMR0_SetInterruptHandler 0525                             ??_I2C1_Initialize 0525  
                            __end_of_TMR0_ISR 0454                I2C1_SlaveSetSlaveMask@maskAddr 0525  
                            __end_of_TMR1_ISR 04B4                                _i2c1SlaveState 0513  
                                       main@i 0529                       __end_of_TMR1_Initialize 06BE  
                                       pclath 0004FA                                         pclatu 0004FB  
                                       status 0004D8           fp__UART1_DefaultFramingErrorHandler 0000  
    __end_of_UART1_DefaultFramingErrorHandler 08C2            ??_UART1_DefaultFramingErrorHandler 0525  
           ?_UART1_DefaultFramingErrorHandler 0519              _UART1_DefaultFramingErrorHandler 08C0  
                             _TMR1_WriteTimer 072C                               __initialization 06FC  
                                __end_of_main 0508                   ??_UART1_DefaultErrorHandler 0525  
                       _I2C1_InterruptHandler 050F                                   _Jaccess_reg 0511  
                                      ??_main 0529                                 __activetblptr 000002  
                            _UART1_Initialize 038C                                        _ADACCH 0003E4  
                                      _ADACCL 0003E3                                        _ADACCU 0003E5  
                                      _ADACQH 0003EF                                        _ADACQL 0003EE  
                                      _ADCON0 0003F3                                        _ADCON1 0003F4  
                                      _ADCON2 0003F5                                        _ADCON3 0003F6  
                                      _ADERRH 0003DE                                        _CM1NCH 000072  
                                      _ADERRL 0003DD                                        _CM1PCH 000073  
                                      _ACTCON 0000AC                                        _ADLTHH 0003DA  
                                      _ADLTHL 0003D9                                        _ADRESH 0003EB  
                                      _ADRESL 0003EA                                        _ADPREH 0003F2  
                                      _ADPREL 0003F1                                        _ADSTAT 0003F7  
                                      _ADUTHH 0003DC                                        _ADUTHL 0003DB  
                                      _ANSELA 000400                                        _ANSELB 000408  
                                      _ANSELC 000410                                        _T0CON0 00031A  
                                      _T0CON1 00031B                                        _T1GATE 000316  
                                      _T1GCON 000315                                        _U1CON0 0002AB  
                                      _U1CON1 0002AC                                        _U1CON2 0002AD  
                                      _U1BRGH 0002AF                                        _U1FIFO 0002B0  
                                      _U1BRGL 0002AE                                        _RA2PPS 000203  
                                      _RC3PPS 000214                       TMR1_WriteTimer@timerVal 0520  
                                      i1l2050 040E                                        i1l2052 0414  
                                      i1l2310 0748                                        i1l2302 072C  
                                      i1l2054 0426                                        i1l2046 0406  
                                      i1l2304 073C                                        i1l2312 074E  
                                      i1l2320 0468                                        i1l2048 0408  
                                      _ODCONA 000402                                        i1l2314 0752  
                                      i1l2306 073E                                        i1l2322 0474  
                                      _ODCONB 00040A                                        _RC6PPS 000217  
                                      _ODCONC 000412                                        i1l2308 0742  
                                      i1l2324 0486                                        i1l2318 0466  
                                      i1l1802 0634                                        i2l2000 0100  
                                      i2l2010 0156                                        i2l2002 010E  
                                      i2l2020 018A                                        i2l2012 0166  
                                      i2l2004 0130                                        i2l2022 018C  
                                      i2l2014 016E                                        i1l1782 07D8  
                                      i2l2200 05B0                                        i2l2024 018E  
                                      i2l2016 0180                                        i2l2008 0150  
                                      i1l1784 07DC                                        i2l2202 05B2  
                                      i2l2026 0190                                        i2l2018 0186  
                                      i1l1786 07EC                                        i2l2204 05C4  
                                      i2l1834 05EC                                        i2l1836 0624  
                                      i2l1992 00C0                                        _INLVLA 000404  
                                      i2l1994 00D2                                        _INLVLB 00040C  
                                      _INLVLC 000414                                        i2l1996 00D6  
                                      i2l1998 00F0                                        _OSCFRQ 0000B1  
                       _UART1_SetErrorHandler 0864                                 _ADPCHSelector 0518  
        __end_of_TMR1_DefaultInterruptHandler 067A                  _TMR1_DefaultInterruptHandler 0634  
                            ?_TMR0_Initialize 0519                                     ?_I2C1_ISR 0519  
                                      _millis 0501                                        clear_0 0702  
                                      clear_1 070E                       ?_I2C1_SlaveSetSlaveAddr 0519  
                                      isa$std 000001                       ?_I2C1_SlaveSetSlaveMask 0519  
                                   ?_ADCC_ISR 0519                               _ADCC_Initialize 0322  
                              _PMD_Initialize 0784          __end_of_I2C1_SlaveSetWrColIntHandler 08A0  
                _I2C1_SlaveSetWrColIntHandler 0896          I2C1_SlaveSetBusColIntHandler@handler 0525  
                                      tblptru 0004F8   ADCC_SetADIInterruptHandler@InterruptHandler 0525  
    TMR1_SetInterruptHandler@InterruptHandler 0525      TMR0_SetInterruptHandler@InterruptHandler 0525  
        __end_of_UART1_SetOverrunErrorHandler 085A                  _UART1_SetOverrunErrorHandler 0850  
                   _UART1_DefaultErrorHandler 08C2                       __end_of_TMR1_WriteTimer 075A  
                            ?_TMR1_Initialize 0519                             _SYSTEM_Initialize 075A  
                                  __accesstop 0560                       __end_of__initialization 0722  
         I2C1_SlaveSetWrColIntHandler@handler 0525                               _CMP1_Initialize 07F2  
                          ?_SYSTEM_Initialize 0519                                 ___rparam_used 000001  
                              __pcstackCOMRAM 0519                           ??_SYSTEM_Initialize 0529  
                                   ?_TMR0_ISR 0519                                     ?_TMR1_ISR 0519  
             fp__TMR1_DefaultInterruptHandler 0000                 ?_TMR1_DefaultInterruptHandler 0519  
                              ivt0x8_undefint 00B8                __end_of_I2C1_SlaveSetSlaveAddr 083E  
              __end_of_I2C1_SlaveSetSlaveMask 082C                                    ??_I2C1_ISR 0519  
                      __end_of_PMD_Initialize 07A0                                    ??_ADCC_ISR 051B  
                                _acquire_sync 0232                     _UART1_FramingErrorHandler 0538  
                   __end_of_SYSTEM_Initialize 0784                                    __pbssBANK5 0560  
               ?_UART1_SetOverrunErrorHandler 0525                        ?_UART1_SetErrorHandler 0525  
                         _I2C1_SlaveEnableIrq 083E                                    __pnvCOMRAM 052A  
                                     IVTBASEH 00045E                                       IVTBASEL 00045D  
                                     IVTBASEU 00045F                 ?_I2C1_SlaveSetWriteIntHandler 0525  
            __end_of_TMR0_SetInterruptHandler 0882                                  ??_UART1_Read 0525  
                                     _I2C1PIR 00029A                                       _I2C1RXB 00028A  
                                  ??_TMR0_ISR 051D                                       _I2C1TXB 00028B  
                                  ??_TMR1_ISR 0522                       __end_of_ADCC_Initialize 038C  
                             _I2C1_Initialize 07BC                                       _CM1CON0 000070  
                                     _CM1CON1 000071                                       _ADFLTRH 0003E2  
                                     _ADFLTRL 0003E1                                       _ADPREVH 0003E9  
                                     _ADPREVL 0003E8                          ?_I2C1_SlaveEnableIrq 0519  
                                     _ADSTPTH 0003E0                                       _ADSTPTL 0003DF  
                             ?_PMD_Initialize 0519                                       _U1ERRIE 0002B3  
                                     _U1ERRIR 0002B2                                  ?_Default_ISR 0519  
                                     _U1RXPPS 000272                                       _OSCCON1 0000AD  
                                     _OSCCON3 0000AF                                     _I2C1_Open 0508  
                                     i1u10_20 07EC                                       i1u10_21 07E8  
                                     i1u12_20 0652                                       i1u12_21 064A  
                                     i1u13_20 066E                                       i1u12_28 0654  
                                     i1u13_21 0666                                       i1u13_28 0670  
                                     _IVTLOCK 000459                                       i1u41_20 0426  
                                     i1u41_21 0422                                       i1u50_20 073C  
                                     i1u50_21 0738                                       i1u51_20 0486  
                                     i1u42_28 042C                                       i1u51_21 0482  
                                     i1u42_29 0440                                       i1u52_28 048C  
                                     i1u52_29 04A0                                       i2u40_40 0166  
                                     i2u40_41 0162                                       i2u33_40 00D2  
                                     i2u33_41 00CE                                       i2u34_40 00F0  
                                     i2u34_41 00EC                                       i2u35_40 0100  
                                     i2u35_41 00FC                                       i2u36_40 010E  
                                     i2u36_41 010A                                       i2u37_40 0130  
                                     i2u37_41 012C                                       i2u38_40 013E  
                                     i2u38_41 013A                                       _OSCTUNE 0000B0  
                                     i2u39_40 0150                                       i2u39_41 014C  
                                     i2u48_40 05C4                                       i2u48_41 05C0  
                                     i2u49_48 05CA                                       i2u49_49 05DE  
                                     _SLRCONA 000403                                       _SLRCONB 00040B  
                                     _SLRCONC 000413                       __end_of_CMP1_Initialize 0806  
                            ?_TMR1_WriteTimer 0520                            __end_of_UART1_Read 0232  
              ?_I2C1_SlaveSetBusColIntHandler 0525                            acquire_sync@i_1518 0527  
                   INTERRUPT_Initialize@state 0525                                       __Hparam 0000  
                                     __Lparam 0000                      __end_of_UART1_Initialize 03F4  
                       ??_I2C1_SlaveEnableIrq 0525                                       __pcinit 06FC  
                                     __ramtop 1600                                       __ptext0 04B4  
                                     __ptext1 0232                                       __ptext2 0198  
                                     __ptext3 08BE                                       __ptext4 08C0  
                                     __ptext5 08C2                                       __ptext6 075A  
                                     __ptext7 038C                                       __ptext8 0850  
                                     __ptext9 085A                ??_TMR1_DefaultInterruptHandler 0520  
              _I2C1_SlaveAddrInterruptHandler 0509                                     _T1CONbits 000314  
                       _OSCILLATOR_Initialize 07A0                                   _I2C1ERRbits 000297  
             I2C1_SlaveSetSlaveAddr@slaveAddr 0525                      ??_PIN_MANAGER_Initialize 0525  
                                 _I2C1PIEbits 00029B                     ?_TMR1_SetInterruptHandler 0525  
                                  ?_I2C1_Open 0519                                   _I2C1PIRbits 00029A  
                        end_of_initialization 0722                                 acquire_sync@i 0525  
                               __Lmediumconst 0000               _I2C1_SlaveWrColInterruptHandler 0505  
              ??_UART1_SetOverrunErrorHandler 0527                       __end_of_I2C1_Initialize 07D8  
                                     postinc0 0004EE                              ?_ADCC_Initialize 0519  
              ??_I2C1_SlaveSetWriteIntHandler 0527                      _TMR0_SetInterruptHandler 0878  
                                   _PORTAbits 0004CE           __end_of_ADCC_SetADIInterruptHandler 088C  
                 _ADCC_SetADIInterruptHandler 0882                              ?_CMP1_Initialize 0519  
                                 _CM1CON0bits 000070                 ??_ADCC_SetADIInterruptHandler 0527  
                        _timer0ReloadVal16bit 0532                  __end_of_INTERRUPT_Initialize 05A4  
              ??_ADCC_DefaultInterruptHandler 0519                                 _i2c1SlaveAddr 0514  
                      ?_OSCILLATOR_Initialize 0519                           start_initialization 06FC  
                                 ??_I2C1_Open 0527                       ??_UART1_SetErrorHandler 0527  
                                  ivt0x8_base 0008                              ?_I2C1_Initialize 0519  
                            ??_PMD_Initialize 0525               _I2C1_SlaveDefRdInterruptHandler 000000  
             _I2C1_SlaveDefWrInterruptHandler 000000                                   __pbssCOMRAM 0501  
                          _UART1_ErrorHandler 0534                  ?_I2C1_SlaveSetAddrIntHandler 0525  
                fp__UART1_DefaultErrorHandler 0000                         _TMR0_InterruptHandler 0530  
                      _PIN_MANAGER_Initialize 02B4                             ?_UART1_Initialize 0519  
        __end_of_UART1_SetFramingErrorHandler 0864                  _UART1_SetFramingErrorHandler 085A  
            __end_of_TMR1_SetInterruptHandler 0878                  ?_I2C1_SlaveSetReadIntHandler 0525  
                                    _I2C1ADB0 00028E                                      _I2C1ADR0 000290  
                                    _I2C1ADR1 000291                                      _I2C1ADR2 000292  
                                    _I2C1ADR3 000293                                      _I2C1BAUD 00029D  
                          ??_UART1_Initialize 0527                                      _I2C1CON0 000294  
                                    _I2C1CON1 000295                                      _I2C1CON2 000296  
                                    _I2C1CNTH 00028D                                      _I2C1CNTL 00028C  
             ??_I2C1_SlaveSetBusColIntHandler 0527                                      _I2C1_ISR 00C0  
                            _uart1RxLastError 0517                                      _ADCC_ISR 05A4  
         fp__UART1_DefaultOverrunErrorHandler 0000      __end_of_UART1_DefaultOverrunErrorHandler 08C0  
          ??_UART1_DefaultOverrunErrorHandler 0525             ?_UART1_DefaultOverrunErrorHandler 0519  
            _UART1_DefaultOverrunErrorHandler 08BE           __end_of_I2C1_SlaveSetAddrIntHandler 08BE  
                 _I2C1_SlaveSetAddrIntHandler 08B4                                _I2C1_SlaveOpen 0806  
                                 _U1ERRIRbits 0002B2                 ?_I2C1_SlaveSetWrColIntHandler 0525  
                        _INTERRUPT_Initialize 055A                                    _I2C1SDAPPS 000270  
                                  _I2C1SCLPPS 000271                 ??_I2C1_SlaveSetAddrIntHandler 0527  
                           ??_TMR0_Initialize 0527         UART1_SetErrorHandler@interruptHandler 0525  
                                    _IPR1bits 000368                                      _PIE1bits 0004A9  
                                    _IPR3bits 00036A                                      _PIE3bits 0004AB  
                                    _IPR7bits 00036E                                      _PIE7bits 0004AF  
                    ??_I2C1_SlaveSetSlaveAddr 0525           __end_of_I2C1_SlaveSetReadIntHandler 08AA  
                 _I2C1_SlaveSetReadIntHandler 08A0                                      _IVTBASEH 00045E  
                                    _IVTBASEL 00045D                                      _IVTBASEU 00045F  
                    ??_I2C1_SlaveSetSlaveMask 0525                   __end_of_I2C1_SlaveEnableIrq 0850  
                  ??_TMR0_SetInterruptHandler 0527                                 _I2C1STAT0bits 000298  
                               _I2C1STAT1bits 000299                                      _PIR1bits 0004B4  
                                    _PIR3bits 0004B6                                      _PIR4bits 0004B7  
                                    _TMR0_ISR 03F4                                      _TMR1_ISR 0454  
               ?_UART1_SetFramingErrorHandler 0525                 ??_I2C1_SlaveSetReadIntHandler 0527  
                           ??_TMR1_Initialize 0527                                    _ADCON0bits 0003F3  
                                  _ADCON1bits 0003F4                                    _ADCON2bits 0003F5  
                                  _ADCON3bits 0003F6                        __end_of_I2C1_SlaveOpen 081A  
            _I2C1_SlaveBusColInterruptHandler 0507                                   _INTCON0bits 0004D6  
                       ?_INTERRUPT_Initialize 0519            _I2C1_SlaveDefWrColInterruptHandler 000000  
           _I2C1_SlaveDefAddrInterruptHandler 000000                                    _ADSTATbits 0003F7  
                                    __Hrparam 0000                                      __Lrparam 0000  
                     ??_OSCILLATOR_Initialize 0525                      _TMR1_SetInterruptHandler 086E  
         _I2C1_SlaveDefBusColInterruptHandler 000000                         _TMR1_InterruptHandler 052C  
                             ?_I2C1_SlaveOpen 0519                                 ?_acquire_sync 0519  
       __end_of_I2C1_SlaveSetBusColIntHandler 08B4                 _I2C1_SlaveSetBusColIntHandler 08AA  
                                  _T0CON0bits 00031A                                  _I2C1CON0bits 000294  
                                _I2C1CON1bits 000295                                      __pivt0x8 0008  
                                    __ptext10 0864                                      __ptext11 067A  
                                    __ptext20 07F2                                      __ptext12 086E  
                                    __ptext21 0322                                      __ptext13 06BE  
                                  _T1GCONbits 000315                                      __ptext30 08B4  
                                    __ptext22 0882                                      __ptext14 0878  
                                    __ptext31 0806                                      __ptext23 0508  
                                    __ptext15 0784                                      __ptext40 05A4  
                                    __ptext32 083E                                      __ptext24 088C  
                                    __ptext16 02B4                                      __ptext41 05EC  
                                    __ptext33 03F4                                      __ptext25 0896  
                                    __ptext17 07A0                                      __ptext42 0000  
                                    __ptext34 07D8                                      __ptext26 081A  
                                    __ptext18 055A                                      __ptext35 0454  
                                    __ptext27 082C                                      __ptext19 07BC  
                                    __ptext36 072C                                      __ptext28 08A0  
                                    __ptext37 0634                                      __ptext29 08AA  
                                    __ptext38 00C0                                      __ptext39 08C4  
                                  _U1CON0bits 0002AB                 __end_of_UART1_SetErrorHandler 086E  
        __end_of_I2C1_SlaveSetWriteIntHandler 0896                  _I2C1_SlaveSetWriteIntHandler 088C  
              ??_I2C1_SlaveSetWrColIntHandler 0527          __end_of_TMR0_DefaultInterruptHandler 07F2  
                _TMR0_DefaultInterruptHandler 07D8                                   _IVTLOCKbits 000459  
                   _UART1_OverrunErrorHandler 0536                     _ADCC_ADI_InterruptHandler 052A  
UART1_SetOverrunErrorHandler@interruptHandler 0525                                      isa$xinst 000000  
                  ?_UART1_DefaultErrorHandler 0519                             ??_TMR1_WriteTimer 0522  
                              ??_acquire_sync 0525                                 ??_Default_ISR 0519  
              ??_UART1_SetFramingErrorHandler 0527                        ??_INTERRUPT_Initialize 0525  
        __end_of_ADCC_DefaultInterruptHandler 0634                  _ADCC_DefaultInterruptHandler 05EC  
                                    intlevel1 0000                                      intlevel2 0000  
                     ?_PIN_MANAGER_Initialize 0519               fp__TMR0_DefaultInterruptHandler 0000  
               ?_TMR0_DefaultInterruptHandler 0519                                    _UART1_Read 0198  
         I2C1_SlaveSetWriteIntHandler@handler 0525  UART1_SetFramingErrorHandler@interruptHandler 0525  
           __end_of_UART1_DefaultErrorHandler 08C4                                _Ji2c_registers 0560  
                      _I2C1_SlaveSetSlaveAddr 082C                               _TMR0_Initialize 06BE  
                      _I2C1_SlaveSetSlaveMask 081A                           __end_of_Default_ISR 08C6  
              __end_of_PIN_MANAGER_Initialize 0322                             ??_ADCC_Initialize 0527  
             fp__ADCC_DefaultInterruptHandler 0000                 ?_ADCC_DefaultInterruptHandler 0519  
                             _TMR1_Initialize 067A                                    _Ji2c_state 0512  
