

Microchip MPLAB XC8 Assembler V2.35 build 20211206165544 
                                                                                               Fri Jul 29 21:29:30 2022

Microchip MPLAB XC8 C Compiler v2.35 (Free license) build 20211206165544 Og1 
     1                           	processor	18F16Q40
     2                           	fnconf	rparam,??,?,0
     3                           	pagewidth 120
     4                           	opt	flic
     5                           	psect	cinit,global,reloc=2,class=CODE,delta=1
     6                           	psect	bssCOMRAM,global,class=COMRAM,space=1,delta=1,lowdata,noexec
     7                           	psect	bssBANK5,global,class=BANK5,space=1,delta=1,lowdata,noexec
     8                           	psect	cstackCOMRAM,global,class=COMRAM,space=1,delta=1,lowdata,noexec
     9                           	psect	text0,global,reloc=2,class=CODE,delta=1
    10                           	psect	text1,global,reloc=2,class=CODE,delta=1
    11                           	psect	text2,global,reloc=2,class=CODE,delta=1
    12                           	psect	text3,global,reloc=2,class=CODE,delta=1
    13                           	psect	text4,global,reloc=2,class=CODE,delta=1
    14                           	psect	text5,global,reloc=2,class=CODE,delta=1,inline
    15                           	psect	text6,global,reloc=2,class=CODE,delta=1,inline
    16                           	psect	text7,global,reloc=2,class=CODE,delta=1,inline
    17                           	psect	text8,global,reloc=2,class=CODE,delta=1
    18                           	psect	text9,global,reloc=2,class=CODE,delta=1
    19                           	psect	text10,global,reloc=2,class=CODE,delta=1,inline
    20                           	psect	text11,global,reloc=2,class=CODE,delta=1,inline
    21                           	psect	text12,global,reloc=2,class=CODE,delta=1,inline
    22                           	psect	text13,global,reloc=2,class=CODE,delta=1,inline
    23                           	psect	text14,global,reloc=2,class=CODE,delta=1,inline
    24                           	psect	text15,global,reloc=2,class=CODE,delta=1,inline
    25                           	psect	text16,global,reloc=2,class=CODE,delta=1,inline
    26                           	psect	text17,global,reloc=2,class=CODE,delta=1,inline
    27                           	psect	text18,global,reloc=2,class=CODE,delta=1
    28                           	psect	text19,global,reloc=2,class=CODE,delta=1
    29                           	psect	text20,global,reloc=2,class=CODE,delta=1,inline
    30                           	psect	ivt0x8,global,reloc=2,class=CODE,delta=1,noexec,keep,optim=
    31                           	psect	intsave_regs,global,class=BIGRAM,space=1,delta=1,noexec
    32                           	psect	text21,global,reloc=2,class=CODE,delta=1,inline
    33                           	psect	rparam,global,class=COMRAM,space=1,delta=1,noexec
    34                           	psect	idloc,global,abs,ovrld,class=IDLOC,space=5,delta=1,noexec
    35                           	psect	config,global,abs,ovrld,class=CONFIG,space=4,delta=1,noexec
    36  0000                     
    37                           ; Version 2.32
    38                           ; Generated 10/02/2021 GMT
    39                           ; 
    40                           ; Copyright © 2021, Microchip Technology Inc. and its subsidiaries ("Microchip")
    41                           ; All rights reserved.
    42                           ; 
    43                           ; This software is developed by Microchip Technology Inc. and its subsidiaries ("Microch
      +                          ip").
    44                           ; 
    45                           ; Redistribution and use in source and binary forms, with or without modification, are
    46                           ; permitted provided that the following conditions are met:
    47                           ; 
    48                           ;     1. Redistributions of source code must retain the above copyright notice, this lis
      +                          t of
    49                           ;        conditions and the following disclaimer.
    50                           ; 
    51                           ;     2. Redistributions in binary form must reproduce the above copyright notice, this 
      +                          list
    52                           ;        of conditions and the following disclaimer in the documentation and/or other
    53                           ;        materials provided with the distribution. Publication is not required when
    54                           ;        this file is used in an embedded application.
    55                           ; 
    56                           ;     3. Microchip's name may not be used to endorse or promote products derived from th
      +                          is
    57                           ;        software without specific prior written permission.
    58                           ; 
    59                           ; THIS SOFTWARE IS PROVIDED BY MICROCHIP "AS IS" AND ANY EXPRESS OR IMPLIED WARRANTIES,
    60                           ; INCLUDING, BUT NOT LIMITED TO, THE IMPLIED WARRANTIES OF MERCHANTABILITY AND FITNESS F
      +                          OR
    61                           ; PURPOSE ARE DISCLAIMED.  IN NO EVENT SHALL MICROCHIP BE LIABLE FOR ANY DIRECT, INDIREC
      +                          T,
    62                           ; INCIDENTAL, SPECIAL, EXEMPLARY, OR CONSEQUENTIAL DAMAGES (INCLUDING BUT NOT LIMITED TO
    63                           ; PROCUREMENT OF SUBSTITUTE GOODS OR SERVICES; LOSS OF USE, DATA OR PROFITS; OR BUSINESS
    64                           ; INTERRUPTION) HOWSOEVER CAUSED AND ON ANY THEORY OF LIABILITY, WHETHER IN CONTRACT, ST
      +                          RICT
    65                           ; LIABILITY, OR TORT (INCLUDING NEGLIGENCE OR OTHERWISE) ARISING IN ANY WAY OUT OF THE U
      +                          SE OF
    66                           ; THIS SOFTWARE, EVEN IF ADVISED OF THE POSSIBILITY OF SUCH DAMAGE.
    67                           ; 
    68                           ; 
    69                           ; Code-generator required, PIC18F16Q40 Definitions
    70                           ; 
    71                           ; SFR Addresses
    72  0000                     
    73 ;; Function _I2C1_SlaveDefWrColInterruptHandler is unused but had its address taken
    74  0000                     
    75 ;; Function _I2C1_SlaveDefBusColInterruptHandler is unused but had its address taken
    76  0000                     _ADERRL	set	989
    77  0000                     _ADERRH	set	990
    78  0000                     _ADPREVL	set	1000
    79  0000                     _ADPREVH	set	1001
    80  0000                     _ADFLTRL	set	993
    81  0000                     _ADFLTRH	set	994
    82  0000                     _ADACCL	set	995
    83  0000                     _ADACCH	set	996
    84  0000                     _ADCNT	set	998
    85  0000                     _ADRESL	set	1002
    86  0000                     _ADRESH	set	1003
    87  0000                     _ADCON0	set	1011
    88  0000                     _ADCON1	set	1012
    89  0000                     _ADPREH	set	1010
    90  0000                     _ADPREL	set	1009
    91  0000                     _ADCAP	set	1008
    92  0000                     _ADACQH	set	1007
    93  0000                     _ADPCH	set	1004
    94  0000                     _ADRPT	set	999
    95  0000                     _ADACCU	set	997
    96  0000                     _ADSTPTH	set	992
    97  0000                     _ADSTPTL	set	991
    98  0000                     _ADUTHH	set	988
    99  0000                     _ADUTHL	set	987
   100  0000                     _ADLTHH	set	986
   101  0000                     _I2C1ERRbits	set	663
   102  0000                     _I2C1STAT0bits	set	664
   103  0000                     _I2C1ADR3	set	659
   104  0000                     _I2C1ADR1	set	657
   105  0000                     _I2C1ADR2	set	658
   106  0000                     _I2C1STAT1bits	set	665
   107  0000                     _I2C1PIR	set	666
   108  0000                     _I2C1BAUD	set	669
   109  0000                     _I2C1CON2	set	662
   110  0000                     _I2C1CON1	set	661
   111  0000                     _OSCTUNE	set	176
   112  0000                     _OSCFRQ	set	177
   113  0000                     _OSCEN	set	179
   114  0000                     _I2C1CON1bits	set	661
   115  0000                     _I2C1PIRbits	set	666
   116  0000                     _I2C1CON0bits	set	660
   117  0000                     _ADCON1bits	set	1012
   118  0000                     _ADSTATbits	set	1015
   119  0000                     _ADCON2bits	set	1013
   120  0000                     _ADCON3bits	set	1014
   121  0000                     _ADCON0bits	set	1011
   122  0000                     _LATCbits	set	1216
   123  0000                     _TRISCbits	set	1224
   124  0000                     _PMD0	set	99
   125  0000                     _ACTCON	set	172
   126  0000                     _OSCCON1	set	173
   127  0000                     _OSCCON3	set	175
   128  0000                     _RC3PPS	set	532
   129  0000                     _I2C1SDAPPS	set	624
   130  0000                     _I2C1RXB	set	650
   131  0000                     _I2C1TXB	set	651
   132  0000                     _I2C1CNTL	set	652
   133  0000                     _I2C1CON0	set	660
   134  0000                     _PMD5	set	104
   135  0000                     _PMD4	set	103
   136  0000                     _PMD3	set	102
   137  0000                     _PMD2	set	101
   138  0000                     _PMD1	set	100
   139  0000                     _I2C1ADB0	set	654
   140  0000                     _I2C1ADR0	set	656
   141  0000                     _I2C1CNTH	set	653
   142  0000                     _ADLTHL	set	985
   143  0000                     _ANSELA	set	1024
   144  0000                     _ANSELB	set	1032
   145  0000                     _ANSELC	set	1040
   146  0000                     _PIE7bits	set	1199
   147  0000                     _I2C1PIEbits	set	667
   148  0000                     _PIR7bits	set	1210
   149  0000                     _LATA	set	1214
   150  0000                     _TRISA	set	1222
   151  0000                     _LATC	set	1216
   152  0000                     _LATB	set	1215
   153  0000                     _INTCON0bits	set	1238
   154  0000                     _TRISC	set	1224
   155  0000                     _TRISB	set	1223
   156  0000                     _INLVLC	set	1044
   157  0000                     _SLRCONC	set	1043
   158  0000                     _ODCONC	set	1042
   159  0000                     _WPUC	set	1041
   160  0000                     _INLVLB	set	1036
   161  0000                     _SLRCONB	set	1035
   162  0000                     _ODCONB	set	1034
   163  0000                     _WPUB	set	1033
   164  0000                     _INLVLA	set	1028
   165  0000                     _SLRCONA	set	1027
   166  0000                     _ODCONA	set	1026
   167  0000                     _WPUA	set	1025
   168  0000                     _I2C1SCLPPS	set	625
   169  0000                     _RC6PPS	set	535
   170  0000                     _ADACQL	set	1006
   171  0000                     _ADCLK	set	1018
   172  0000                     _ADACT	set	1017
   173  0000                     _ADREF	set	1016
   174  0000                     _ADSTAT	set	1015
   175  0000                     _ADCON3	set	1014
   176  0000                     _ADCON2	set	1013
   177                           
   178                           ; #config settings
   179                           
   180                           	psect	cinit
   181  000304                     __pcinit:
   182                           	callstack 0
   183  000304                     start_initialization:
   184                           	callstack 0
   185  000304                     __initialization:
   186                           	callstack 0
   187                           
   188                           ; Clear objects allocated to BANK5 (128 bytes)
   189  000304  EE01  F160         	lfsr	0,__pbssBANK5
   190  000308  0E80               	movlw	128
   191  00030A                     clear_0:
   192  00030A  6AEE               	clrf	postinc0,c
   193  00030C  06E8               	decf	wreg,f,c
   194  00030E  E1FD               	bnz	clear_0
   195                           
   196                           ; Clear objects allocated to COMRAM (19 bytes)
   197  000310  EE01  F101         	lfsr	0,__pbssCOMRAM
   198  000314  0E13               	movlw	19
   199  000316                     clear_1:
   200  000316  6AEE               	clrf	postinc0,c
   201  000318  06E8               	decf	wreg,f,c
   202  00031A  E1FD               	bnz	clear_1
   203                           
   204                           ;
   205                           ; Setup IVTBASE
   206                           ;
   207  00031C  0104               	movlb	4
   208  00031E  0E08               	movlw	(ivt0x8_base shr 0)& (0+255)
   209  000320  6F5D               	movwf	93,b
   210  000322  0E00               	movlw	(ivt0x8_base shr (0+8))& (0+255)
   211  000324  6F5E               	movwf	94,b
   212  000326  0E00               	movlw	(ivt0x8_base shr (0+16))& (0+255)
   213  000328  6F5F               	movwf	95,b
   214  00032A                     end_of_initialization:
   215                           	callstack 0
   216  00032A                     __end_of__initialization:
   217                           	callstack 0
   218  00032A  0E00               	movlw	low (__Lmediumconst shr (0+16))
   219  00032C  6EF8               	movwf	tblptru,c
   220  00032E  0100               	movlb	0
   221  000330  EFAA  F000         	goto	_main	;jump to C main() function
   222                           
   223                           	psect	bssCOMRAM
   224  000501                     __pbssCOMRAM:
   225                           	callstack 0
   226  000501                     _I2C1_SlaveWrColInterruptHandler:
   227                           	callstack 0
   228  000501                     	ds	2
   229  000503                     _I2C1_SlaveBusColInterruptHandler:
   230                           	callstack 0
   231  000503                     	ds	2
   232  000505                     _I2C1_SlaveAddrInterruptHandler:
   233                           	callstack 0
   234  000505                     	ds	2
   235  000507                     _I2C1_SlaveWrInterruptHandler:
   236                           	callstack 0
   237  000507                     	ds	2
   238  000509                     _I2C1_SlaveRdInterruptHandler:
   239                           	callstack 0
   240  000509                     	ds	2
   241  00050B                     _I2C1_InterruptHandler:
   242                           	callstack 0
   243  00050B                     	ds	2
   244  00050D                     _databyte:
   245                           	callstack 0
   246  00050D                     	ds	1
   247  00050E                     _Jaccess_reg:
   248                           	callstack 0
   249  00050E                     	ds	1
   250  00050F                     _Ji2c_state:
   251                           	callstack 0
   252  00050F                     	ds	1
   253  000510                     _i2c1SlaveState:
   254                           	callstack 0
   255  000510                     	ds	1
   256  000511                     _i2c1SlaveAddr:
   257                           	callstack 0
   258  000511                     	ds	1
   259  000512                     _i2c1RdData:
   260                           	callstack 0
   261  000512                     	ds	1
   262  000513                     _i2c1WrData:
   263                           	callstack 0
   264  000513                     	ds	1
   265                           
   266                           	psect	bssBANK5
   267  000560                     __pbssBANK5:
   268                           	callstack 0
   269  000560                     _Ji2c_registers:
   270                           	callstack 0
   271  000560                     	ds	128
   272                           
   273                           	psect	cstackCOMRAM
   274  000514                     __pcstackCOMRAM:
   275                           	callstack 0
   276  000514                     I2C1_SlaveSetCounter@counter:
   277                           	callstack 0
   278  000514                     I2C1_SlaveSendTxData@data:
   279                           	callstack 0
   280                           
   281                           ; 1 bytes @ 0x0
   282  000514                     	ds	1
   283  000515                     ??_I2C1_Isr:
   284  000515                     
   285                           ; 1 bytes @ 0x1
   286  000515                     	ds	2
   287  000517                     ??_INTERRUPT_InterruptManager:
   288                           
   289                           ; 1 bytes @ 0x3
   290  000517                     	ds	2
   291  000519                     main@i:
   292                           	callstack 0
   293                           
   294                           ; 4 bytes @ 0x5
   295  000519                     	ds	4
   296  00051D                     main@i_1288:
   297                           	callstack 0
   298                           
   299                           ; 4 bytes @ 0x9
   300  00051D                     	ds	4
   301                           
   302 ;;
   303 ;;Main: autosize = 0, tempsize = 0, incstack = 0, save=0
   304 ;;
   305 ;; *************** function _main *****************
   306 ;; Defined at:
   307 ;;		line 49 in file "main.c"
   308 ;; Parameters:    Size  Location     Type
   309 ;;		None
   310 ;; Auto vars:     Size  Location     Type
   311 ;;  i               4    9[COMRAM] volatile unsigned long 
   312 ;;  i               4    5[COMRAM] volatile unsigned long 
   313 ;; Return value:  Size  Location     Type
   314 ;;                  1    wreg      void 
   315 ;; Registers used:
   316 ;;		wreg, status,2, status,0
   317 ;; Tracked objects:
   318 ;;		On entry : 0/0
   319 ;;		On exit  : 0/0
   320 ;;		Unchanged: 0/0
   321 ;; Data sizes:     COMRAM   BANK5   BANK6   BANK7   BANK8   BANK9  BANK10  BANK11  BANK12  BANK13  BANK14  BANK15  BANK1
      +6  BANK17  BANK18  BANK19  BANK20  BANK21
   322 ;;      Params:         0       0       0       0       0       0       0       0       0       0       0       0       
      +0       0       0       0       0       0
   323 ;;      Locals:         8       0       0       0       0       0       0       0       0       0       0       0       
      +0       0       0       0       0       0
   324 ;;      Temps:          0       0       0       0       0       0       0       0       0       0       0       0       
      +0       0       0       0       0       0
   325 ;;      Totals:         8       0       0       0       0       0       0       0       0       0       0       0       
      +0       0       0       0       0       0
   326 ;;Total ram usage:        8 bytes
   327 ;; Hardware stack levels required when called: 5
   328 ;; This function calls:
   329 ;;		Nothing
   330 ;; This function is called by:
   331 ;;		Startup code after reset
   332 ;; This function uses a non-reentrant model
   333 ;;
   334                           
   335                           	psect	text0
   336  000154                     __ptext0:
   337                           	callstack 0
   338  000154                     _main:
   339                           	callstack 123
   340  000154                     
   341                           ;main.c: 64:     TRISCbits.TRISC3 = 0;
   342  000154  96C8               	bcf	200,3,c	;volatile
   343                           
   344                           ;main.c: 65:     TRISCbits.TRISC4 = 0;
   345  000156  98C8               	bcf	200,4,c	;volatile
   346  000158                     l652:
   347                           
   348                           ;main.c: 68:     {;main.c: 69:         LATCbits.LATC3 = 1;
   349  000158  86C0               	bsf	192,3,c	;volatile
   350                           
   351                           ;main.c: 70:         LATCbits.LATC4 = 0;
   352  00015A  98C0               	bcf	192,4,c	;volatile
   353  00015C                     
   354                           ;main.c: 71:         for (volatile uint32_t i = 0; i < 50000; i++) __nop();
   355  00015C  0E00               	movlw	0
   356  00015E  6E19               	movwf	main@i^(0+1280),c	;volatile
   357  000160  0E00               	movlw	0
   358  000162  6E1A               	movwf	(main@i+1)^(0+1280),c	;volatile
   359  000164  0E00               	movlw	0
   360  000166  6E1B               	movwf	(main@i+2)^(0+1280),c	;volatile
   361  000168  0E00               	movlw	0
   362  00016A  6E1C               	movwf	(main@i+3)^(0+1280),c	;volatile
   363  00016C  501C               	movf	(main@i+3)^(0+1280),w,c	;volatile
   364  00016E  101B               	iorwf	(main@i+2)^(0+1280),w,c	;volatile
   365  000170  E10B               	bnz	u360
   366  000172  0E50               	movlw	80
   367  000174  5C19               	subwf	main@i^(0+1280),w,c	;volatile
   368  000176  0EC3               	movlw	195
   369  000178  581A               	subwfb	(main@i+1)^(0+1280),w,c	;volatile
   370  00017A  A0D8               	btfss	status,0,c
   371  00017C  EFC2  F000         	goto	u361
   372  000180  EFC4  F000         	goto	u360
   373  000184                     u361:
   374  000184  EFC6  F000         	goto	l653
   375  000188                     u360:
   376  000188  EFDB  F000         	goto	l654
   377  00018C                     l653:
   378  00018C  F000               	nop	
   379  00018E  0E01               	movlw	1
   380  000190  2619               	addwf	main@i^(0+1280),f,c	;volatile
   381  000192  0E00               	movlw	0
   382  000194  221A               	addwfc	(main@i+1)^(0+1280),f,c	;volatile
   383  000196  221B               	addwfc	(main@i+2)^(0+1280),f,c	;volatile
   384  000198  221C               	addwfc	(main@i+3)^(0+1280),f,c	;volatile
   385  00019A  501C               	movf	(main@i+3)^(0+1280),w,c	;volatile
   386  00019C  101B               	iorwf	(main@i+2)^(0+1280),w,c	;volatile
   387  00019E  E10B               	bnz	u370
   388  0001A0  0E50               	movlw	80
   389  0001A2  5C19               	subwf	main@i^(0+1280),w,c	;volatile
   390  0001A4  0EC3               	movlw	195
   391  0001A6  581A               	subwfb	(main@i+1)^(0+1280),w,c	;volatile
   392  0001A8  A0D8               	btfss	status,0,c
   393  0001AA  EFD9  F000         	goto	u371
   394  0001AE  EFDB  F000         	goto	u370
   395  0001B2                     u371:
   396  0001B2  EFC6  F000         	goto	l653
   397  0001B6                     u370:
   398  0001B6                     l654:
   399                           
   400                           ;main.c: 72:         LATCbits.LATC3 = 0;
   401  0001B6  96C0               	bcf	192,3,c	;volatile
   402                           
   403                           ;main.c: 73:         LATCbits.LATC4 = 1;
   404  0001B8  88C0               	bsf	192,4,c	;volatile
   405  0001BA                     
   406                           ;main.c: 74:         for (volatile uint32_t i = 0; i < 50000; i++) __nop();
   407  0001BA  0E00               	movlw	0
   408  0001BC  6E1D               	movwf	main@i_1288^(0+1280),c	;volatile
   409  0001BE  0E00               	movlw	0
   410  0001C0  6E1E               	movwf	(main@i_1288+1)^(0+1280),c	;volatile
   411  0001C2  0E00               	movlw	0
   412  0001C4  6E1F               	movwf	(main@i_1288+2)^(0+1280),c	;volatile
   413  0001C6  0E00               	movlw	0
   414  0001C8  6E20               	movwf	(main@i_1288+3)^(0+1280),c	;volatile
   415  0001CA  5020               	movf	(main@i_1288+3)^(0+1280),w,c	;volatile
   416  0001CC  101F               	iorwf	(main@i_1288+2)^(0+1280),w,c	;volatile
   417  0001CE  E10B               	bnz	u380
   418  0001D0  0E50               	movlw	80
   419  0001D2  5C1D               	subwf	main@i_1288^(0+1280),w,c	;volatile
   420  0001D4  0EC3               	movlw	195
   421  0001D6  581E               	subwfb	(main@i_1288+1)^(0+1280),w,c	;volatile
   422  0001D8  A0D8               	btfss	status,0,c
   423  0001DA  EFF1  F000         	goto	u381
   424  0001DE  EFF3  F000         	goto	u380
   425  0001E2                     u381:
   426  0001E2  EFF5  F000         	goto	l655
   427  0001E6                     u380:
   428  0001E6  EFAC  F000         	goto	l652
   429  0001EA                     l655:
   430  0001EA  F000               	nop	
   431  0001EC  0E01               	movlw	1
   432  0001EE  261D               	addwf	main@i_1288^(0+1280),f,c	;volatile
   433  0001F0  0E00               	movlw	0
   434  0001F2  221E               	addwfc	(main@i_1288+1)^(0+1280),f,c	;volatile
   435  0001F4  221F               	addwfc	(main@i_1288+2)^(0+1280),f,c	;volatile
   436  0001F6  2220               	addwfc	(main@i_1288+3)^(0+1280),f,c	;volatile
   437  0001F8  5020               	movf	(main@i_1288+3)^(0+1280),w,c	;volatile
   438  0001FA  101F               	iorwf	(main@i_1288+2)^(0+1280),w,c	;volatile
   439  0001FC  E10B               	bnz	u390
   440  0001FE  0E50               	movlw	80
   441  000200  5C1D               	subwf	main@i_1288^(0+1280),w,c	;volatile
   442  000202  0EC3               	movlw	195
   443  000204  581E               	subwfb	(main@i_1288+1)^(0+1280),w,c	;volatile
   444  000206  A0D8               	btfss	status,0,c
   445  000208  EF08  F001         	goto	u391
   446  00020C  EF0A  F001         	goto	u390
   447  000210                     u391:
   448  000210  EFF5  F000         	goto	l655
   449  000214                     u390:
   450  000214  EFAC  F000         	goto	l652
   451  000218  EF0D  F000         	goto	start
   452  00021C                     __end_of_main:
   453                           	callstack 0
   454                           
   455 ;; *************** function _INTERRUPT_InterruptManager *****************
   456 ;; Defined at:
   457 ;;		line 58 in file "mcc_generated_files/interrupt_manager.c"
   458 ;; Parameters:    Size  Location     Type
   459 ;;		None
   460 ;; Auto vars:     Size  Location     Type
   461 ;;		None
   462 ;; Return value:  Size  Location     Type
   463 ;;                  1    wreg      void 
   464 ;; Registers used:
   465 ;;		wreg, fsr2l, fsr2h, status,2, status,0, pcl, pclath, pclatu, tosl, cstack
   466 ;; Tracked objects:
   467 ;;		On entry : 0/0
   468 ;;		On exit  : 0/0
   469 ;;		Unchanged: 0/0
   470 ;; Data sizes:     COMRAM   BANK5   BANK6   BANK7   BANK8   BANK9  BANK10  BANK11  BANK12  BANK13  BANK14  BANK15  BANK1
      +6  BANK17  BANK18  BANK19  BANK20  BANK21
   471 ;;      Params:         0       0       0       0       0       0       0       0       0       0       0       0       
      +0       0       0       0       0       0
   472 ;;      Locals:         0       0       0       0       0       0       0       0       0       0       0       0       
      +0       0       0       0       0       0
   473 ;;      Temps:          2       0       0       0       0       0       0       0       0       0       0       0       
      +0       0       0       0       0       0
   474 ;;      Totals:         2       0       0       0       0       0       0       0       0       0       0       0       
      +0       0       0       0       0       0
   475 ;;Total ram usage:        2 bytes
   476 ;; Hardware stack levels used: 1
   477 ;; Hardware stack levels required when called: 4
   478 ;; This function calls:
   479 ;;		Absolute function
   480 ;;		_I2C1_Isr
   481 ;; This function is called by:
   482 ;;		Interrupt level 2
   483 ;; This function uses a non-reentrant model
   484 ;;
   485                           
   486                           	psect	text1
   487  00021C                     __ptext1:
   488                           	callstack 0
   489  00021C                     _INTERRUPT_InterruptManager:
   490                           	callstack 123
   491                           
   492                           ;incstack = 0
   493  00021C  0061 F3E8  F517    	movff	pclath,??_INTERRUPT_InterruptManager
   494  000222  0061 F3EC  F518    	movff	pclatu,??_INTERRUPT_InterruptManager+1
   495  000228                     
   496                           ;mcc_generated_files/interrupt_manager.c: 61:     if(PIE7bits.I2C1EIE == 1 && PIR7bits.I
      +                          2C1EIF == 1)
   497  000228  A6AF               	btfss	175,3,c	;volatile
   498  00022A  EF19  F001         	goto	i2u26_41
   499  00022E  EF1B  F001         	goto	i2u26_40
   500  000232                     i2u26_41:
   501  000232  EF31  F001         	goto	i2l461
   502  000236                     i2u26_40:
   503  000236  A6BA               	btfss	186,3,c	;volatile
   504  000238  EF20  F001         	goto	i2u27_41
   505  00023C  EF22  F001         	goto	i2u27_40
   506  000240                     i2u27_41:
   507  000240  EF31  F001         	goto	i2l461
   508  000244                     i2u27_40:
   509  000244                     i2l1569:
   510                           
   511                           ;mcc_generated_files/interrupt_manager.c: 62:     {;mcc_generated_files/interrupt_manage
      +                          r.c: 63:         I2C1_InterruptHandler();
   512  000244  D802               	call	i2u28_48
   513  000246  EF2F  F001         	goto	i2u28_49
   514  00024A                     i2u28_48:
   515  00024A  0005               	push	
   516  00024C  6EFA               	movwf	pclath,c
   517  00024E  500B               	movf	_I2C1_InterruptHandler^(0+1280),w,c
   518  000250  6EFD               	movwf	tosl,c
   519  000252  500C               	movf	(_I2C1_InterruptHandler+1)^(0+1280),w,c
   520  000254  6EFE               	movwf	tosh,c
   521  000256  50F8               	movf	tblptru,w,c
   522  000258  6EFF               	movwf	tosu,c
   523  00025A  50FA               	movf	pclath,w,c
   524  00025C  0012               	return		;indir
   525  00025E                     i2u28_49:
   526                           
   527                           ;mcc_generated_files/interrupt_manager.c: 64:     }
   528  00025E  EF61  F001         	goto	i2l469
   529  000262                     i2l461:
   530  000262  A0AF               	btfss	175,0,c	;volatile
   531  000264  EF36  F001         	goto	i2u29_41
   532  000268  EF38  F001         	goto	i2u29_40
   533  00026C                     i2u29_41:
   534  00026C  EF41  F001         	goto	i2l463
   535  000270                     i2u29_40:
   536  000270  A0BA               	btfss	186,0,c	;volatile
   537  000272  EF3D  F001         	goto	i2u30_41
   538  000276  EF3F  F001         	goto	i2u30_40
   539  00027A                     i2u30_41:
   540  00027A  EF41  F001         	goto	i2l463
   541  00027E                     i2u30_40:
   542  00027E  EF22  F001         	goto	i2l1569
   543  000282                     i2l463:
   544  000282  A4AF               	btfss	175,2,c	;volatile
   545  000284  EF46  F001         	goto	i2u31_41
   546  000288  EF48  F001         	goto	i2u31_40
   547  00028C                     i2u31_41:
   548  00028C  EF51  F001         	goto	i2l465
   549  000290                     i2u31_40:
   550  000290  A4BA               	btfss	186,2,c	;volatile
   551  000292  EF4D  F001         	goto	i2u32_41
   552  000296  EF4F  F001         	goto	i2u32_40
   553  00029A                     i2u32_41:
   554  00029A  EF51  F001         	goto	i2l465
   555  00029E                     i2u32_40:
   556  00029E  EF22  F001         	goto	i2l1569
   557  0002A2                     i2l465:
   558  0002A2  A2AF               	btfss	175,1,c	;volatile
   559  0002A4  EF56  F001         	goto	i2u33_41
   560  0002A8  EF58  F001         	goto	i2u33_40
   561  0002AC                     i2u33_41:
   562  0002AC  EF61  F001         	goto	i2l464
   563  0002B0                     i2u33_40:
   564  0002B0  A2BA               	btfss	186,1,c	;volatile
   565  0002B2  EF5D  F001         	goto	i2u34_41
   566  0002B6  EF5F  F001         	goto	i2u34_40
   567  0002BA                     i2u34_41:
   568  0002BA  EF61  F001         	goto	i2l464
   569  0002BE                     i2u34_40:
   570  0002BE  EF22  F001         	goto	i2l1569
   571  0002C2                     i2l464:
   572  0002C2                     i2l469:
   573  0002C2  0061  F460  F4FB   	movff	??_INTERRUPT_InterruptManager+1,pclatu
   574  0002C8  0061  F45C  F4FA   	movff	??_INTERRUPT_InterruptManager,pclath
   575  0002CE  0011               	retfie		f
   576  0002D0                     __end_of_INTERRUPT_InterruptManager:
   577                           	callstack 0
   578                           
   579 ;; *************** function _I2C1_Isr *****************
   580 ;; Defined at:
   581 ;;		line 185 in file "mcc_generated_files/i2c1_slave.c"
   582 ;; Parameters:    Size  Location     Type
   583 ;;		None
   584 ;; Auto vars:     Size  Location     Type
   585 ;;		None
   586 ;; Return value:  Size  Location     Type
   587 ;;                  1    wreg      void 
   588 ;; Registers used:
   589 ;;		wreg, fsr2l, fsr2h, status,2, status,0, pcl, pclath, pclatu, tosl, cstack
   590 ;; Tracked objects:
   591 ;;		On entry : 0/0
   592 ;;		On exit  : 0/0
   593 ;;		Unchanged: 0/0
   594 ;; Data sizes:     COMRAM   BANK5   BANK6   BANK7   BANK8   BANK9  BANK10  BANK11  BANK12  BANK13  BANK14  BANK15  BANK1
      +6  BANK17  BANK18  BANK19  BANK20  BANK21
   595 ;;      Params:         0       0       0       0       0       0       0       0       0       0       0       0       
      +0       0       0       0       0       0
   596 ;;      Locals:         0       0       0       0       0       0       0       0       0       0       0       0       
      +0       0       0       0       0       0
   597 ;;      Temps:          2       0       0       0       0       0       0       0       0       0       0       0       
      +0       0       0       0       0       0
   598 ;;      Totals:         2       0       0       0       0       0       0       0       0       0       0       0       
      +0       0       0       0       0       0
   599 ;;Total ram usage:        2 bytes
   600 ;; Hardware stack levels used: 1
   601 ;; Hardware stack levels required when called: 3
   602 ;; This function calls:
   603 ;;		_I2C1_SlaveAddrCallBack
   604 ;;		_I2C1_SlaveClearBuff
   605 ;;		_I2C1_SlaveClearIrq
   606 ;;		_I2C1_SlaveIsAddr
   607 ;;		_I2C1_SlaveIsRead
   608 ;;		_I2C1_SlaveIsRxBufFull
   609 ;;		_I2C1_SlaveIsStop
   610 ;;		_I2C1_SlaveIsTxBufEmpty
   611 ;;		_I2C1_SlaveRdCallBack
   612 ;;		_I2C1_SlaveReleaseClock
   613 ;;		_I2C1_SlaveSetCounter
   614 ;;		_I2C1_SlaveWrCallBack
   615 ;; This function is called by:
   616 ;;		_I2C1_Open
   617 ;;		_INTERRUPT_InterruptManager
   618 ;; This function uses a non-reentrant model
   619 ;;
   620                           
   621                           	psect	text2
   622  00001E                     __ptext2:
   623                           	callstack 0
   624  00001E                     _I2C1_Isr:
   625                           	callstack 123
   626  00001E                     
   627                           ;mcc_generated_files/i2c1_slave.c: 187:     if(I2C1_SlaveIsStop())
   628  00001E  ECEA  F001         	call	_I2C1_SlaveIsStop	;wreg free
   629  000022  0900               	iorlw	0
   630  000024  B4D8               	btfsc	status,2,c
   631  000026  EF17  F000         	goto	i2u14_41
   632  00002A  EF19  F000         	goto	i2u14_40
   633  00002E                     i2u14_41:
   634  00002E  EF28  F000         	goto	i2l1415
   635  000032                     i2u14_40:
   636  000032                     
   637                           ;mcc_generated_files/i2c1_slave.c: 188:     {;mcc_generated_files/i2c1_slave.c: 189:    
      +                               I2C1_SlaveClearIrq();
   638  000032  EC2D  F002         	call	_I2C1_SlaveClearIrq	;wreg free
   639  000036                     
   640                           ;mcc_generated_files/i2c1_slave.c: 190:         I2C1_SlaveClearBuff();
   641  000036  EC3F  F002         	call	_I2C1_SlaveClearBuff	;wreg free
   642  00003A                     
   643                           ;mcc_generated_files/i2c1_slave.c: 191:         I2C1_SlaveSetCounter(0xFF);
   644  00003A  0EFF               	movlw	255
   645  00003C  EC20  F002         	call	_I2C1_SlaveSetCounter
   646                           
   647                           ;mcc_generated_files/i2c1_slave.c: 192:         I2C1_SlaveReleaseClock();
   648  000040  EC39  F002         	call	_I2C1_SlaveReleaseClock	;wreg free
   649  000044                     
   650                           ;mcc_generated_files/i2c1_slave.c: 193:         i2c1SlaveState = I2C1_IDLE;
   651  000044  0E00               	movlw	0
   652  000046  6E10               	movwf	_i2c1SlaveState^(0+1280),c	;volatile
   653  000048                     
   654                           ;mcc_generated_files/i2c1_slave.c: 196:         Ji2c_state = 0;
   655  000048  0E00               	movlw	0
   656  00004A  6E0F               	movwf	_Ji2c_state^(0+1280),c	;volatile
   657                           
   658                           ;mcc_generated_files/i2c1_slave.c: 197:     }
   659  00004C  EFA9  F000         	goto	i2l246
   660  000050                     i2l1415:
   661                           
   662                           ;mcc_generated_files/i2c1_slave.c: 199:     {;mcc_generated_files/i2c1_slave.c: 200:    
      +                               I2C1_SlaveClearIrq();
   663  000050  EC2D  F002         	call	_I2C1_SlaveClearIrq	;wreg free
   664                           
   665                           ;mcc_generated_files/i2c1_slave.c: 201:         if(I2C1_SlaveIsAddr())
   666  000054  EC0B  F002         	call	_I2C1_SlaveIsAddr	;wreg free
   667  000058  0900               	iorlw	0
   668  00005A  B4D8               	btfsc	status,2,c
   669  00005C  EF32  F000         	goto	i2u15_41
   670  000060  EF34  F000         	goto	i2u15_40
   671  000064                     i2u15_41:
   672  000064  EF46  F000         	goto	i2l1423
   673  000068                     i2u15_40:
   674  000068                     
   675                           ;mcc_generated_files/i2c1_slave.c: 202:         {;mcc_generated_files/i2c1_slave.c: 203:
      +                                       if(I2C1_SlaveIsRead())
   676  000068  EC00  F002         	call	_I2C1_SlaveIsRead	;wreg free
   677  00006C  0900               	iorlw	0
   678  00006E  B4D8               	btfsc	status,2,c
   679  000070  EF3C  F000         	goto	i2u16_41
   680  000074  EF3E  F000         	goto	i2u16_40
   681  000078                     i2u16_41:
   682  000078  EF42  F000         	goto	i2l1421
   683  00007C                     i2u16_40:
   684  00007C                     
   685                           ;mcc_generated_files/i2c1_slave.c: 204:             {;mcc_generated_files/i2c1_slave.c: 
      +                          205:                 i2c1SlaveState = I2C1_ADDR_TX;
   686  00007C  0E01               	movlw	1
   687  00007E  6E10               	movwf	_i2c1SlaveState^(0+1280),c	;volatile
   688                           
   689                           ;mcc_generated_files/i2c1_slave.c: 206:             }
   690  000080  EF8A  F000         	goto	i2l1451
   691  000084                     i2l1421:
   692                           
   693                           ;mcc_generated_files/i2c1_slave.c: 208:             {;mcc_generated_files/i2c1_slave.c: 
      +                          209:                 i2c1SlaveState = I2C1_ADDR_RX;
   694  000084  0E02               	movlw	2
   695  000086  6E10               	movwf	_i2c1SlaveState^(0+1280),c	;volatile
   696  000088  EF8A  F000         	goto	i2l1451
   697  00008C                     i2l1423:
   698                           
   699                           ;mcc_generated_files/i2c1_slave.c: 213:         {;mcc_generated_files/i2c1_slave.c: 214:
      +                                       if(I2C1_SlaveIsRead())
   700  00008C  EC00  F002         	call	_I2C1_SlaveIsRead	;wreg free
   701  000090  0900               	iorlw	0
   702  000092  B4D8               	btfsc	status,2,c
   703  000094  EF4E  F000         	goto	i2u17_41
   704  000098  EF50  F000         	goto	i2u17_40
   705  00009C                     i2u17_41:
   706  00009C  EF54  F000         	goto	i2l1427
   707  0000A0                     i2u17_40:
   708  0000A0                     
   709                           ;mcc_generated_files/i2c1_slave.c: 215:             {;mcc_generated_files/i2c1_slave.c: 
      +                          216:                 i2c1SlaveState = I2C1_DATA_TX;
   710  0000A0  0E03               	movlw	3
   711  0000A2  6E10               	movwf	_i2c1SlaveState^(0+1280),c	;volatile
   712                           
   713                           ;mcc_generated_files/i2c1_slave.c: 217:             }
   714  0000A4  EF8A  F000         	goto	i2l1451
   715  0000A8                     i2l1427:
   716                           
   717                           ;mcc_generated_files/i2c1_slave.c: 219:             {;mcc_generated_files/i2c1_slave.c: 
      +                          220:                 i2c1SlaveState = I2C1_DATA_RX;
   718  0000A8  0E04               	movlw	4
   719  0000AA  6E10               	movwf	_i2c1SlaveState^(0+1280),c	;volatile
   720  0000AC  EF8A  F000         	goto	i2l1451
   721  0000B0                     i2l1429:
   722                           
   723                           ;mcc_generated_files/i2c1_slave.c: 227:                 I2C1_SlaveAddrCallBack();
   724  0000B0  ECC8  F001         	call	_I2C1_SlaveAddrCallBack	;wreg free
   725  0000B4                     
   726                           ;mcc_generated_files/i2c1_slave.c: 228:                 I2C1_SlaveClearBuff();
   727  0000B4  EC3F  F002         	call	_I2C1_SlaveClearBuff	;wreg free
   728  0000B8                     
   729                           ;mcc_generated_files/i2c1_slave.c: 229:                 if(I2C1_SlaveIsTxBufEmpty())
   730  0000B8  ECDF  F001         	call	_I2C1_SlaveIsTxBufEmpty	;wreg free
   731  0000BC  0900               	iorlw	0
   732  0000BE  B4D8               	btfsc	status,2,c
   733  0000C0  EF64  F000         	goto	i2u18_41
   734  0000C4  EF66  F000         	goto	i2u18_40
   735  0000C8                     i2u18_41:
   736  0000C8  EFA7  F000         	goto	i2l1453
   737  0000CC                     i2u18_40:
   738  0000CC                     i2l1435:
   739                           
   740                           ;mcc_generated_files/i2c1_slave.c: 230:                 {;mcc_generated_files/i2c1_slave
      +                          .c: 231:                     I2C1_SlaveWrCallBack();
   741  0000CC  EC9A  F001         	call	_I2C1_SlaveWrCallBack	;wreg free
   742  0000D0  EFA7  F000         	goto	i2l1453
   743  0000D4                     i2l1437:
   744                           
   745                           ;mcc_generated_files/i2c1_slave.c: 235:                 I2C1_SlaveAddrCallBack();
   746  0000D4  ECC8  F001         	call	_I2C1_SlaveAddrCallBack	;wreg free
   747  0000D8                     
   748                           ;mcc_generated_files/i2c1_slave.c: 236:                 I2C1_SlaveClearBuff();
   749  0000D8  EC3F  F002         	call	_I2C1_SlaveClearBuff	;wreg free
   750                           
   751                           ;mcc_generated_files/i2c1_slave.c: 237:                 break;
   752  0000DC  EFA7  F000         	goto	i2l1453
   753  0000E0                     i2l1441:
   754                           
   755                           ;mcc_generated_files/i2c1_slave.c: 239:                 if(I2C1_SlaveIsTxBufEmpty())
   756  0000E0  ECDF  F001         	call	_I2C1_SlaveIsTxBufEmpty	;wreg free
   757  0000E4  0900               	iorlw	0
   758  0000E6  B4D8               	btfsc	status,2,c
   759  0000E8  EF78  F000         	goto	i2u19_41
   760  0000EC  EF7A  F000         	goto	i2u19_40
   761  0000F0                     i2u19_41:
   762  0000F0  EFA7  F000         	goto	i2l1453
   763  0000F4                     i2u19_40:
   764  0000F4  EF66  F000         	goto	i2l1435
   765  0000F8                     i2l1445:
   766                           
   767                           ;mcc_generated_files/i2c1_slave.c: 245:                 if(I2C1_SlaveIsRxBufFull())
   768  0000F8  ECF5  F001         	call	_I2C1_SlaveIsRxBufFull	;wreg free
   769  0000FC  0900               	iorlw	0
   770  0000FE  B4D8               	btfsc	status,2,c
   771  000100  EF84  F000         	goto	i2u20_41
   772  000104  EF86  F000         	goto	i2u20_40
   773  000108                     i2u20_41:
   774  000108  EFA7  F000         	goto	i2l1453
   775  00010C                     i2u20_40:
   776  00010C                     
   777                           ;mcc_generated_files/i2c1_slave.c: 246:                 {;mcc_generated_files/i2c1_slave
      +                          .c: 247:                     I2C1_SlaveRdCallBack();
   778  00010C  ECB1  F001         	call	_I2C1_SlaveRdCallBack	;wreg free
   779  000110  EFA7  F000         	goto	i2l1453
   780  000114                     i2l1451:
   781  000114  5010               	movf	_i2c1SlaveState^(0+1280),w,c	;volatile
   782  000116  6E15               	movwf	??_I2C1_Isr^(0+1280),c
   783  000118  6A16               	clrf	(??_I2C1_Isr+1)^(0+1280),c
   784                           
   785                           ; Switch on 2 bytes has been partitioned into a top level switch of size 1, and 1 sub-sw
      +                          itches
   786                           ; Switch size 1, requested type "simple"
   787                           ; Number of cases is 1, Range of values is 0 to 0
   788                           ; switch strategies available:
   789                           ; Name         Instructions Cycles
   790                           ; simple_byte            4     3 (average)
   791                           ;	Chosen strategy is simple_byte
   792  00011A  5016               	movf	(??_I2C1_Isr+1)^(0+1280),w,c
   793  00011C  0A00               	xorlw	0	; case 0
   794  00011E  B4D8               	btfsc	status,2,c
   795  000120  EF94  F000         	goto	i2l1715
   796  000124  EFA7  F000         	goto	i2l1453
   797  000128                     i2l1715:
   798                           
   799                           ; Switch size 1, requested type "simple"
   800                           ; Number of cases is 4, Range of values is 1 to 4
   801                           ; switch strategies available:
   802                           ; Name         Instructions Cycles
   803                           ; simple_byte           13     7 (average)
   804                           ;	Chosen strategy is simple_byte
   805  000128  5015               	movf	??_I2C1_Isr^(0+1280),w,c
   806  00012A  0A01               	xorlw	1	; case 1
   807  00012C  B4D8               	btfsc	status,2,c
   808  00012E  EF58  F000         	goto	i2l1429
   809  000132  0A03               	xorlw	3	; case 2
   810  000134  B4D8               	btfsc	status,2,c
   811  000136  EF6A  F000         	goto	i2l1437
   812  00013A  0A01               	xorlw	1	; case 3
   813  00013C  B4D8               	btfsc	status,2,c
   814  00013E  EF70  F000         	goto	i2l1441
   815  000142  0A07               	xorlw	7	; case 4
   816  000144  B4D8               	btfsc	status,2,c
   817  000146  EF7C  F000         	goto	i2l1445
   818  00014A  EFA7  F000         	goto	i2l1453
   819  00014E                     i2l1453:
   820                           
   821                           ;mcc_generated_files/i2c1_slave.c: 253:         I2C1_SlaveReleaseClock();
   822  00014E  EC39  F002         	call	_I2C1_SlaveReleaseClock	;wreg free
   823  000152                     i2l246:
   824  000152  0012               	return		;funcret
   825  000154                     __end_of_I2C1_Isr:
   826                           	callstack 0
   827                           
   828 ;; *************** function _I2C1_SlaveWrCallBack *****************
   829 ;; Defined at:
   830 ;;		line 302 in file "mcc_generated_files/i2c1_slave.c"
   831 ;; Parameters:    Size  Location     Type
   832 ;;		None
   833 ;; Auto vars:     Size  Location     Type
   834 ;;		None
   835 ;; Return value:  Size  Location     Type
   836 ;;                  1    wreg      void 
   837 ;; Registers used:
   838 ;;		wreg, fsr2l, fsr2h, status,2, status,0, pcl, pclath, pclatu, tosl, cstack
   839 ;; Tracked objects:
   840 ;;		On entry : 0/0
   841 ;;		On exit  : 0/0
   842 ;;		Unchanged: 0/0
   843 ;; Data sizes:     COMRAM   BANK5   BANK6   BANK7   BANK8   BANK9  BANK10  BANK11  BANK12  BANK13  BANK14  BANK15  BANK1
      +6  BANK17  BANK18  BANK19  BANK20  BANK21
   844 ;;      Params:         0       0       0       0       0       0       0       0       0       0       0       0       
      +0       0       0       0       0       0
   845 ;;      Locals:         0       0       0       0       0       0       0       0       0       0       0       0       
      +0       0       0       0       0       0
   846 ;;      Temps:          0       0       0       0       0       0       0       0       0       0       0       0       
      +0       0       0       0       0       0
   847 ;;      Totals:         0       0       0       0       0       0       0       0       0       0       0       0       
      +0       0       0       0       0       0
   848 ;;Total ram usage:        0 bytes
   849 ;; Hardware stack levels used: 1
   850 ;; Hardware stack levels required when called: 2
   851 ;; This function calls:
   852 ;;		Absolute function
   853 ;;		_I2C1_SlaveDefWrInterruptHandler
   854 ;; This function is called by:
   855 ;;		_I2C1_Isr
   856 ;; This function uses a non-reentrant model
   857 ;;
   858                           
   859                           	psect	text3
   860  000334                     __ptext3:
   861                           	callstack 0
   862  000334                     _I2C1_SlaveWrCallBack:
   863                           	callstack 123
   864  000334                     
   865                           ;mcc_generated_files/i2c1_slave.c: 304:     if (I2C1_SlaveWrInterruptHandler)
   866  000334  5007               	movf	_I2C1_SlaveWrInterruptHandler^(0+1280),w,c
   867  000336  1008               	iorwf	(_I2C1_SlaveWrInterruptHandler+1)^(0+1280),w,c
   868  000338  B4D8               	btfsc	status,2,c
   869  00033A  EFA1  F001         	goto	i2u9_41
   870  00033E  EFA3  F001         	goto	i2u9_40
   871  000342                     i2u9_41:
   872  000342  EFB0  F001         	goto	i2l270
   873  000346                     i2u9_40:
   874  000346                     
   875                           ;mcc_generated_files/i2c1_slave.c: 305:     {;mcc_generated_files/i2c1_slave.c: 306:    
      +                               I2C1_SlaveWrInterruptHandler();
   876  000346  D802               	call	i2u10_48
   877  000348  EFB0  F001         	goto	i2u10_49
   878  00034C                     i2u10_48:
   879  00034C  0005               	push	
   880  00034E  6EFA               	movwf	pclath,c
   881  000350  5007               	movf	_I2C1_SlaveWrInterruptHandler^(0+1280),w,c
   882  000352  6EFD               	movwf	tosl,c
   883  000354  5008               	movf	(_I2C1_SlaveWrInterruptHandler+1)^(0+1280),w,c
   884  000356  6EFE               	movwf	tosh,c
   885  000358  50F8               	movf	tblptru,w,c
   886  00035A  6EFF               	movwf	tosu,c
   887  00035C  50FA               	movf	pclath,w,c
   888  00035E  0012               	return		;indir
   889  000360                     i2u10_49:
   890  000360                     i2l270:
   891  000360  0012               	return		;funcret
   892  000362                     __end_of_I2C1_SlaveWrCallBack:
   893                           	callstack 0
   894                           
   895 ;; *************** function _I2C1_SlaveDefWrInterruptHandler *****************
   896 ;; Defined at:
   897 ;;		line 310 in file "mcc_generated_files/i2c1_slave.c"
   898 ;; Parameters:    Size  Location     Type
   899 ;;		None
   900 ;; Auto vars:     Size  Location     Type
   901 ;;		None
   902 ;; Return value:  Size  Location     Type
   903 ;;                  1    wreg      void 
   904 ;; Registers used:
   905 ;;		wreg, fsr2l, fsr2h, status,2, status,0, cstack
   906 ;; Tracked objects:
   907 ;;		On entry : 0/0
   908 ;;		On exit  : 0/0
   909 ;;		Unchanged: 0/0
   910 ;; Data sizes:     COMRAM   BANK5   BANK6   BANK7   BANK8   BANK9  BANK10  BANK11  BANK12  BANK13  BANK14  BANK15  BANK1
      +6  BANK17  BANK18  BANK19  BANK20  BANK21
   911 ;;      Params:         0       0       0       0       0       0       0       0       0       0       0       0       
      +0       0       0       0       0       0
   912 ;;      Locals:         0       0       0       0       0       0       0       0       0       0       0       0       
      +0       0       0       0       0       0
   913 ;;      Temps:          0       0       0       0       0       0       0       0       0       0       0       0       
      +0       0       0       0       0       0
   914 ;;      Totals:         0       0       0       0       0       0       0       0       0       0       0       0       
      +0       0       0       0       0       0
   915 ;;Total ram usage:        0 bytes
   916 ;; Hardware stack levels used: 1
   917 ;; Hardware stack levels required when called: 1
   918 ;; This function calls:
   919 ;;		_I2C1_SlaveSendTxData
   920 ;; This function is called by:
   921 ;;		_I2C1_Open
   922 ;;		_I2C1_SlaveWrCallBack
   923 ;; This function uses a non-reentrant model
   924 ;;
   925                           
   926                           	psect	text4
   927  00042C                     __ptext4:
   928                           	callstack 0
   929  00042C                     _I2C1_SlaveDefWrInterruptHandler:
   930                           	callstack 123
   931  00042C                     
   932                           ;mcc_generated_files/i2c1_slave.c: 314:     I2C1_SlaveSendTxData(Ji2c_registers[Jaccess_
      +                          reg]);
   933  00042C  0E60               	movlw	low _Ji2c_registers
   934  00042E  240E               	addwf	_Jaccess_reg^(0+1280),w,c	;volatile
   935  000430  6ED9               	movwf	fsr2l,c
   936  000432  6ADA               	clrf	fsr2h,c
   937  000434  0E05               	movlw	high _Ji2c_registers
   938  000436  22DA               	addwfc	fsr2h,f,c
   939  000438  50DF               	movf	indf2,w,c
   940  00043A  EC28  F002         	call	_I2C1_SlaveSendTxData
   941  00043E  0012               	return		;funcret
   942  000440                     __end_of_I2C1_SlaveDefWrInterruptHandler:
   943                           	callstack 0
   944                           
   945 ;; *************** function _I2C1_SlaveSendTxData *****************
   946 ;; Defined at:
   947 ;;		line 471 in file "mcc_generated_files/i2c1_slave.c"
   948 ;; Parameters:    Size  Location     Type
   949 ;;  data            1    wreg     unsigned char 
   950 ;; Auto vars:     Size  Location     Type
   951 ;;  data            1    0[COMRAM] unsigned char 
   952 ;; Return value:  Size  Location     Type
   953 ;;                  1    wreg      void 
   954 ;; Registers used:
   955 ;;		wreg
   956 ;; Tracked objects:
   957 ;;		On entry : 0/0
   958 ;;		On exit  : 0/0
   959 ;;		Unchanged: 0/0
   960 ;; Data sizes:     COMRAM   BANK5   BANK6   BANK7   BANK8   BANK9  BANK10  BANK11  BANK12  BANK13  BANK14  BANK15  BANK1
      +6  BANK17  BANK18  BANK19  BANK20  BANK21
   961 ;;      Params:         0       0       0       0       0       0       0       0       0       0       0       0       
      +0       0       0       0       0       0
   962 ;;      Locals:         1       0       0       0       0       0       0       0       0       0       0       0       
      +0       0       0       0       0       0
   963 ;;      Temps:          0       0       0       0       0       0       0       0       0       0       0       0       
      +0       0       0       0       0       0
   964 ;;      Totals:         1       0       0       0       0       0       0       0       0       0       0       0       
      +0       0       0       0       0       0
   965 ;;Total ram usage:        1 bytes
   966 ;; Hardware stack levels used: 1
   967 ;; This function calls:
   968 ;;		Nothing
   969 ;; This function is called by:
   970 ;;		_I2C1_SlaveDefWrInterruptHandler
   971 ;;		_I2C1_Write
   972 ;; This function uses a non-reentrant model
   973 ;;
   974                           
   975                           	psect	text5
   976  000450                     __ptext5:
   977                           	callstack 0
   978  000450                     _I2C1_SlaveSendTxData:
   979                           	callstack 123
   980                           
   981                           ;incstack = 0
   982                           ;I2C1_SlaveSendTxData@data stored from wreg
   983  000450  6E14               	movwf	I2C1_SlaveSendTxData@data^(0+1280),c
   984  000452                     
   985                           ;mcc_generated_files/i2c1_slave.c: 471: static __attribute__((inline)) void I2C1_SlaveSe
      +                          ndTxData(uint8_t data);mcc_generated_files/i2c1_slave.c: 472: {;mcc_generated_files/i2c1
      +                          _slave.c: 473:     I2C1TXB = data;
   986  000452  0061  F450  F28B   	movff	I2C1_SlaveSendTxData@data,651	;volatile
   987  000458  0012               	return		;funcret
   988  00045A                     __end_of_I2C1_SlaveSendTxData:
   989                           	callstack 0
   990                           
   991 ;; *************** function _I2C1_SlaveSetCounter *****************
   992 ;; Defined at:
   993 ;;		line 440 in file "mcc_generated_files/i2c1_slave.c"
   994 ;; Parameters:    Size  Location     Type
   995 ;;  counter         1    wreg     unsigned char 
   996 ;; Auto vars:     Size  Location     Type
   997 ;;  counter         1    0[COMRAM] unsigned char 
   998 ;; Return value:  Size  Location     Type
   999 ;;                  1    wreg      void 
  1000 ;; Registers used:
  1001 ;;		wreg, status,2
  1002 ;; Tracked objects:
  1003 ;;		On entry : 0/0
  1004 ;;		On exit  : 0/0
  1005 ;;		Unchanged: 0/0
  1006 ;; Data sizes:     COMRAM   BANK5   BANK6   BANK7   BANK8   BANK9  BANK10  BANK11  BANK12  BANK13  BANK14  BANK15  BANK1
      +6  BANK17  BANK18  BANK19  BANK20  BANK21
  1007 ;;      Params:         0       0       0       0       0       0       0       0       0       0       0       0       
      +0       0       0       0       0       0
  1008 ;;      Locals:         1       0       0       0       0       0       0       0       0       0       0       0       
      +0       0       0       0       0       0
  1009 ;;      Temps:          0       0       0       0       0       0       0       0       0       0       0       0       
      +0       0       0       0       0       0
  1010 ;;      Totals:         1       0       0       0       0       0       0       0       0       0       0       0       
      +0       0       0       0       0       0
  1011 ;;Total ram usage:        1 bytes
  1012 ;; Hardware stack levels used: 1
  1013 ;; This function calls:
  1014 ;;		Nothing
  1015 ;; This function is called by:
  1016 ;;		_I2C1_Isr
  1017 ;; This function uses a non-reentrant model
  1018 ;;
  1019                           
  1020                           	psect	text6
  1021  000440                     __ptext6:
  1022                           	callstack 0
  1023  000440                     _I2C1_SlaveSetCounter:
  1024                           	callstack 125
  1025                           
  1026                           ;incstack = 0
  1027                           ;I2C1_SlaveSetCounter@counter stored from wreg
  1028  000440  6E14               	movwf	I2C1_SlaveSetCounter@counter^(0+1280),c
  1029  000442                     
  1030                           ;mcc_generated_files/i2c1_slave.c: 440: static __attribute__((inline)) void I2C1_SlaveSe
      +                          tCounter(uint8_t counter);mcc_generated_files/i2c1_slave.c: 441: {;mcc_generated_files/i
      +                          2c1_slave.c: 442:     I2C1CNTL = counter;
  1031  000442  0061  F450  F28C   	movff	I2C1_SlaveSetCounter@counter,652	;volatile
  1032  000448                     
  1033                           ;mcc_generated_files/i2c1_slave.c: 443:     I2C1CNTH = 0x00;
  1034  000448  0E00               	movlw	0
  1035  00044A  0102               	movlb	2	; () banked
  1036  00044C  6F8D               	movwf	141,b	;volatile
  1037  00044E                     
  1038                           ; BSR set to: 2
  1039  00044E  0012               	return		;funcret
  1040  000450                     __end_of_I2C1_SlaveSetCounter:
  1041                           	callstack 0
  1042                           
  1043 ;; *************** function _I2C1_SlaveReleaseClock *****************
  1044 ;; Defined at:
  1045 ;;		line 446 in file "mcc_generated_files/i2c1_slave.c"
  1046 ;; Parameters:    Size  Location     Type
  1047 ;;		None
  1048 ;; Auto vars:     Size  Location     Type
  1049 ;;		None
  1050 ;; Return value:  Size  Location     Type
  1051 ;;                  1    wreg      void 
  1052 ;; Registers used:
  1053 ;;		None
  1054 ;; Tracked objects:
  1055 ;;		On entry : 0/0
  1056 ;;		On exit  : 0/0
  1057 ;;		Unchanged: 0/0
  1058 ;; Data sizes:     COMRAM   BANK5   BANK6   BANK7   BANK8   BANK9  BANK10  BANK11  BANK12  BANK13  BANK14  BANK15  BANK1
      +6  BANK17  BANK18  BANK19  BANK20  BANK21
  1059 ;;      Params:         0       0       0       0       0       0       0       0       0       0       0       0       
      +0       0       0       0       0       0
  1060 ;;      Locals:         0       0       0       0       0       0       0       0       0       0       0       0       
      +0       0       0       0       0       0
  1061 ;;      Temps:          0       0       0       0       0       0       0       0       0       0       0       0       
      +0       0       0       0       0       0
  1062 ;;      Totals:         0       0       0       0       0       0       0       0       0       0       0       0       
      +0       0       0       0       0       0
  1063 ;;Total ram usage:        0 bytes
  1064 ;; Hardware stack levels used: 1
  1065 ;; This function calls:
  1066 ;;		Nothing
  1067 ;; This function is called by:
  1068 ;;		_I2C1_Isr
  1069 ;; This function uses a non-reentrant model
  1070 ;;
  1071                           
  1072                           	psect	text7
  1073  000472                     __ptext7:
  1074                           	callstack 0
  1075  000472                     _I2C1_SlaveReleaseClock:
  1076                           	callstack 125
  1077  000472                     
  1078                           ;mcc_generated_files/i2c1_slave.c: 448:     I2C1CON0bits.CSTR = 0;
  1079  000472  0102               	movlb	2	; () banked
  1080  000474  9994               	bcf	148,4,b	;volatile
  1081  000476                     
  1082                           ; BSR set to: 2
  1083  000476  0012               	return		;funcret
  1084  000478                     __end_of_I2C1_SlaveReleaseClock:
  1085                           	callstack 0
  1086                           
  1087 ;; *************** function _I2C1_SlaveRdCallBack *****************
  1088 ;; Defined at:
  1089 ;;		line 268 in file "mcc_generated_files/i2c1_slave.c"
  1090 ;; Parameters:    Size  Location     Type
  1091 ;;		None
  1092 ;; Auto vars:     Size  Location     Type
  1093 ;;		None
  1094 ;; Return value:  Size  Location     Type
  1095 ;;                  1    wreg      void 
  1096 ;; Registers used:
  1097 ;;		wreg, fsr2l, fsr2h, status,2, status,0, pcl, pclath, pclatu, tosl, cstack
  1098 ;; Tracked objects:
  1099 ;;		On entry : 0/0
  1100 ;;		On exit  : 0/0
  1101 ;;		Unchanged: 0/0
  1102 ;; Data sizes:     COMRAM   BANK5   BANK6   BANK7   BANK8   BANK9  BANK10  BANK11  BANK12  BANK13  BANK14  BANK15  BANK1
      +6  BANK17  BANK18  BANK19  BANK20  BANK21
  1103 ;;      Params:         0       0       0       0       0       0       0       0       0       0       0       0       
      +0       0       0       0       0       0
  1104 ;;      Locals:         0       0       0       0       0       0       0       0       0       0       0       0       
      +0       0       0       0       0       0
  1105 ;;      Temps:          0       0       0       0       0       0       0       0       0       0       0       0       
      +0       0       0       0       0       0
  1106 ;;      Totals:         0       0       0       0       0       0       0       0       0       0       0       0       
      +0       0       0       0       0       0
  1107 ;;Total ram usage:        0 bytes
  1108 ;; Hardware stack levels used: 1
  1109 ;; Hardware stack levels required when called: 2
  1110 ;; This function calls:
  1111 ;;		Absolute function
  1112 ;;		_I2C1_SlaveDefRdInterruptHandler
  1113 ;; This function is called by:
  1114 ;;		_I2C1_Isr
  1115 ;; This function uses a non-reentrant model
  1116 ;;
  1117                           
  1118                           	psect	text8
  1119  000362                     __ptext8:
  1120                           	callstack 0
  1121  000362                     _I2C1_SlaveRdCallBack:
  1122                           	callstack 123
  1123  000362                     
  1124                           ;mcc_generated_files/i2c1_slave.c: 270:     if (I2C1_SlaveRdInterruptHandler)
  1125  000362  5009               	movf	_I2C1_SlaveRdInterruptHandler^(0+1280),w,c
  1126  000364  100A               	iorwf	(_I2C1_SlaveRdInterruptHandler+1)^(0+1280),w,c
  1127  000366  B4D8               	btfsc	status,2,c
  1128  000368  EFB8  F001         	goto	i2u12_41
  1129  00036C  EFBA  F001         	goto	i2u12_40
  1130  000370                     i2u12_41:
  1131  000370  EFC7  F001         	goto	i2l256
  1132  000374                     i2u12_40:
  1133  000374                     
  1134                           ;mcc_generated_files/i2c1_slave.c: 271:     {;mcc_generated_files/i2c1_slave.c: 272:    
      +                               I2C1_SlaveRdInterruptHandler();
  1135  000374  D802               	call	i2u13_48
  1136  000376  EFC7  F001         	goto	i2u13_49
  1137  00037A                     i2u13_48:
  1138  00037A  0005               	push	
  1139  00037C  6EFA               	movwf	pclath,c
  1140  00037E  5009               	movf	_I2C1_SlaveRdInterruptHandler^(0+1280),w,c
  1141  000380  6EFD               	movwf	tosl,c
  1142  000382  500A               	movf	(_I2C1_SlaveRdInterruptHandler+1)^(0+1280),w,c
  1143  000384  6EFE               	movwf	tosh,c
  1144  000386  50F8               	movf	tblptru,w,c
  1145  000388  6EFF               	movwf	tosu,c
  1146  00038A  50FA               	movf	pclath,w,c
  1147  00038C  0012               	return		;indir
  1148  00038E                     i2u13_49:
  1149  00038E                     i2l256:
  1150  00038E  0012               	return		;funcret
  1151  000390                     __end_of_I2C1_SlaveRdCallBack:
  1152                           	callstack 0
  1153                           
  1154 ;; *************** function _I2C1_SlaveDefRdInterruptHandler *****************
  1155 ;; Defined at:
  1156 ;;		line 276 in file "mcc_generated_files/i2c1_slave.c"
  1157 ;; Parameters:    Size  Location     Type
  1158 ;;		None
  1159 ;; Auto vars:     Size  Location     Type
  1160 ;;		None
  1161 ;; Return value:  Size  Location     Type
  1162 ;;                  1    wreg      void 
  1163 ;; Registers used:
  1164 ;;		wreg, fsr2l, fsr2h, status,2, status,0, cstack
  1165 ;; Tracked objects:
  1166 ;;		On entry : 0/0
  1167 ;;		On exit  : 0/0
  1168 ;;		Unchanged: 0/0
  1169 ;; Data sizes:     COMRAM   BANK5   BANK6   BANK7   BANK8   BANK9  BANK10  BANK11  BANK12  BANK13  BANK14  BANK15  BANK1
      +6  BANK17  BANK18  BANK19  BANK20  BANK21
  1170 ;;      Params:         0       0       0       0       0       0       0       0       0       0       0       0       
      +0       0       0       0       0       0
  1171 ;;      Locals:         0       0       0       0       0       0       0       0       0       0       0       0       
      +0       0       0       0       0       0
  1172 ;;      Temps:          0       0       0       0       0       0       0       0       0       0       0       0       
      +0       0       0       0       0       0
  1173 ;;      Totals:         0       0       0       0       0       0       0       0       0       0       0       0       
      +0       0       0       0       0       0
  1174 ;;Total ram usage:        0 bytes
  1175 ;; Hardware stack levels used: 1
  1176 ;; Hardware stack levels required when called: 1
  1177 ;; This function calls:
  1178 ;;		_I2C1_SlaveGetRxData
  1179 ;; This function is called by:
  1180 ;;		_I2C1_Open
  1181 ;;		_I2C1_SlaveRdCallBack
  1182 ;; This function uses a non-reentrant model
  1183 ;;
  1184                           
  1185                           	psect	text9
  1186  0002D0                     __ptext9:
  1187                           	callstack 0
  1188  0002D0                     _I2C1_SlaveDefRdInterruptHandler:
  1189                           	callstack 123
  1190  0002D0                     
  1191                           ;mcc_generated_files/i2c1_slave.c: 277:     i2c1RdData = I2C1_SlaveGetRxData();
  1192  0002D0  EC3C  F002         	call	_I2C1_SlaveGetRxData	;wreg free
  1193  0002D4  6E12               	movwf	_i2c1RdData^(0+1280),c	;volatile
  1194  0002D6                     
  1195                           ;mcc_generated_files/i2c1_slave.c: 280:     if (Ji2c_state == 0)
  1196  0002D6  500F               	movf	_Ji2c_state^(0+1280),w,c	;volatile
  1197  0002D8  A4D8               	btfss	status,2,c
  1198  0002DA  EF71  F001         	goto	i2u1_41
  1199  0002DE  EF73  F001         	goto	i2u1_40
  1200  0002E2                     i2u1_41:
  1201  0002E2  EF77  F001         	goto	i2l1351
  1202  0002E6                     i2u1_40:
  1203  0002E6                     
  1204                           ;mcc_generated_files/i2c1_slave.c: 281:     {;mcc_generated_files/i2c1_slave.c: 282:    
      +                               Jaccess_reg = i2c1RdData;
  1205  0002E6  C512  F50E         	movff	_i2c1RdData,_Jaccess_reg	;volatile
  1206                           
  1207                           ;mcc_generated_files/i2c1_slave.c: 283:     }
  1208  0002EA  EF80  F001         	goto	i2l1353
  1209  0002EE                     i2l1351:
  1210                           
  1211                           ;mcc_generated_files/i2c1_slave.c: 287:     {;mcc_generated_files/i2c1_slave.c: 288:    
      +                               Ji2c_registers[Jaccess_reg] = i2c1RdData;
  1212  0002EE  0E60               	movlw	low _Ji2c_registers
  1213  0002F0  240E               	addwf	_Jaccess_reg^(0+1280),w,c	;volatile
  1214  0002F2  6ED9               	movwf	fsr2l,c
  1215  0002F4  6ADA               	clrf	fsr2h,c
  1216  0002F6  0E05               	movlw	high _Ji2c_registers
  1217  0002F8  22DA               	addwfc	fsr2h,f,c
  1218  0002FA  0061  F448  F4DF   	movff	_i2c1RdData,indf2	;volatile
  1219  000300                     i2l1353:
  1220                           
  1221                           ;mcc_generated_files/i2c1_slave.c: 292:     Ji2c_state++;
  1222  000300  2A0F               	incf	_Ji2c_state^(0+1280),f,c	;volatile
  1223  000302  0012               	return		;funcret
  1224  000304                     __end_of_I2C1_SlaveDefRdInterruptHandler:
  1225                           	callstack 0
  1226                           
  1227 ;; *************** function _I2C1_SlaveGetRxData *****************
  1228 ;; Defined at:
  1229 ;;		line 476 in file "mcc_generated_files/i2c1_slave.c"
  1230 ;; Parameters:    Size  Location     Type
  1231 ;;		None
  1232 ;; Auto vars:     Size  Location     Type
  1233 ;;		None
  1234 ;; Return value:  Size  Location     Type
  1235 ;;                  1    wreg      unsigned char 
  1236 ;; Registers used:
  1237 ;;		wreg, status,2
  1238 ;; Tracked objects:
  1239 ;;		On entry : 0/0
  1240 ;;		On exit  : 0/0
  1241 ;;		Unchanged: 0/0
  1242 ;; Data sizes:     COMRAM   BANK5   BANK6   BANK7   BANK8   BANK9  BANK10  BANK11  BANK12  BANK13  BANK14  BANK15  BANK1
      +6  BANK17  BANK18  BANK19  BANK20  BANK21
  1243 ;;      Params:         0       0       0       0       0       0       0       0       0       0       0       0       
      +0       0       0       0       0       0
  1244 ;;      Locals:         0       0       0       0       0       0       0       0       0       0       0       0       
      +0       0       0       0       0       0
  1245 ;;      Temps:          0       0       0       0       0       0       0       0       0       0       0       0       
      +0       0       0       0       0       0
  1246 ;;      Totals:         0       0       0       0       0       0       0       0       0       0       0       0       
      +0       0       0       0       0       0
  1247 ;;Total ram usage:        0 bytes
  1248 ;; Hardware stack levels used: 1
  1249 ;; This function calls:
  1250 ;;		Nothing
  1251 ;; This function is called by:
  1252 ;;		_I2C1_SlaveDefRdInterruptHandler
  1253 ;;		_I2C1_Read
  1254 ;; This function uses a non-reentrant model
  1255 ;;
  1256                           
  1257                           	psect	text10
  1258  000478                     __ptext10:
  1259                           	callstack 0
  1260  000478                     _I2C1_SlaveGetRxData:
  1261                           	callstack 123
  1262  000478                     
  1263                           ;mcc_generated_files/i2c1_slave.c: 478:     return I2C1RXB;
  1264  000478  0102               	movlb	2	; () banked
  1265  00047A  518A               	movf	138,w,b	;volatile
  1266  00047C                     
  1267                           ; BSR set to: 2
  1268  00047C  0012               	return		;funcret
  1269  00047E                     __end_of_I2C1_SlaveGetRxData:
  1270                           	callstack 0
  1271                           
  1272 ;; *************** function _I2C1_SlaveIsTxBufEmpty *****************
  1273 ;; Defined at:
  1274 ;;		line 456 in file "mcc_generated_files/i2c1_slave.c"
  1275 ;; Parameters:    Size  Location     Type
  1276 ;;		None
  1277 ;; Auto vars:     Size  Location     Type
  1278 ;;		None
  1279 ;; Return value:  Size  Location     Type
  1280 ;;                  1    wreg      _Bool 
  1281 ;; Registers used:
  1282 ;;		wreg
  1283 ;; Tracked objects:
  1284 ;;		On entry : 0/0
  1285 ;;		On exit  : 0/0
  1286 ;;		Unchanged: 0/0
  1287 ;; Data sizes:     COMRAM   BANK5   BANK6   BANK7   BANK8   BANK9  BANK10  BANK11  BANK12  BANK13  BANK14  BANK15  BANK1
      +6  BANK17  BANK18  BANK19  BANK20  BANK21
  1288 ;;      Params:         0       0       0       0       0       0       0       0       0       0       0       0       
      +0       0       0       0       0       0
  1289 ;;      Locals:         0       0       0       0       0       0       0       0       0       0       0       0       
      +0       0       0       0       0       0
  1290 ;;      Temps:          0       0       0       0       0       0       0       0       0       0       0       0       
      +0       0       0       0       0       0
  1291 ;;      Totals:         0       0       0       0       0       0       0       0       0       0       0       0       
      +0       0       0       0       0       0
  1292 ;;Total ram usage:        0 bytes
  1293 ;; Hardware stack levels used: 1
  1294 ;; This function calls:
  1295 ;;		Nothing
  1296 ;; This function is called by:
  1297 ;;		_I2C1_Isr
  1298 ;; This function uses a non-reentrant model
  1299 ;;
  1300                           
  1301                           	psect	text11
  1302  0003BE                     __ptext11:
  1303                           	callstack 0
  1304  0003BE                     _I2C1_SlaveIsTxBufEmpty:
  1305                           	callstack 125
  1306  0003BE                     
  1307                           ;mcc_generated_files/i2c1_slave.c: 458:     return I2C1STAT1bits.TXBE;
  1308  0003BE  0102               	movlb	2	; () banked
  1309  0003C0  BB99               	btfsc	153,5,b	;volatile
  1310  0003C2  EFE5  F001         	goto	i2u8_41
  1311  0003C6  EFE8  F001         	goto	i2u8_40
  1312  0003CA                     i2u8_41:
  1313  0003CA  0E01               	movlw	1
  1314  0003CC  EFE9  F001         	goto	i2u8_46
  1315  0003D0                     i2u8_40:
  1316  0003D0  0E00               	movlw	0
  1317  0003D2                     i2u8_46:
  1318  0003D2                     
  1319                           ; BSR set to: 2
  1320  0003D2  0012               	return		;funcret
  1321  0003D4                     __end_of_I2C1_SlaveIsTxBufEmpty:
  1322                           	callstack 0
  1323                           
  1324 ;; *************** function _I2C1_SlaveIsStop *****************
  1325 ;; Defined at:
  1326 ;;		line 425 in file "mcc_generated_files/i2c1_slave.c"
  1327 ;; Parameters:    Size  Location     Type
  1328 ;;		None
  1329 ;; Auto vars:     Size  Location     Type
  1330 ;;		None
  1331 ;; Return value:  Size  Location     Type
  1332 ;;                  1    wreg      _Bool 
  1333 ;; Registers used:
  1334 ;;		wreg
  1335 ;; Tracked objects:
  1336 ;;		On entry : 0/0
  1337 ;;		On exit  : 0/0
  1338 ;;		Unchanged: 0/0
  1339 ;; Data sizes:     COMRAM   BANK5   BANK6   BANK7   BANK8   BANK9  BANK10  BANK11  BANK12  BANK13  BANK14  BANK15  BANK1
      +6  BANK17  BANK18  BANK19  BANK20  BANK21
  1340 ;;      Params:         0       0       0       0       0       0       0       0       0       0       0       0       
      +0       0       0       0       0       0
  1341 ;;      Locals:         0       0       0       0       0       0       0       0       0       0       0       0       
      +0       0       0       0       0       0
  1342 ;;      Temps:          0       0       0       0       0       0       0       0       0       0       0       0       
      +0       0       0       0       0       0
  1343 ;;      Totals:         0       0       0       0       0       0       0       0       0       0       0       0       
      +0       0       0       0       0       0
  1344 ;;Total ram usage:        0 bytes
  1345 ;; Hardware stack levels used: 1
  1346 ;; This function calls:
  1347 ;;		Nothing
  1348 ;; This function is called by:
  1349 ;;		_I2C1_Isr
  1350 ;; This function uses a non-reentrant model
  1351 ;;
  1352                           
  1353                           	psect	text12
  1354  0003D4                     __ptext12:
  1355                           	callstack 0
  1356  0003D4                     _I2C1_SlaveIsStop:
  1357                           	callstack 125
  1358  0003D4                     
  1359                           ;mcc_generated_files/i2c1_slave.c: 427:     return I2C1PIRbits.PCIF;
  1360  0003D4  0102               	movlb	2	; () banked
  1361  0003D6  B59A               	btfsc	154,2,b	;volatile
  1362  0003D8  EFF0  F001         	goto	i2u3_41
  1363  0003DC  EFF3  F001         	goto	i2u3_40
  1364  0003E0                     i2u3_41:
  1365  0003E0  0E01               	movlw	1
  1366  0003E2  EFF4  F001         	goto	i2u3_46
  1367  0003E6                     i2u3_40:
  1368  0003E6  0E00               	movlw	0
  1369  0003E8                     i2u3_46:
  1370  0003E8                     
  1371                           ; BSR set to: 2
  1372  0003E8  0012               	return		;funcret
  1373  0003EA                     __end_of_I2C1_SlaveIsStop:
  1374                           	callstack 0
  1375                           
  1376 ;; *************** function _I2C1_SlaveIsRxBufFull *****************
  1377 ;; Defined at:
  1378 ;;		line 466 in file "mcc_generated_files/i2c1_slave.c"
  1379 ;; Parameters:    Size  Location     Type
  1380 ;;		None
  1381 ;; Auto vars:     Size  Location     Type
  1382 ;;		None
  1383 ;; Return value:  Size  Location     Type
  1384 ;;                  1    wreg      _Bool 
  1385 ;; Registers used:
  1386 ;;		wreg
  1387 ;; Tracked objects:
  1388 ;;		On entry : 0/0
  1389 ;;		On exit  : 0/0
  1390 ;;		Unchanged: 0/0
  1391 ;; Data sizes:     COMRAM   BANK5   BANK6   BANK7   BANK8   BANK9  BANK10  BANK11  BANK12  BANK13  BANK14  BANK15  BANK1
      +6  BANK17  BANK18  BANK19  BANK20  BANK21
  1392 ;;      Params:         0       0       0       0       0       0       0       0       0       0       0       0       
      +0       0       0       0       0       0
  1393 ;;      Locals:         0       0       0       0       0       0       0       0       0       0       0       0       
      +0       0       0       0       0       0
  1394 ;;      Temps:          0       0       0       0       0       0       0       0       0       0       0       0       
      +0       0       0       0       0       0
  1395 ;;      Totals:         0       0       0       0       0       0       0       0       0       0       0       0       
      +0       0       0       0       0       0
  1396 ;;Total ram usage:        0 bytes
  1397 ;; Hardware stack levels used: 1
  1398 ;; This function calls:
  1399 ;;		Nothing
  1400 ;; This function is called by:
  1401 ;;		_I2C1_Isr
  1402 ;; This function uses a non-reentrant model
  1403 ;;
  1404                           
  1405                           	psect	text13
  1406  0003EA                     __ptext13:
  1407                           	callstack 0
  1408  0003EA                     _I2C1_SlaveIsRxBufFull:
  1409                           	callstack 125
  1410  0003EA                     
  1411                           ;mcc_generated_files/i2c1_slave.c: 468:     return I2C1STAT1bits.RXBF;
  1412  0003EA  0102               	movlb	2	; () banked
  1413  0003EC  B199               	btfsc	153,0,b	;volatile
  1414  0003EE  EFFB  F001         	goto	i2u11_41
  1415  0003F2  EFFE  F001         	goto	i2u11_40
  1416  0003F6                     i2u11_41:
  1417  0003F6  0E01               	movlw	1
  1418  0003F8  EFFF  F001         	goto	i2u11_46
  1419  0003FC                     i2u11_40:
  1420  0003FC  0E00               	movlw	0
  1421  0003FE                     i2u11_46:
  1422  0003FE                     
  1423                           ; BSR set to: 2
  1424  0003FE  0012               	return		;funcret
  1425  000400                     __end_of_I2C1_SlaveIsRxBufFull:
  1426                           	callstack 0
  1427                           
  1428 ;; *************** function _I2C1_SlaveIsRead *****************
  1429 ;; Defined at:
  1430 ;;		line 410 in file "mcc_generated_files/i2c1_slave.c"
  1431 ;; Parameters:    Size  Location     Type
  1432 ;;		None
  1433 ;; Auto vars:     Size  Location     Type
  1434 ;;		None
  1435 ;; Return value:  Size  Location     Type
  1436 ;;                  1    wreg      _Bool 
  1437 ;; Registers used:
  1438 ;;		wreg
  1439 ;; Tracked objects:
  1440 ;;		On entry : 0/0
  1441 ;;		On exit  : 0/0
  1442 ;;		Unchanged: 0/0
  1443 ;; Data sizes:     COMRAM   BANK5   BANK6   BANK7   BANK8   BANK9  BANK10  BANK11  BANK12  BANK13  BANK14  BANK15  BANK1
      +6  BANK17  BANK18  BANK19  BANK20  BANK21
  1444 ;;      Params:         0       0       0       0       0       0       0       0       0       0       0       0       
      +0       0       0       0       0       0
  1445 ;;      Locals:         0       0       0       0       0       0       0       0       0       0       0       0       
      +0       0       0       0       0       0
  1446 ;;      Temps:          0       0       0       0       0       0       0       0       0       0       0       0       
      +0       0       0       0       0       0
  1447 ;;      Totals:         0       0       0       0       0       0       0       0       0       0       0       0       
      +0       0       0       0       0       0
  1448 ;;Total ram usage:        0 bytes
  1449 ;; Hardware stack levels used: 1
  1450 ;; This function calls:
  1451 ;;		Nothing
  1452 ;; This function is called by:
  1453 ;;		_I2C1_Isr
  1454 ;;		_I2C1_IsRead
  1455 ;; This function uses a non-reentrant model
  1456 ;;
  1457                           
  1458                           	psect	text14
  1459  000400                     __ptext14:
  1460                           	callstack 0
  1461  000400                     _I2C1_SlaveIsRead:
  1462                           	callstack 125
  1463  000400                     
  1464                           ;mcc_generated_files/i2c1_slave.c: 412:     return I2C1STAT0bits.R;
  1465  000400  0102               	movlb	2	; () banked
  1466  000402  B998               	btfsc	152,4,b	;volatile
  1467  000404  EF06  F002         	goto	i2u2_41
  1468  000408  EF09  F002         	goto	i2u2_40
  1469  00040C                     i2u2_41:
  1470  00040C  0E01               	movlw	1
  1471  00040E  EF0A  F002         	goto	i2u2_46
  1472  000412                     i2u2_40:
  1473  000412  0E00               	movlw	0
  1474  000414                     i2u2_46:
  1475  000414                     
  1476                           ; BSR set to: 2
  1477  000414  0012               	return		;funcret
  1478  000416                     __end_of_I2C1_SlaveIsRead:
  1479                           	callstack 0
  1480                           
  1481 ;; *************** function _I2C1_SlaveIsAddr *****************
  1482 ;; Defined at:
  1483 ;;		line 405 in file "mcc_generated_files/i2c1_slave.c"
  1484 ;; Parameters:    Size  Location     Type
  1485 ;;		None
  1486 ;; Auto vars:     Size  Location     Type
  1487 ;;		None
  1488 ;; Return value:  Size  Location     Type
  1489 ;;                  1    wreg      _Bool 
  1490 ;; Registers used:
  1491 ;;		wreg
  1492 ;; Tracked objects:
  1493 ;;		On entry : 0/0
  1494 ;;		On exit  : 0/0
  1495 ;;		Unchanged: 0/0
  1496 ;; Data sizes:     COMRAM   BANK5   BANK6   BANK7   BANK8   BANK9  BANK10  BANK11  BANK12  BANK13  BANK14  BANK15  BANK1
      +6  BANK17  BANK18  BANK19  BANK20  BANK21
  1497 ;;      Params:         0       0       0       0       0       0       0       0       0       0       0       0       
      +0       0       0       0       0       0
  1498 ;;      Locals:         0       0       0       0       0       0       0       0       0       0       0       0       
      +0       0       0       0       0       0
  1499 ;;      Temps:          0       0       0       0       0       0       0       0       0       0       0       0       
      +0       0       0       0       0       0
  1500 ;;      Totals:         0       0       0       0       0       0       0       0       0       0       0       0       
      +0       0       0       0       0       0
  1501 ;;Total ram usage:        0 bytes
  1502 ;; Hardware stack levels used: 1
  1503 ;; This function calls:
  1504 ;;		Nothing
  1505 ;; This function is called by:
  1506 ;;		_I2C1_Isr
  1507 ;; This function uses a non-reentrant model
  1508 ;;
  1509                           
  1510                           	psect	text15
  1511  000416                     __ptext15:
  1512                           	callstack 0
  1513  000416                     _I2C1_SlaveIsAddr:
  1514                           	callstack 125
  1515  000416                     
  1516                           ;mcc_generated_files/i2c1_slave.c: 407:     return !(I2C1STAT0bits.D);
  1517  000416  0102               	movlb	2	; () banked
  1518  000418  A798               	btfss	152,3,b	;volatile
  1519  00041A  EF11  F002         	goto	i2u4_41
  1520  00041E  EF14  F002         	goto	i2u4_40
  1521  000422                     i2u4_41:
  1522  000422  0E01               	movlw	1
  1523  000424  EF15  F002         	goto	i2u5_40
  1524  000428                     i2u4_40:
  1525  000428  0E00               	movlw	0
  1526  00042A                     i2u5_40:
  1527  00042A                     
  1528                           ; BSR set to: 2
  1529  00042A  0012               	return		;funcret
  1530  00042C                     __end_of_I2C1_SlaveIsAddr:
  1531                           	callstack 0
  1532                           
  1533 ;; *************** function _I2C1_SlaveClearIrq *****************
  1534 ;; Defined at:
  1535 ;;		line 435 in file "mcc_generated_files/i2c1_slave.c"
  1536 ;; Parameters:    Size  Location     Type
  1537 ;;		None
  1538 ;; Auto vars:     Size  Location     Type
  1539 ;;		None
  1540 ;; Return value:  Size  Location     Type
  1541 ;;                  1    wreg      void 
  1542 ;; Registers used:
  1543 ;;		wreg, status,2
  1544 ;; Tracked objects:
  1545 ;;		On entry : 0/0
  1546 ;;		On exit  : 0/0
  1547 ;;		Unchanged: 0/0
  1548 ;; Data sizes:     COMRAM   BANK5   BANK6   BANK7   BANK8   BANK9  BANK10  BANK11  BANK12  BANK13  BANK14  BANK15  BANK1
      +6  BANK17  BANK18  BANK19  BANK20  BANK21
  1549 ;;      Params:         0       0       0       0       0       0       0       0       0       0       0       0       
      +0       0       0       0       0       0
  1550 ;;      Locals:         0       0       0       0       0       0       0       0       0       0       0       0       
      +0       0       0       0       0       0
  1551 ;;      Temps:          0       0       0       0       0       0       0       0       0       0       0       0       
      +0       0       0       0       0       0
  1552 ;;      Totals:         0       0       0       0       0       0       0       0       0       0       0       0       
      +0       0       0       0       0       0
  1553 ;;Total ram usage:        0 bytes
  1554 ;; Hardware stack levels used: 1
  1555 ;; This function calls:
  1556 ;;		Nothing
  1557 ;; This function is called by:
  1558 ;;		_I2C1_Isr
  1559 ;; This function uses a non-reentrant model
  1560 ;;
  1561                           
  1562                           	psect	text16
  1563  00045A                     __ptext16:
  1564                           	callstack 0
  1565  00045A                     _I2C1_SlaveClearIrq:
  1566                           	callstack 125
  1567  00045A                     
  1568                           ;mcc_generated_files/i2c1_slave.c: 437:     I2C1PIR = 0x00;
  1569  00045A  0E00               	movlw	0
  1570  00045C  0102               	movlb	2	; () banked
  1571  00045E  6F9A               	movwf	154,b	;volatile
  1572  000460                     
  1573                           ; BSR set to: 2
  1574  000460  0012               	return		;funcret
  1575  000462                     __end_of_I2C1_SlaveClearIrq:
  1576                           	callstack 0
  1577                           
  1578 ;; *************** function _I2C1_SlaveClearBuff *****************
  1579 ;; Defined at:
  1580 ;;		line 430 in file "mcc_generated_files/i2c1_slave.c"
  1581 ;; Parameters:    Size  Location     Type
  1582 ;;		None
  1583 ;; Auto vars:     Size  Location     Type
  1584 ;;		None
  1585 ;; Return value:  Size  Location     Type
  1586 ;;                  1    wreg      void 
  1587 ;; Registers used:
  1588 ;;		None
  1589 ;; Tracked objects:
  1590 ;;		On entry : 0/0
  1591 ;;		On exit  : 0/0
  1592 ;;		Unchanged: 0/0
  1593 ;; Data sizes:     COMRAM   BANK5   BANK6   BANK7   BANK8   BANK9  BANK10  BANK11  BANK12  BANK13  BANK14  BANK15  BANK1
      +6  BANK17  BANK18  BANK19  BANK20  BANK21
  1594 ;;      Params:         0       0       0       0       0       0       0       0       0       0       0       0       
      +0       0       0       0       0       0
  1595 ;;      Locals:         0       0       0       0       0       0       0       0       0       0       0       0       
      +0       0       0       0       0       0
  1596 ;;      Temps:          0       0       0       0       0       0       0       0       0       0       0       0       
      +0       0       0       0       0       0
  1597 ;;      Totals:         0       0       0       0       0       0       0       0       0       0       0       0       
      +0       0       0       0       0       0
  1598 ;;Total ram usage:        0 bytes
  1599 ;; Hardware stack levels used: 1
  1600 ;; This function calls:
  1601 ;;		Nothing
  1602 ;; This function is called by:
  1603 ;;		_I2C1_Isr
  1604 ;; This function uses a non-reentrant model
  1605 ;;
  1606                           
  1607                           	psect	text17
  1608  00047E                     __ptext17:
  1609                           	callstack 0
  1610  00047E                     _I2C1_SlaveClearBuff:
  1611                           	callstack 125
  1612  00047E                     
  1613                           ;mcc_generated_files/i2c1_slave.c: 432:     I2C1STAT1bits.CLRBF = 1;
  1614  00047E  0102               	movlb	2	; () banked
  1615  000480  8599               	bsf	153,2,b	;volatile
  1616  000482                     
  1617                           ; BSR set to: 2
  1618  000482  0012               	return		;funcret
  1619  000484                     __end_of_I2C1_SlaveClearBuff:
  1620                           	callstack 0
  1621                           
  1622 ;; *************** function _I2C1_SlaveAddrCallBack *****************
  1623 ;; Defined at:
  1624 ;;		line 322 in file "mcc_generated_files/i2c1_slave.c"
  1625 ;; Parameters:    Size  Location     Type
  1626 ;;		None
  1627 ;; Auto vars:     Size  Location     Type
  1628 ;;		None
  1629 ;; Return value:  Size  Location     Type
  1630 ;;                  1    wreg      void 
  1631 ;; Registers used:
  1632 ;;		wreg, status,2, status,0, pcl, pclath, pclatu, tosl, cstack
  1633 ;; Tracked objects:
  1634 ;;		On entry : 0/0
  1635 ;;		On exit  : 0/0
  1636 ;;		Unchanged: 0/0
  1637 ;; Data sizes:     COMRAM   BANK5   BANK6   BANK7   BANK8   BANK9  BANK10  BANK11  BANK12  BANK13  BANK14  BANK15  BANK1
      +6  BANK17  BANK18  BANK19  BANK20  BANK21
  1638 ;;      Params:         0       0       0       0       0       0       0       0       0       0       0       0       
      +0       0       0       0       0       0
  1639 ;;      Locals:         0       0       0       0       0       0       0       0       0       0       0       0       
      +0       0       0       0       0       0
  1640 ;;      Temps:          0       0       0       0       0       0       0       0       0       0       0       0       
      +0       0       0       0       0       0
  1641 ;;      Totals:         0       0       0       0       0       0       0       0       0       0       0       0       
      +0       0       0       0       0       0
  1642 ;;Total ram usage:        0 bytes
  1643 ;; Hardware stack levels used: 1
  1644 ;; Hardware stack levels required when called: 2
  1645 ;; This function calls:
  1646 ;;		Absolute function
  1647 ;;		_I2C1_SlaveDefAddrInterruptHandler
  1648 ;; This function is called by:
  1649 ;;		_I2C1_Isr
  1650 ;; This function uses a non-reentrant model
  1651 ;;
  1652                           
  1653                           	psect	text18
  1654  000390                     __ptext18:
  1655                           	callstack 0
  1656  000390                     _I2C1_SlaveAddrCallBack:
  1657                           	callstack 123
  1658  000390                     
  1659                           ;mcc_generated_files/i2c1_slave.c: 324:     if (I2C1_SlaveAddrInterruptHandler) {
  1660  000390  5005               	movf	_I2C1_SlaveAddrInterruptHandler^(0+1280),w,c
  1661  000392  1006               	iorwf	(_I2C1_SlaveAddrInterruptHandler+1)^(0+1280),w,c
  1662  000394  B4D8               	btfsc	status,2,c
  1663  000396  EFCF  F001         	goto	i2u6_41
  1664  00039A  EFD1  F001         	goto	i2u6_40
  1665  00039E                     i2u6_41:
  1666  00039E  EFDE  F001         	goto	i2l280
  1667  0003A2                     i2u6_40:
  1668  0003A2                     
  1669                           ;mcc_generated_files/i2c1_slave.c: 325:         I2C1_SlaveAddrInterruptHandler();
  1670  0003A2  D802               	call	i2u7_48
  1671  0003A4  EFDE  F001         	goto	i2u7_49
  1672  0003A8                     i2u7_48:
  1673  0003A8  0005               	push	
  1674  0003AA  6EFA               	movwf	pclath,c
  1675  0003AC  5005               	movf	_I2C1_SlaveAddrInterruptHandler^(0+1280),w,c
  1676  0003AE  6EFD               	movwf	tosl,c
  1677  0003B0  5006               	movf	(_I2C1_SlaveAddrInterruptHandler+1)^(0+1280),w,c
  1678  0003B2  6EFE               	movwf	tosh,c
  1679  0003B4  50F8               	movf	tblptru,w,c
  1680  0003B6  6EFF               	movwf	tosu,c
  1681  0003B8  50FA               	movf	pclath,w,c
  1682  0003BA  0012               	return		;indir
  1683  0003BC                     i2u7_49:
  1684  0003BC                     i2l280:
  1685  0003BC  0012               	return		;funcret
  1686  0003BE                     __end_of_I2C1_SlaveAddrCallBack:
  1687                           	callstack 0
  1688                           
  1689 ;; *************** function _I2C1_SlaveDefAddrInterruptHandler *****************
  1690 ;; Defined at:
  1691 ;;		line 329 in file "mcc_generated_files/i2c1_slave.c"
  1692 ;; Parameters:    Size  Location     Type
  1693 ;;		None
  1694 ;; Auto vars:     Size  Location     Type
  1695 ;;		None
  1696 ;; Return value:  Size  Location     Type
  1697 ;;                  1    wreg      void 
  1698 ;; Registers used:
  1699 ;;		wreg, status,2, status,0, cstack
  1700 ;; Tracked objects:
  1701 ;;		On entry : 0/0
  1702 ;;		On exit  : 0/0
  1703 ;;		Unchanged: 0/0
  1704 ;; Data sizes:     COMRAM   BANK5   BANK6   BANK7   BANK8   BANK9  BANK10  BANK11  BANK12  BANK13  BANK14  BANK15  BANK1
      +6  BANK17  BANK18  BANK19  BANK20  BANK21
  1705 ;;      Params:         0       0       0       0       0       0       0       0       0       0       0       0       
      +0       0       0       0       0       0
  1706 ;;      Locals:         0       0       0       0       0       0       0       0       0       0       0       0       
      +0       0       0       0       0       0
  1707 ;;      Temps:          0       0       0       0       0       0       0       0       0       0       0       0       
      +0       0       0       0       0       0
  1708 ;;      Totals:         0       0       0       0       0       0       0       0       0       0       0       0       
      +0       0       0       0       0       0
  1709 ;;Total ram usage:        0 bytes
  1710 ;; Hardware stack levels used: 1
  1711 ;; Hardware stack levels required when called: 1
  1712 ;; This function calls:
  1713 ;;		_I2C1_SlaveGetAddr
  1714 ;; This function is called by:
  1715 ;;		_I2C1_Open
  1716 ;;		_I2C1_SlaveAddrCallBack
  1717 ;; This function uses a non-reentrant model
  1718 ;;
  1719                           
  1720                           	psect	text19
  1721  000462                     __ptext19:
  1722                           	callstack 0
  1723  000462                     _I2C1_SlaveDefAddrInterruptHandler:
  1724                           	callstack 123
  1725  000462                     
  1726                           ;mcc_generated_files/i2c1_slave.c: 330:     i2c1SlaveAddr = I2C1_SlaveGetAddr();
  1727  000462  EC35  F002         	call	_I2C1_SlaveGetAddr	;wreg free
  1728  000466  6E11               	movwf	_i2c1SlaveAddr^(0+1280),c	;volatile
  1729  000468  0012               	return		;funcret
  1730  00046A                     __end_of_I2C1_SlaveDefAddrInterruptHandler:
  1731                           	callstack 0
  1732                           
  1733 ;; *************** function _I2C1_SlaveGetAddr *****************
  1734 ;; Defined at:
  1735 ;;		line 481 in file "mcc_generated_files/i2c1_slave.c"
  1736 ;; Parameters:    Size  Location     Type
  1737 ;;		None
  1738 ;; Auto vars:     Size  Location     Type
  1739 ;;		None
  1740 ;; Return value:  Size  Location     Type
  1741 ;;                  1    wreg      unsigned char 
  1742 ;; Registers used:
  1743 ;;		wreg, status,2, status,0
  1744 ;; Tracked objects:
  1745 ;;		On entry : 0/0
  1746 ;;		On exit  : 0/0
  1747 ;;		Unchanged: 0/0
  1748 ;; Data sizes:     COMRAM   BANK5   BANK6   BANK7   BANK8   BANK9  BANK10  BANK11  BANK12  BANK13  BANK14  BANK15  BANK1
      +6  BANK17  BANK18  BANK19  BANK20  BANK21
  1749 ;;      Params:         0       0       0       0       0       0       0       0       0       0       0       0       
      +0       0       0       0       0       0
  1750 ;;      Locals:         0       0       0       0       0       0       0       0       0       0       0       0       
      +0       0       0       0       0       0
  1751 ;;      Temps:          0       0       0       0       0       0       0       0       0       0       0       0       
      +0       0       0       0       0       0
  1752 ;;      Totals:         0       0       0       0       0       0       0       0       0       0       0       0       
      +0       0       0       0       0       0
  1753 ;;Total ram usage:        0 bytes
  1754 ;; Hardware stack levels used: 1
  1755 ;; This function calls:
  1756 ;;		Nothing
  1757 ;; This function is called by:
  1758 ;;		_I2C1_SlaveDefAddrInterruptHandler
  1759 ;;		_I2C1_ReadAddr
  1760 ;; This function uses a non-reentrant model
  1761 ;;
  1762                           
  1763                           	psect	text20
  1764  00046A                     __ptext20:
  1765                           	callstack 0
  1766  00046A                     _I2C1_SlaveGetAddr:
  1767                           	callstack 123
  1768  00046A                     
  1769                           ;mcc_generated_files/i2c1_slave.c: 483:     return I2C1ADB0 >> 1;
  1770  00046A  0102               	movlb	2	; () banked
  1771  00046C  90D8               	bcf	status,0,c
  1772  00046E  318E               	rrcf	142,w,b	;volatile
  1773  000470                     
  1774                           ; BSR set to: 2
  1775  000470  0012               	return		;funcret
  1776  000472                     __end_of_I2C1_SlaveGetAddr:
  1777                           	callstack 0
  1778                           
  1779                           ;
  1780                           ; Interrupt Vector Table @ 0x8
  1781                           ;
  1782                           
  1783                           	psect	ivt0x8
  1784  000008                     __pivt0x8:
  1785                           	callstack 0
  1786  000008                     ivt0x8_base:
  1787                           	callstack 0
  1788                           
  1789                           ; high-priority vector
  1790  000008  EF0E  F001         	goto	_INTERRUPT_InterruptManager
  1791  000018                     	org	16
  1792                           
  1793                           ; low-priority vector
  1794  000018  00FF               	reset	
  1795  0000                     
  1796                           	psect	text21
  1797  000000                     __ptext21:
  1798                           	callstack 0
  1799  000000                     
  1800                           	psect	rparam
  1801  0000                     
  1802                           	psect	idloc
  1803                           
  1804                           ;Config register IDLOC0 @ 0x200000
  1805                           ;	unspecified, using default values
  1806  200000                     	org	2097152
  1807  200000  0FFF               	dw	4095
  1808                           
  1809                           ;Config register IDLOC1 @ 0x200002
  1810                           ;	unspecified, using default values
  1811  200002                     	org	2097154
  1812  200002  0FFF               	dw	4095
  1813                           
  1814                           ;Config register IDLOC2 @ 0x200004
  1815                           ;	unspecified, using default values
  1816  200004                     	org	2097156
  1817  200004  0FFF               	dw	4095
  1818                           
  1819                           ;Config register IDLOC3 @ 0x200006
  1820                           ;	unspecified, using default values
  1821  200006                     	org	2097158
  1822  200006  0FFF               	dw	4095
  1823                           
  1824                           ;Config register IDLOC4 @ 0x200008
  1825                           ;	unspecified, using default values
  1826  200008                     	org	2097160
  1827  200008  0FFF               	dw	4095
  1828                           
  1829                           ;Config register IDLOC5 @ 0x20000A
  1830                           ;	unspecified, using default values
  1831  20000A                     	org	2097162
  1832  20000A  0FFF               	dw	4095
  1833                           
  1834                           ;Config register IDLOC6 @ 0x20000C
  1835                           ;	unspecified, using default values
  1836  20000C                     	org	2097164
  1837  20000C  0FFF               	dw	4095
  1838                           
  1839                           ;Config register IDLOC7 @ 0x20000E
  1840                           ;	unspecified, using default values
  1841  20000E                     	org	2097166
  1842  20000E  0FFF               	dw	4095
  1843                           
  1844                           ;Config register IDLOC8 @ 0x200010
  1845                           ;	unspecified, using default values
  1846  200010                     	org	2097168
  1847  200010  0FFF               	dw	4095
  1848                           
  1849                           ;Config register IDLOC9 @ 0x200012
  1850                           ;	unspecified, using default values
  1851  200012                     	org	2097170
  1852  200012  0FFF               	dw	4095
  1853                           
  1854                           ;Config register IDLOC10 @ 0x200014
  1855                           ;	unspecified, using default values
  1856  200014                     	org	2097172
  1857  200014  0FFF               	dw	4095
  1858                           
  1859                           ;Config register IDLOC11 @ 0x200016
  1860                           ;	unspecified, using default values
  1861  200016                     	org	2097174
  1862  200016  0FFF               	dw	4095
  1863                           
  1864                           ;Config register IDLOC12 @ 0x200018
  1865                           ;	unspecified, using default values
  1866  200018                     	org	2097176
  1867  200018  0FFF               	dw	4095
  1868                           
  1869                           ;Config register IDLOC13 @ 0x20001A
  1870                           ;	unspecified, using default values
  1871  20001A                     	org	2097178
  1872  20001A  0FFF               	dw	4095
  1873                           
  1874                           ;Config register IDLOC14 @ 0x20001C
  1875                           ;	unspecified, using default values
  1876  20001C                     	org	2097180
  1877  20001C  0FFF               	dw	4095
  1878                           
  1879                           ;Config register IDLOC15 @ 0x20001E
  1880                           ;	unspecified, using default values
  1881  20001E                     	org	2097182
  1882  20001E  0FFF               	dw	4095
  1883                           
  1884                           	psect	config
  1885                           
  1886                           ;Config register CONFIG1 @ 0x300000
  1887                           ;	External Oscillator Selection
  1888                           ;	FEXTOSC = OFF, Oscillator not enabled
  1889                           ;	Reset Oscillator Selection
  1890                           ;	RSTOSC = HFINTOSC_64MHZ, HFINTOSC with HFFRQ = 64 MHz and CDIV = 1:1
  1891  300000                     	org	3145728
  1892  300000  8C                 	db	140
  1893                           
  1894                           ;Config register CONFIG2 @ 0x300001
  1895                           ;	Clock out Enable bit
  1896                           ;	CLKOUTEN = OFF, CLKOUT function is disabled
  1897                           ;	PRLOCKED One-Way Set Enable bit
  1898                           ;	PR1WAY = ON, PRLOCKED bit can be cleared and set only once
  1899                           ;	Clock Switch Enable bit
  1900                           ;	CSWEN = ON, Writing to NOSC and NDIV is allowed
  1901                           ;	Fail-Safe Clock Monitor Enable bit
  1902                           ;	FCMEN = ON, Fail-Safe Clock Monitor enabled
  1903                           ;	Fail-Safe Clock Monitor - Primary XTAL Enable bit
  1904                           ;	FCMENP = ON, Fail-Safe Clock Monitor enabled; timer will flag FSCMP bit and OSFIF inte
      +                          rrupt on EXTOSC failure.
  1905                           ;	Fail-Safe Clock Monitor - Secondary XTAL Enable bit
  1906                           ;	FCMENS = ON, Fail-Safe Clock Monitor enabled; timer will flag FSCMP bit and OSFIF inte
      +                          rrupt on SOSC failure.
  1907  300001                     	org	3145729
  1908  300001  FF                 	db	255
  1909                           
  1910                           ;Config register CONFIG3 @ 0x300002
  1911                           ;	MCLR Enable bit
  1912                           ;	MCLRE = EXTMCLR, If LVP = 0, MCLR pin is MCLR; If LVP = 1, RE3 pin function is MCLR
  1913                           ;	Power-up timer selection bits
  1914                           ;	PWRTS = PWRT_OFF, PWRT is disabled
  1915                           ;	Multi-vector enable bit
  1916                           ;	MVECEN = OFF, Interrupt contoller does not use vector table to prioritze interrupts
  1917                           ;	IVTLOCK bit One-way set enable bit
  1918                           ;	IVT1WAY = ON, IVTLOCKED bit can be cleared and set only once
  1919                           ;	Low Power BOR Enable bit
  1920                           ;	LPBOREN = OFF, Low-Power BOR disabled
  1921                           ;	Brown-out Reset Enable bits
  1922                           ;	BOREN = SBORDIS, Brown-out Reset enabled , SBOREN bit is ignored
  1923  300002                     	org	3145730
  1924  300002  F7                 	db	247
  1925                           
  1926                           ;Config register CONFIG4 @ 0x300003
  1927                           ;	Brown-out Reset Voltage Selection bits
  1928                           ;	BORV = VBOR_1P9, Brown-out Reset Voltage (VBOR) set to 1.9V
  1929                           ;	ZCD Disable bit
  1930                           ;	ZCD = OFF, ZCD module is disabled. ZCD can be enabled by setting the ZCDSEN bit of ZCD
      +                          CON
  1931                           ;	PPSLOCK bit One-Way Set Enable bit
  1932                           ;	PPS1WAY = ON, PPSLOCKED bit can be cleared and set only once; PPS registers remain loc
      +                          ked after one clear/set cycle
  1933                           ;	Stack Full/Underflow Reset Enable bit
  1934                           ;	STVREN = ON, Stack full/underflow will cause Reset
  1935                           ;	Low Voltage Programming Enable bit
  1936                           ;	LVP = ON, Low voltage programming enabled. MCLR/VPP pin function is MCLR. MCLRE config
      +                          uration bit is ignored
  1937                           ;	Extended Instruction Set Enable bit
  1938                           ;	XINST = OFF, Extended Instruction Set and Indexed Addressing Mode disabled
  1939  300003                     	org	3145731
  1940  300003  FF                 	db	255
  1941                           
  1942                           ;Config register CONFIG5 @ 0x300004
  1943                           ;	WDT Period selection bits
  1944                           ;	WDTCPS = WDTCPS_31, Divider ratio 1:65536; software control of WDTPS
  1945                           ;	WDT operating mode
  1946                           ;	WDTE = OFF, WDT Disabled; SWDTEN is ignored
  1947  300004                     	org	3145732
  1948  300004  9F                 	db	159
  1949                           
  1950                           ;Config register CONFIG6 @ 0x300005
  1951                           ;	WDT Window Select bits
  1952                           ;	WDTCWS = WDTCWS_7, window always open (100%); software control; keyed access not requi
      +                          red
  1953                           ;	WDT input clock selector
  1954                           ;	WDTCCS = SC, Software Control
  1955  300005                     	org	3145733
  1956  300005  FF                 	db	255
  1957                           
  1958                           ;Config register CONFIG7 @ 0x300006
  1959                           ;	Boot Block Size selection bits
  1960                           ;	BBSIZE = BBSIZE_512, Boot Block size is 512 words
  1961                           ;	Boot Block enable bit
  1962                           ;	BBEN = OFF, Boot block disabled
  1963                           ;	Storage Area Flash enable bit
  1964                           ;	SAFEN = OFF, SAF disabled
  1965                           ;	Background Debugger
  1966                           ;	DEBUG = OFF, Background Debugger disabled
  1967  300006                     	org	3145734
  1968  300006  FF                 	db	255
  1969                           
  1970                           ;Config register CONFIG8 @ 0x300007
  1971                           ;	Boot Block Write Protection bit
  1972                           ;	WRTB = OFF, Boot Block not Write protected
  1973                           ;	Configuration Register Write Protection bit
  1974                           ;	WRTC = OFF, Configuration registers not Write protected
  1975                           ;	Data EEPROM Write Protection bit
  1976                           ;	WRTD = OFF, Data EEPROM not Write protected
  1977                           ;	SAF Write protection bit
  1978                           ;	WRTSAF = OFF, SAF not Write Protected
  1979                           ;	Application Block write protection bit
  1980                           ;	WRTAPP = OFF, Application Block not write protected
  1981  300007                     	org	3145735
  1982  300007  FF                 	db	255
  1983                           
  1984                           ;Config register CONFIG9 @ 0x300008
  1985                           ;	PFM and Data EEPROM Code Protection bit
  1986                           ;	CP = OFF, PFM and Data EEPROM code protection disabled
  1987  300008                     	org	3145736
  1988  300008  FF                 	db	255
  1989                           
  1990                           ; Padding undefined space
  1991  300009                     	org	3145737
  1992  300009  FF                 	db	255
  1993                           tosu	equ	0x4FF
  1994                           tosh	equ	0x4FE
  1995                           tosl	equ	0x4FD
  1996                           stkptr	equ	0x4FC
  1997                           pclatu	equ	0x4FB
  1998                           pclath	equ	0x4FA
  1999                           pcl	equ	0x4F9
  2000                           tblptru	equ	0x4F8
  2001                           tblptrh	equ	0x4F7
  2002                           tblptrl	equ	0x4F6
  2003                           tablat	equ	0x4F5
  2004                           prodh	equ	0x4F4
  2005                           prodl	equ	0x4F3
  2006                           indf0	equ	0x4EF
  2007                           postinc0	equ	0x4EE
  2008                           postdec0	equ	0x4ED
  2009                           preinc0	equ	0x4EC
  2010                           plusw0	equ	0x4EB
  2011                           fsr0h	equ	0x4EA
  2012                           fsr0l	equ	0x4E9
  2013                           wreg	equ	0x4E8
  2014                           indf1	equ	0x4E7
  2015                           postinc1	equ	0x4E6
  2016                           postdec1	equ	0x4E5
  2017                           preinc1	equ	0x4E4
  2018                           plusw1	equ	0x4E3
  2019                           fsr1h	equ	0x4E2
  2020                           fsr1l	equ	0x4E1
  2021                           bsr	equ	0x4E0
  2022                           indf2	equ	0x4DF
  2023                           postinc2	equ	0x4DE
  2024                           postdec2	equ	0x4DD
  2025                           preinc2	equ	0x4DC
  2026                           plusw2	equ	0x4DB
  2027                           fsr2h	equ	0x4DA
  2028                           fsr2l	equ	0x4D9
  2029                           status	equ	0x4D8

Data Sizes:
    Strings     0
    Constant    0
    Data        0
    BSS         147
    Persistent  0
    Stack       0

Auto Spaces:
    Space          Size  Autos    Used
    COMRAM           95     13      32
    BANK5           160      0     128
    BANK6           256      0       0
    BANK7           256      0       0
    BANK8           256      0       0
    BANK9           256      0       0
    BANK10          256      0       0
    BANK11          256      0       0
    BANK12          256      0       0
    BANK13          256      0       0
    BANK14          256      0       0
    BANK15          256      0       0
    BANK16          256      0       0
    BANK17          256      0       0
    BANK18          256      0       0
    BANK19          256      0       0
    BANK20          256      0       0
    BANK21          256      0       0

Pointer List with Targets:

    I2C1_SlaveBusColInterruptHandler	PTR FTN()void  size(2) Largest target is 1
		 -> Absolute function(), I2C1_SlaveDefBusColInterruptHandler(), 

    I2C1_SlaveWrColInterruptHandler	PTR FTN()void  size(2) Largest target is 1
		 -> Absolute function(), I2C1_SlaveDefWrColInterruptHandler(), 

    I2C1_SlaveAddrInterruptHandler	PTR FTN()void  size(2) Largest target is 1
		 -> Absolute function(), I2C1_SlaveDefAddrInterruptHandler(), 

    I2C1_SlaveWrInterruptHandler	PTR FTN()void  size(2) Largest target is 1
		 -> Absolute function(), I2C1_SlaveDefWrInterruptHandler(), 

    I2C1_SlaveRdInterruptHandler	PTR FTN()void  size(2) Largest target is 1
		 -> Absolute function(), I2C1_SlaveDefRdInterruptHandler(), 

    I2C1_InterruptHandler	PTR FTN()void  size(2) Largest target is 1
		 -> Absolute function(), I2C1_Isr(), 


Critical Paths under _main in COMRAM

    None.

Critical Paths under _INTERRUPT_InterruptManager in COMRAM

    _INTERRUPT_InterruptManager->_I2C1_Isr
    _I2C1_Isr->_I2C1_SlaveSetCounter
    _I2C1_SlaveDefWrInterruptHandler->_I2C1_SlaveSendTxData

Critical Paths under _main in BANK5

    None.

Critical Paths under _INTERRUPT_InterruptManager in BANK5

    None.

Critical Paths under _main in BANK6

    None.

Critical Paths under _INTERRUPT_InterruptManager in BANK6

    None.

Critical Paths under _main in BANK7

    None.

Critical Paths under _INTERRUPT_InterruptManager in BANK7

    None.

Critical Paths under _main in BANK8

    None.

Critical Paths under _INTERRUPT_InterruptManager in BANK8

    None.

Critical Paths under _main in BANK9

    None.

Critical Paths under _INTERRUPT_InterruptManager in BANK9

    None.

Critical Paths under _main in BANK10

    None.

Critical Paths under _INTERRUPT_InterruptManager in BANK10

    None.

Critical Paths under _main in BANK11

    None.

Critical Paths under _INTERRUPT_InterruptManager in BANK11

    None.

Critical Paths under _main in BANK12

    None.

Critical Paths under _INTERRUPT_InterruptManager in BANK12

    None.

Critical Paths under _main in BANK13

    None.

Critical Paths under _INTERRUPT_InterruptManager in BANK13

    None.

Critical Paths under _main in BANK14

    None.

Critical Paths under _INTERRUPT_InterruptManager in BANK14

    None.

Critical Paths under _main in BANK15

    None.

Critical Paths under _INTERRUPT_InterruptManager in BANK15

    None.

Critical Paths under _main in BANK16

    None.

Critical Paths under _INTERRUPT_InterruptManager in BANK16

    None.

Critical Paths under _main in BANK17

    None.

Critical Paths under _INTERRUPT_InterruptManager in BANK17

    None.

Critical Paths under _main in BANK18

    None.

Critical Paths under _INTERRUPT_InterruptManager in BANK18

    None.

Critical Paths under _main in BANK19

    None.

Critical Paths under _INTERRUPT_InterruptManager in BANK19

    None.

Critical Paths under _main in BANK20

    None.

Critical Paths under _INTERRUPT_InterruptManager in BANK20

    None.

Critical Paths under _main in BANK21

    None.

Critical Paths under _INTERRUPT_InterruptManager in BANK21

    None.

Call Graph Tables:

 ---------------------------------------------------------------------------------
 (Depth) Function   	        Calls       Base Space   Used Autos Params    Refs
 ---------------------------------------------------------------------------------
 (0) _main                                                 8     8      0      60
                                              5 COMRAM     8     8      0
 ---------------------------------------------------------------------------------
 Estimated maximum stack depth 0
 ---------------------------------------------------------------------------------
 (Depth) Function   	        Calls       Base Space   Used Autos Params    Refs
 ---------------------------------------------------------------------------------
 (1) _INTERRUPT_InterruptManager                           2     2      0      30
                                              3 COMRAM     2     2      0
                   Absolute function *
                           _I2C1_Isr *
 ---------------------------------------------------------------------------------
 (2) _I2C1_Isr                                             2     2      0      30
                                              1 COMRAM     2     2      0
             _I2C1_SlaveAddrCallBack
                _I2C1_SlaveClearBuff
                 _I2C1_SlaveClearIrq
                   _I2C1_SlaveIsAddr
                   _I2C1_SlaveIsRead
              _I2C1_SlaveIsRxBufFull
                   _I2C1_SlaveIsStop
             _I2C1_SlaveIsTxBufEmpty
               _I2C1_SlaveRdCallBack
             _I2C1_SlaveReleaseClock
               _I2C1_SlaveSetCounter
               _I2C1_SlaveWrCallBack
 ---------------------------------------------------------------------------------
 (3) _I2C1_SlaveWrCallBack                                 0     0      0      15
                   Absolute function *
    _I2C1_SlaveDefWrInterruptHandler *
 ---------------------------------------------------------------------------------
 (4) _I2C1_SlaveDefWrInterruptHandler                      0     0      0      15
               _I2C1_SlaveSendTxData
 ---------------------------------------------------------------------------------
 (5) _I2C1_SlaveSendTxData                                 1     1      0      15
                                              0 COMRAM     1     1      0
 ---------------------------------------------------------------------------------
 (3) _I2C1_SlaveSetCounter                                 1     1      0      15
                                              0 COMRAM     1     1      0
 ---------------------------------------------------------------------------------
 (3) _I2C1_SlaveReleaseClock                               0     0      0       0
 ---------------------------------------------------------------------------------
 (3) _I2C1_SlaveRdCallBack                                 0     0      0       0
                   Absolute function *
    _I2C1_SlaveDefRdInterruptHandler *
 ---------------------------------------------------------------------------------
 (4) _I2C1_SlaveDefRdInterruptHandler                      0     0      0       0
                _I2C1_SlaveGetRxData
 ---------------------------------------------------------------------------------
 (5) _I2C1_SlaveGetRxData                                  0     0      0       0
 ---------------------------------------------------------------------------------
 (3) _I2C1_SlaveIsTxBufEmpty                               0     0      0       0
 ---------------------------------------------------------------------------------
 (3) _I2C1_SlaveIsStop                                     0     0      0       0
 ---------------------------------------------------------------------------------
 (3) _I2C1_SlaveIsRxBufFull                                0     0      0       0
 ---------------------------------------------------------------------------------
 (3) _I2C1_SlaveIsRead                                     0     0      0       0
 ---------------------------------------------------------------------------------
 (3) _I2C1_SlaveIsAddr                                     0     0      0       0
 ---------------------------------------------------------------------------------
 (3) _I2C1_SlaveClearIrq                                   0     0      0       0
 ---------------------------------------------------------------------------------
 (3) _I2C1_SlaveClearBuff                                  0     0      0       0
 ---------------------------------------------------------------------------------
 (3) _I2C1_SlaveAddrCallBack                               0     0      0       0
                   Absolute function *
  _I2C1_SlaveDefAddrInterruptHandler *
 ---------------------------------------------------------------------------------
 (4) _I2C1_SlaveDefAddrInterruptHandler                    0     0      0       0
                  _I2C1_SlaveGetAddr
 ---------------------------------------------------------------------------------
 (5) _I2C1_SlaveGetAddr                                    0     0      0       0
 ---------------------------------------------------------------------------------
 (4) Absolute function(Fake)                               0     0      0       0
 ---------------------------------------------------------------------------------
 Estimated maximum stack depth 5
 ---------------------------------------------------------------------------------

 Call Graph Graphs:

 _main (ROOT)

 _INTERRUPT_InterruptManager (ROOT)
   Absolute function(Fake) *
   _I2C1_Isr *
     _I2C1_SlaveAddrCallBack
       Absolute function(Fake) *
       _I2C1_SlaveDefAddrInterruptHandler *
         _I2C1_SlaveGetAddr
     _I2C1_SlaveClearBuff
     _I2C1_SlaveClearIrq
     _I2C1_SlaveIsAddr
     _I2C1_SlaveIsRead
     _I2C1_SlaveIsRxBufFull
     _I2C1_SlaveIsStop
     _I2C1_SlaveIsTxBufEmpty
     _I2C1_SlaveRdCallBack
       Absolute function(Fake) *
       _I2C1_SlaveDefRdInterruptHandler *
         _I2C1_SlaveGetRxData
     _I2C1_SlaveReleaseClock
     _I2C1_SlaveSetCounter
     _I2C1_SlaveWrCallBack
       Absolute function(Fake) *
       _I2C1_SlaveDefWrInterruptHandler *
         _I2C1_SlaveSendTxData

 Address spaces:
Name               Size   Autos  Total    Cost      Usage
BIGRAM            10FF      0       0      38        0.0%
EEDATA             200      0       0       0        0.0%
BITBIGSFRhhhlll    160      0       0      55        0.0%
BITBIGSFRhhhhhl    13B      0       0      49        0.0%
BITBANK21          100      0       0      36        0.0%
BANK21             100      0       0      37        0.0%
BITBANK20          100      0       0      34        0.0%
BANK20             100      0       0      35        0.0%
BITBANK19          100      0       0      32        0.0%
BANK19             100      0       0      33        0.0%
BITBANK18          100      0       0      30        0.0%
BANK18             100      0       0      31        0.0%
BITBANK17          100      0       0      28        0.0%
BANK17             100      0       0      29        0.0%
BITBANK16          100      0       0      26        0.0%
BANK16             100      0       0      27        0.0%
BITBANK15          100      0       0      24        0.0%
BANK15             100      0       0      25        0.0%
BITBANK14          100      0       0      22        0.0%
BANK14             100      0       0      23        0.0%
BITBANK13          100      0       0      20        0.0%
BANK13             100      0       0      21        0.0%
BITBANK12          100      0       0      18        0.0%
BANK12             100      0       0      19        0.0%
BITBANK11          100      0       0      16        0.0%
BANK11             100      0       0      17        0.0%
BITBANK10          100      0       0      14        0.0%
BANK10             100      0       0      15        0.0%
BITBANK9           100      0       0      12        0.0%
BANK9              100      0       0      13        0.0%
BITBANK8           100      0       0      10        0.0%
BANK8              100      0       0      11        0.0%
BITBANK7           100      0       0       8        0.0%
BANK7              100      0       0       9        0.0%
BITBANK6           100      0       0       6        0.0%
BANK6              100      0       0       7        0.0%
BITBANK5            A0      0       0       4        0.0%
BANK5               A0      0      80       5       80.0%
BITBIGSFRhhhhhl     9A      0       0      44        0.0%
BITBIGSFRll         63      0       0      59        0.0%
BITCOMRAM           5F      0       0       0        0.0%
COMRAM              5F      D      20       1       33.7%
BITBIGSFRhhhlll     58      0       0      53        0.0%
BITBIGSFRlh         43      0       0      58        0.0%
BITBIGSFRhhhhhh     29      0       0      39        0.0%
BITBIGSFRhhhllh     18      0       0      52        0.0%
BITBIGSFRhhhhhh      D      0       0      40        0.0%
BITBIGSFRhhhhhh      A      0       0      43        0.0%
BITBIGSFRhhhhhl      5      0       0      47        0.0%
BITBIGSFRhhhhhh      5      0       0      41        0.0%
BITBIGSFRhhhhhh      3      0       0      42        0.0%
BITBIGSFRhhhhhl      3      0       0      46        0.0%
BITBIGSFRhhhhhl      3      0       0      45        0.0%
BITBIGSFRhhhlll      2      0       0      54        0.0%
BITBIGSFRhhhhhl      1      0       0      48        0.0%
BITBIGSFRhhhhlh      1      0       0      50        0.0%
BITBIGSFRhhhlhl      1      0       0      51        0.0%
BITBIGSFRhhlh        1      0       0      56        0.0%
BITBIGSFRhl          1      0       0      57        0.0%
BIGSFR               0      0       0     200        0.0%
BITSFR_5             0      0       0     200        0.0%
SFR_5                0      0       0     200        0.0%
BITSFR_4             0      0       0     200        0.0%
SFR_4                0      0       0     200        0.0%
BITSFR_3             0      0       0     200        0.0%
SFR_3                0      0       0     200        0.0%
BITSFR_2             0      0       0     200        0.0%
SFR_2                0      0       0     200        0.0%
BITSFR_1             0      0       0     200        0.0%
SFR_1                0      0       0     200        0.0%
BITSFR               0      0       0     200        0.0%
SFR                  0      0       0     200        0.0%
STACK                0      0       0       2        0.0%
NULL                 0      0       0       0        0.0%
ABS                  0      0      A0      60        0.0%
DATA                 0      0      A0       3        0.0%
CODE                 0      0       0       0        0.0%


Microchip Technology PIC18 Macro Assembler V2.35 build 20211206165544 
Symbol Table                                                                                   Fri Jul 29 21:29:30 2022

                 ??_I2C1_SlaveAddrCallBack 0514                                        l652 0158  
                                      l653 018C                                        l654 01B6  
                                      l655 01EA                                        u360 0188  
                                      u361 0184                                        u370 01B6  
                 __end_of_I2C1_SlaveIsAddr 042C                                        u371 01B2  
                                      u380 01E6                                        u381 01E2  
                                      u390 0214                                        u391 0210  
                 __end_of_I2C1_SlaveIsRead 0416                   __end_of_I2C1_SlaveIsStop 03EA  
                                      tosl 0004FD                                        wreg 0004E8  
                         __end_of_I2C1_Isr 0154                                       l1681 016C  
                                     l1693 01EC                                       l1685 018E  
                                     l1677 0154                                       l1687 01BA  
                                     l1679 015C                                       l1689 01CA  
                                     _LATA 0004BE                                       _LATB 0004BF  
                                     _LATC 0004C0                                       _PMD0 000063  
                                     _PMD1 000064                                       _PMD2 000065  
                                     _PMD3 000066                                       _PMD4 000067  
                                     _PMD5 000068                                       _WPUA 000401  
                                     _WPUB 000409                                       _WPUC 000411  
                                     _main 0154                                       indf2 0004DF  
                                     fsr2l 0004D9                                       start 001A  
                               _i2c1RdData 0512                               ___param_bank 000000  
                               _i2c1WrData 0513               _I2C1_SlaveRdInterruptHandler 0509  
             _I2C1_SlaveWrInterruptHandler 0507                                      _ADACT 0003F9  
                                    _ADCAP 0003F0                                      ?_main 0514  
                                    _ADCLK 0003FA                                      _ADCNT 0003E6  
                                    _ADPCH 0003EC                                      _ADREF 0003F8  
                                    _ADRPT 0003E7                                      i2l322 042A  
                                    i2l340 0460                                      i2l325 0414  
                                    i2l261 0302                                      i2l334 03E8  
                                    i2l270 0360                                      i2l246 0152  
                                    i2l343 044E                                      i2l280 03BC  
                                    i2l352 03D2                                      i2l256 038E  
                                    i2l337 0482                                      i2l361 0458  
                                    i2l273 043E                                      i2l346 0476  
                                    i2l283 0468                                      i2l364 047C  
                                    i2l461 0262                                      i2l358 03FE  
                                    i2l367 0470                                      i2l463 0282  
                                    i2l464 02C2                                      i2l465 02A2  
                                    i2l469 02C2                                      _OSCEN 0000B3  
                                    _TRISA 0004C6                                      _TRISB 0004C7  
                                    _TRISC 0004C8                             _i2c1SlaveState 0510  
                                    main@i 0519                                      pclath 0004FA  
                                    pclatu 0004FB                                      status 0004D8  
                          __initialization 0304                               __end_of_main 021C  
                    _I2C1_InterruptHandler 050B                                _Jaccess_reg 050E  
              ?_INTERRUPT_InterruptManager 0514                                     ??_main 0519  
                       _I2C1_SlaveClearIrq 045A                              __activetblptr 000002  
                      ?_I2C1_SlaveClearIrq 0514                                     _ADACCH 0003E4  
                                   _ADACCL 0003E3                                     _ADACCU 0003E5  
                                   _ADACQH 0003EF                                     _ADACQL 0003EE  
                                   _ADCON0 0003F3                                     _ADCON1 0003F4  
                                   _ADCON2 0003F5                                     _ADCON3 0003F6  
                                   _ADERRH 0003DE                                     _ADERRL 0003DD  
                                   _ACTCON 0000AC                                     _ADLTHH 0003DA  
                                   _ADLTHL 0003D9                                     _ADRESH 0003EB  
                                   _ADRESL 0003EA                                     _ADPREH 0003F2  
                                   _ADPREL 0003F1                                     _ADSTAT 0003F7  
                  ?_I2C1_SlaveReleaseClock 0514                                     _ADUTHH 0003DC  
                                   _ADUTHL 0003DB                                     _ANSELA 000400  
                                   _ANSELB 000408                                     _ANSELC 000410  
                                   _RC3PPS 000214                                     _ODCONA 000402  
                                   _ODCONB 00040A                                     _RC6PPS 000217  
                                   _ODCONC 000412                                     i2l1411 0044  
                                   i2l1403 001E                                     i2l1341 046A  
                                   i2l1421 0084                                     i2l1413 0048  
                                   i2l1405 0032                                     i2l1335 0478  
                                   i2l1351 02EE                                     i2l1431 00B4  
                                   i2l1423 008C                                     i2l1407 0036  
                                   i2l1415 0050                                     i2l1353 0300  
                                   i2l1345 02D0                                     i2l1441 00E0  
                                   i2l1433 00B8                                     i2l1425 00A0  
                                   i2l1417 0068                                     i2l1409 003A  
                                   i2l1363 03D4                                     i2l1347 02D6  
                                   i2l1371 0442                                     i2l1339 0452  
                                   i2l1355 042C                                     i2l1435 00CC  
                                   i2l1427 00A8                                     i2l1451 0114  
                                   i2l1419 007C                                     i2l1357 0462  
                                   i2l1381 0390                                     i2l1349 02E6  
                                   i2l1373 0448                                     i2l1445 00F8  
                                   i2l1437 00D4                                     i2l1453 014E  
                                   i2l1429 00B0                                     i2l1383 03A2  
                                   i2l1367 045A                                     i2l1359 0400  
                                   i2l1375 0472                                     i2l1391 0346  
                                   i2l1447 010C                                     i2l1439 00D8  
                                   i2l1369 047E                                     i2l1377 0416  
                                   i2l1393 03EA                                     i2l1385 03BE  
                                   i2l1715 0128                                     i2l1571 0270  
                                   i2l1397 0362                                     i2l1389 0334  
                                   i2l1565 0228                                     i2l1399 0374  
                                   i2l1575 0290                                     i2l1567 0236  
                                   i2l1569 0244                                     i2l1579 02B0  
                                   _INLVLA 000404                                     _INLVLB 00040C  
                                   _INLVLC 000414                                     _OSCFRQ 0000B1  
                                   i2u1_40 02E6                                     i2u1_41 02E2  
                                   i2u2_40 0412                                     i2u2_41 040C  
                                   i2u2_46 0414                                     i2u3_40 03E6  
                                   i2u3_41 03E0                                     i2u3_46 03E8  
                                   i2u4_40 0428                                     i2u4_41 0422  
                                   i2u5_40 042A                                     i2u6_40 03A2  
                                   i2u6_41 039E                                     i2u7_48 03A8  
                                   i2u8_40 03D0                                     i2u7_49 03BC  
                                   i2u8_41 03CA                                     i2u8_46 03D2  
                                   i2u9_40 0346                                     i2u9_41 0342  
                     ??_I2C1_SlaveClearIrq 0514                                     clear_0 030A  
                                   clear_1 0316                                  ?_I2C1_Isr 0514  
                                   isa$std 000001                                     tblptru 0004F8  
           __end_of_I2C1_SlaveReleaseClock 0478                     _I2C1_SlaveAddrCallBack 0390  
                               __accesstop 0560                    __end_of__initialization 032A  
                            ___rparam_used 000001                             __pcstackCOMRAM 0514  
                               ??_I2C1_Isr 0515                          ?_I2C1_SlaveIsAddr 0514  
                        ?_I2C1_SlaveIsRead 0514                          ?_I2C1_SlaveIsStop 0514  
                       ??_I2C1_SlaveIsAddr 0514                         ??_I2C1_SlaveIsRead 0514  
                       ??_I2C1_SlaveIsStop 0514                        _I2C1_SlaveClearBuff 047E  
                               __pbssBANK5 0560                        _I2C1_SlaveGetRxData 0478  
                    _I2C1_SlaveIsRxBufFull 03EA                                    IVTBASEH 00045E  
                                  IVTBASEL 00045D                                    IVTBASEU 00045F  
                     ?_I2C1_SlaveClearBuff 0514                                    _I2C1PIR 00029A  
                                  _I2C1RXB 00028A                                    _I2C1TXB 00028B  
                                  _ADFLTRH 0003E2                                    _ADFLTRL 0003E1  
                                  _ADPREVH 0003E9                                    _ADPREVL 0003E8  
                     ?_I2C1_SlaveGetRxData 0514                                    _ADSTPTH 0003E0  
                                  _ADSTPTL 0003DF                                    _OSCCON1 0000AD  
                                  _OSCCON3 0000AF                                    i2u11_40 03FC  
                                  i2u10_48 034C                                    i2u11_41 03F6  
                                  i2u10_49 0360                                    i2u11_46 03FE  
                                  i2u12_40 0374                                    i2u20_40 010C  
                                  i2u12_41 0370                                    i2u20_41 0108  
                                  i2u13_48 037A                                    i2u14_40 0032  
                                  i2u30_40 027E                                    i2u13_49 038E  
                                  i2u14_41 002E                                    i2u30_41 027A  
                                  i2u15_40 0068                                    i2u31_40 0290  
                                  i2u15_41 0064                                    i2u31_41 028C  
                                  i2u16_40 007C                                    i2u32_40 029E  
                                  i2u16_41 0078                                    i2u32_41 029A  
                                  i2u17_40 00A0                                    i2u33_40 02B0  
                                  i2u17_41 009C                                    i2u33_41 02AC  
                                  i2u18_40 00CC                                    i2u34_40 02BE  
                                  i2u26_40 0236                                    i2u18_41 00C8  
                                  i2u34_41 02BA                                    i2u26_41 0232  
                                  i2u19_40 00F4                                    i2u27_40 0244  
                                  i2u19_41 00F0                                    i2u27_41 0240  
                                  i2u29_40 0270                                    i2u28_48 024A  
                                  i2u29_41 026C                                    i2u28_49 025E  
                                  _OSCTUNE 0000B0                                    _SLRCONA 000403  
                                  _SLRCONB 00040B                                    _SLRCONC 000413  
                                  __Hparam 0000                                    __Lparam 0000  
                    ??_I2C1_SlaveClearBuff 0514                      ??_I2C1_SlaveGetRxData 0514  
                                  __pcinit 0304                                    __ramtop 1600  
                                  __ptext0 0154                                    __ptext1 021C  
                                  __ptext2 001E                                    __ptext3 0334  
                                  __ptext4 042C                                    __ptext5 0450  
                                  __ptext6 0440                                    __ptext7 0472  
                                  __ptext8 0362                                    __ptext9 02D0  
           _I2C1_SlaveAddrInterruptHandler 0505                                _I2C1ERRbits 000297  
                              _I2C1PIEbits 00029B                   ??_I2C1_SlaveIsTxBufEmpty 0514  
                              _I2C1PIRbits 00029A                       end_of_initialization 032A  
                            __Lmediumconst 0000                     ?_I2C1_SlaveIsRxBufFull 0514  
          _I2C1_SlaveWrColInterruptHandler 0501               __end_of_I2C1_SlaveRdCallBack 0390  
                                  postinc0 0004EE                    ?_I2C1_SlaveAddrCallBack 0514  
                                _TRISCbits 0004C8                                 main@i_1288 051D  
              I2C1_SlaveSetCounter@counter 0514                              _i2c1SlaveAddr 0511  
           __end_of_I2C1_SlaveAddrCallBack 03BE               __end_of_I2C1_SlaveSetCounter 0450  
             __end_of_I2C1_SlaveSendTxData 045A                        start_initialization 0304  
             __end_of_I2C1_SlaveWrCallBack 0362                                 ivt0x8_base 0008  
                        _I2C1_SlaveGetAddr 046A                         ?_I2C1_SlaveGetAddr 0514  
                 I2C1_SlaveSendTxData@data 0514                        ??_I2C1_SlaveGetAddr 0514  
       fp__I2C1_SlaveDefRdInterruptHandler 0000    __end_of_I2C1_SlaveDefRdInterruptHandler 0304  
        ??_I2C1_SlaveDefRdInterruptHandler 0514           ?_I2C1_SlaveDefRdInterruptHandler 0514  
          _I2C1_SlaveDefRdInterruptHandler 02D0         fp__I2C1_SlaveDefWrInterruptHandler 0000  
  __end_of_I2C1_SlaveDefWrInterruptHandler 0440          ??_I2C1_SlaveDefWrInterruptHandler 0515  
         ?_I2C1_SlaveDefWrInterruptHandler 0514            _I2C1_SlaveDefWrInterruptHandler 042C  
                              __pbssCOMRAM 0501                       _I2C1_SlaveRdCallBack 0362  
                __end_of_I2C1_SlaveGetAddr 0472                     _I2C1_SlaveIsTxBufEmpty 03BE  
                                 _I2C1ADB0 00028E                                   _I2C1ADR0 000290  
                                 _I2C1ADR1 000291                                   _I2C1ADR2 000292  
                                 _I2C1ADR3 000293                                   _I2C1BAUD 00029D  
                                 _I2C1CON0 000294                                   _I2C1CON1 000295  
                                 _I2C1CON2 000296                                   _I2C1CNTH 00028D  
                                 _I2C1CNTL 00028C                                   _I2C1_Isr 001E  
             ??_INTERRUPT_InterruptManager 0517                   ??_I2C1_SlaveReleaseClock 0514  
                    ?_I2C1_SlaveRdCallBack 0514                    ??_I2C1_SlaveIsRxBufFull 0514  
                               _I2C1SDAPPS 000270                                 _I2C1SCLPPS 000271  
                                 _LATCbits 0004C0                __end_of_I2C1_SlaveClearBuff 0484  
                                 _PIE7bits 0004AF                       _I2C1_SlaveSetCounter 0440  
                            _I2C1STAT0bits 000298                              _I2C1STAT1bits 000299  
              __end_of_I2C1_SlaveGetRxData 047E                       _I2C1_SlaveSendTxData 0450  
                                 _PIR7bits 0004BA                       _I2C1_SlaveWrCallBack 0334  
                               _ADCON0bits 0003F3                                 _ADCON1bits 0003F4  
                               _ADCON2bits 0003F5                                 _ADCON3bits 0003F6  
         _I2C1_SlaveBusColInterruptHandler 0503                                _INTCON0bits 0004D6  
       _I2C1_SlaveDefWrColInterruptHandler 000000       fp__I2C1_SlaveDefAddrInterruptHandler 0000  
__end_of_I2C1_SlaveDefAddrInterruptHandler 046A        ??_I2C1_SlaveDefAddrInterruptHandler 0514  
       ?_I2C1_SlaveDefAddrInterruptHandler 0514          _I2C1_SlaveDefAddrInterruptHandler 0462  
                         _I2C1_SlaveIsAddr 0416                           _I2C1_SlaveIsRead 0400  
                         _I2C1_SlaveIsStop 03D4                                 _ADSTATbits 0003F7  
                    ?_I2C1_SlaveSetCounter 0514                                   __Hrparam 0000  
                    ?_I2C1_SlaveSendTxData 0514                                   __Lrparam 0000  
                    ?_I2C1_SlaveWrCallBack 0514        _I2C1_SlaveDefBusColInterruptHandler 000000  
                   ??_I2C1_SlaveRdCallBack 0514                               _I2C1CON0bits 000294  
                                 _databyte 050D                               _I2C1CON1bits 000295  
                                 __pivt0x8 0008                                fp__I2C1_Isr 0000  
                                 __ptext10 0478                                   __ptext11 03BE  
                                 __ptext20 046A                                   __ptext12 03D4  
                                 __ptext21 0000                                   __ptext13 03EA  
                                 __ptext14 0400                                   __ptext15 0416  
                                 __ptext16 045A                                   __ptext17 047E  
                                 __ptext18 0390                                   __ptext19 0462  
               __end_of_I2C1_SlaveClearIrq 0462                                   isa$xinst 000000  
       __end_of_INTERRUPT_InterruptManager 02D0                 _INTERRUPT_InterruptManager 021C  
                                 intlevel2 0000                     _I2C1_SlaveReleaseClock 0472  
                  ?_I2C1_SlaveIsTxBufEmpty 0514                     ??_I2C1_SlaveSetCounter 0514  
                   ??_I2C1_SlaveSendTxData 0514                     ??_I2C1_SlaveWrCallBack 0515  
                           _Ji2c_registers 0560             __end_of_I2C1_SlaveIsTxBufEmpty 03D4  
            __end_of_I2C1_SlaveIsRxBufFull 0400                                 _Ji2c_state 050F  
